
main.elf:     file format elf32-littleriscv


Disassembly of section .text:

00000000 <__crt0_entry>:
       0:	f14020f3          	csrr	ra,mhartid
       4:	80080217          	auipc	tp,0x80080
       8:	ffb20213          	add	tp,tp,-5 # 8007ffff <__crt0_ram_last>
       c:	ff027113          	and	sp,tp,-16
      10:	80000197          	auipc	gp,0x80000
      14:	7f018193          	add	gp,gp,2032 # 80000800 <__global_pointer>
      18:	000022b7          	lui	t0,0x2
      1c:	80028293          	add	t0,t0,-2048 # 1800 <main+0x774>
      20:	30029073          	csrw	mstatus,t0
      24:	00000317          	auipc	t1,0x0
      28:	18030313          	add	t1,t1,384 # 1a4 <__crt0_trap>
      2c:	30531073          	csrw	mtvec,t1
      30:	30401073          	csrw	mie,zero
      34:	00011397          	auipc	t2,0x11
      38:	b2c38393          	add	t2,t2,-1236 # 10b60 <__crt0_copy_data_src_begin>
      3c:	80000417          	auipc	s0,0x80000
      40:	fc440413          	add	s0,s0,-60 # 80000000 <_impure_data>
      44:	80000497          	auipc	s1,0x80000
      48:	6d048493          	add	s1,s1,1744 # 80000714 <g_sink>
      4c:	80000517          	auipc	a0,0x80000
      50:	6c850513          	add	a0,a0,1736 # 80000714 <g_sink>
      54:	80069597          	auipc	a1,0x80069
      58:	65c58593          	add	a1,a1,1628 # 800696b0 <__crt0_bss_end>
      5c:	00000613          	li	a2,0
      60:	00000693          	li	a3,0
      64:	00000713          	li	a4,0
      68:	00000793          	li	a5,0
      6c:	00000813          	li	a6,0
      70:	00000893          	li	a7,0
      74:	00000913          	li	s2,0
      78:	00000993          	li	s3,0
      7c:	00000a13          	li	s4,0
      80:	00000a93          	li	s5,0
      84:	00000b13          	li	s6,0
      88:	00000b93          	li	s7,0
      8c:	00000c13          	li	s8,0
      90:	00000c93          	li	s9,0
      94:	00000d13          	li	s10,0
      98:	00000d93          	li	s11,0
      9c:	00000e13          	li	t3,0
      a0:	00000e93          	li	t4,0
      a4:	00000f13          	li	t5,0
      a8:	00000f93          	li	t6,0

000000ac <__crt0_smp_check>:
      ac:	02008a63          	beqz	ra,e0 <__crt0_smp_primary>
      b0:	00000797          	auipc	a5,0x0
      b4:	01878793          	add	a5,a5,24 # c8 <__crt0_smp_wakeup>
      b8:	30579073          	csrw	mtvec,a5
      bc:	30446073          	csrs	mie,8
      c0:	30046073          	csrs	mstatus,8
      c4:	0d80006f          	j	19c <__crt0_sleep>

000000c8 <__crt0_smp_wakeup>:
      c8:	fff44737          	lui	a4,0xfff44
      cc:	00872103          	lw	sp,8(a4) # fff44008 <__crt0_ram_last+0x7fec4009>
      d0:	00c72603          	lw	a2,12(a4)
      d4:	fff40737          	lui	a4,0xfff40
      d8:	00072223          	sw	zero,4(a4) # fff40004 <__crt0_ram_last+0x7fec0005>
      dc:	05c0006f          	j	138 <__crt0_main_entry>

000000e0 <__crt0_smp_primary>:
      e0:	00838e63          	beq	t2,s0,fc <__crt0_bss_clear>

000000e4 <__crt0_data_copy>:
      e4:	00945c63          	bge	s0,s1,fc <__crt0_bss_clear>
      e8:	0003a783          	lw	a5,0(t2)
      ec:	00f42023          	sw	a5,0(s0)
      f0:	00438393          	add	t2,t2,4
      f4:	00440413          	add	s0,s0,4
      f8:	fedff06f          	j	e4 <__crt0_data_copy>

000000fc <__crt0_bss_clear>:
      fc:	00b55863          	bge	a0,a1,10c <__crt0_bss_clear_end>
     100:	00052023          	sw	zero,0(a0)
     104:	00450513          	add	a0,a0,4
     108:	ff5ff06f          	j	fc <__crt0_bss_clear>

0000010c <__crt0_bss_clear_end>:
     10c:	00010417          	auipc	s0,0x10
     110:	e9c40413          	add	s0,s0,-356 # ffa8 <__fini_array_end>
     114:	00010497          	auipc	s1,0x10
     118:	e9448493          	add	s1,s1,-364 # ffa8 <__fini_array_end>

0000011c <__crt0_constructors>:
     11c:	00945a63          	bge	s0,s1,130 <__crt0_constructors_end>
     120:	00042083          	lw	ra,0(s0)
     124:	000080e7          	jalr	ra
     128:	00440413          	add	s0,s0,4
     12c:	ff1ff06f          	j	11c <__crt0_constructors>

00000130 <__crt0_constructors_end>:
     130:	00001617          	auipc	a2,0x1
     134:	f5c60613          	add	a2,a2,-164 # 108c <main>

00000138 <__crt0_main_entry>:
     138:	80000197          	auipc	gp,0x80000
     13c:	6c818193          	add	gp,gp,1736 # 80000800 <__global_pointer>
     140:	0ff0000f          	fence
     144:	0000100f          	fence.i
     148:	30029073          	csrw	mstatus,t0
     14c:	00000513          	li	a0,0
     150:	00000593          	li	a1,0
     154:	000600e7          	jalr	a2

00000158 <__crt0_main_exit>:
     158:	30401073          	csrw	mie,zero
     15c:	34051073          	csrw	mscratch,a0
     160:	00000517          	auipc	a0,0x0
     164:	04450513          	add	a0,a0,68 # 1a4 <__crt0_trap>
     168:	30551073          	csrw	mtvec,a0
     16c:	f1402473          	csrr	s0,mhartid
     170:	02041463          	bnez	s0,198 <__crt0_destructors_end>
     174:	00010417          	auipc	s0,0x10
     178:	e3440413          	add	s0,s0,-460 # ffa8 <__fini_array_end>
     17c:	00010497          	auipc	s1,0x10
     180:	e2c48493          	add	s1,s1,-468 # ffa8 <__fini_array_end>

00000184 <__crt0_destructors>:
     184:	00945a63          	bge	s0,s1,198 <__crt0_destructors_end>
     188:	00042083          	lw	ra,0(s0)
     18c:	000080e7          	jalr	ra
     190:	00440413          	add	s0,s0,4
     194:	ff1ff06f          	j	184 <__crt0_destructors>

00000198 <__crt0_destructors_end>:
     198:	00100073          	ebreak

0000019c <__crt0_sleep>:
     19c:	10500073          	wfi
     1a0:	ffdff06f          	j	19c <__crt0_sleep>

000001a4 <__crt0_trap>:
     1a4:	34041073          	csrw	mscratch,s0
     1a8:	34202473          	csrr	s0,mcause
     1ac:	01f45413          	srl	s0,s0,0x1f
     1b0:	02041663          	bnez	s0,1dc <__crt0_trap_end>
     1b4:	34102473          	csrr	s0,mepc
     1b8:	00440413          	add	s0,s0,4
     1bc:	34141073          	csrw	mepc,s0
     1c0:	34a02473          	csrr	s0,0x34a
     1c4:	00347413          	and	s0,s0,3
     1c8:	ffd40413          	add	s0,s0,-3
     1cc:	00040863          	beqz	s0,1dc <__crt0_trap_end>
     1d0:	34102473          	csrr	s0,mepc
     1d4:	ffe40413          	add	s0,s0,-2
     1d8:	34141073          	csrw	mepc,s0

000001dc <__crt0_trap_end>:
     1dc:	34002473          	csrr	s0,mscratch
     1e0:	30200073          	mret

000001e4 <rdcycle>:

/* ===== CSRs (64-bit safe read) ===== */
static inline uint64_t rdcycle(void){
#if __riscv_xlen == 32 || !defined(__riscv_xlen)
  uint32_t hi1, lo, hi2;
  do { __asm__ volatile("csrr %0,mcycleh":"=r"(hi1));
     1e4:	b80025f3          	csrr	a1,mcycleh
       __asm__ volatile("csrr %0,mcycle" :"=r"(lo));
     1e8:	b0002573          	csrr	a0,mcycle
       __asm__ volatile("csrr %0,mcycleh":"=r"(hi2)); } while (hi1 != hi2);
     1ec:	b80027f3          	csrr	a5,mcycleh
     1f0:	fef59ae3          	bne	a1,a5,1e4 <rdcycle>
  return ((uint64_t)hi1<<32)|lo;
#else
  uint64_t v; __asm__ volatile("csrr %0,mcycle":"=r"(v)); return v;
#endif
}
     1f4:	00008067          	ret

000001f8 <rdinstret>:
static inline uint64_t rdinstret(void){
#if __riscv_xlen == 32 || !defined(__riscv_xlen)
  uint32_t hi1, lo, hi2;
  do { __asm__ volatile("csrr %0,minstreth":"=r"(hi1));
     1f8:	b82025f3          	csrr	a1,minstreth
       __asm__ volatile("csrr %0,minstret" :"=r"(lo));
     1fc:	b0202573          	csrr	a0,minstret
       __asm__ volatile("csrr %0,minstreth":"=r"(hi2)); } while (hi1 != hi2);
     200:	b82027f3          	csrr	a5,minstreth
     204:	fef59ae3          	bne	a1,a5,1f8 <rdinstret>
  return ((uint64_t)hi1<<32)|lo;
#else
  uint64_t v; __asm__ volatile("csrr %0,minstret":"=r"(v)); return v;
#endif
}
     208:	00008067          	ret

0000020c <equal_i32>:
static void print_speedup_fixed(uint64_t num, uint64_t den){
  if(!den){ printf("  n/a   "); return; }
  uint64_t s=(num*1000ull+den/2)/den; printf("%4" PRIu64 ".%03" PRIu64 "x", s/1000, s%1000);
}
static int equal_i32(const int32_t* A, const int32_t* B, int n){
  for(int i=0;i<n;++i){ if(A[i]!=B[i]) return 0; } return 1;
     20c:	00261613          	sll	a2,a2,0x2
static int equal_i32(const int32_t* A, const int32_t* B, int n){
     210:	00000793          	li	a5,0
  for(int i=0;i<n;++i){ if(A[i]!=B[i]) return 0; } return 1;
     214:	00f506b3          	add	a3,a0,a5
     218:	00f58733          	add	a4,a1,a5
     21c:	0006a683          	lw	a3,0(a3)
     220:	00072703          	lw	a4,0(a4)
     224:	00e69a63          	bne	a3,a4,238 <equal_i32+0x2c>
     228:	00478793          	add	a5,a5,4
     22c:	fec794e3          	bne	a5,a2,214 <equal_i32+0x8>
     230:	00100513          	li	a0,1
     234:	00008067          	ret
     238:	00000513          	li	a0,0
}
     23c:	00008067          	ret

00000240 <requantize_i32_to_s8>:
  printf("[%s] (no mismatch found in %d elements)\n", tag, n);
}

/* Requantize int32→int8 (no scale; just saturation for test patterns) */
static void requantize_i32_to_s8(const int32_t *src, int n, int8_t *dst){
  for(int i=0;i<n;++i){
     240:	00000793          	li	a5,0
    int32_t v = src[i];
    if(v > 127) v = 127;
    if(v < -128) v = -128;
     244:	f8000813          	li	a6,-128
    dst[i] = (int8_t)v;
     248:	07f00893          	li	a7,127
    int32_t v = src[i];
     24c:	00279713          	sll	a4,a5,0x2
     250:	00e50733          	add	a4,a0,a4
    if(v < -128) v = -128;
     254:	00072703          	lw	a4,0(a4)
    dst[i] = (int8_t)v;
     258:	00f606b3          	add	a3,a2,a5
    if(v < -128) v = -128;
     25c:	01075463          	bge	a4,a6,264 <requantize_i32_to_s8+0x24>
     260:	f8000713          	li	a4,-128
    dst[i] = (int8_t)v;
     264:	00e8d463          	bge	a7,a4,26c <requantize_i32_to_s8+0x2c>
     268:	07f00713          	li	a4,127
     26c:	00e68023          	sb	a4,0(a3)
  for(int i=0;i<n;++i){
     270:	00178793          	add	a5,a5,1
     274:	fcf59ce3          	bne	a1,a5,24c <requantize_i32_to_s8+0xc>
  }
}
     278:	00008067          	ret

0000027c <cfs_read_C4>:
static inline uint32_t cfs_read (uint32_t off)             { return CFS_REG(off); }
     27c:	ffeb06b7          	lui	a3,0xffeb0
#else
  cfs_feed_strict_step(Aflat,Bflat,Klen,lda,ldb);
#endif
}
static inline void cfs_read_C4(int32_t C4[4][4]){
  for(int i=0;i<4;++i) for(int j=0;j<4;++j) C4[i][j]=(int32_t)cfs_read(CFS_C0+i*4+j);
     280:	00000713          	li	a4,0
     284:	01000613          	li	a2,16
static inline uint32_t cfs_read (uint32_t off)             { return CFS_REG(off); }
     288:	04068693          	add	a3,a3,64 # ffeb0040 <__crt0_ram_last+0x7fe30041>
  for(int i=0;i<4;++i) for(int j=0;j<4;++j) C4[i][j]=(int32_t)cfs_read(CFS_C0+i*4+j);
     28c:	01000893          	li	a7,16
     290:	02000313          	li	t1,32
     294:	00e50833          	add	a6,a0,a4
     298:	00000793          	li	a5,0
static inline uint32_t cfs_read (uint32_t off)             { return CFS_REG(off); }
     29c:	00d705b3          	add	a1,a4,a3
     2a0:	00f58e33          	add	t3,a1,a5
     2a4:	000e2e83          	lw	t4,0(t3)
  for(int i=0;i<4;++i) for(int j=0;j<4;++j) C4[i][j]=(int32_t)cfs_read(CFS_C0+i*4+j);
     2a8:	00f80e33          	add	t3,a6,a5
     2ac:	00478793          	add	a5,a5,4
     2b0:	01de2023          	sw	t4,0(t3)
     2b4:	ff1796e3          	bne	a5,a7,2a0 <cfs_read_C4+0x24>
     2b8:	00460613          	add	a2,a2,4
     2bc:	01070713          	add	a4,a4,16
     2c0:	fc661ae3          	bne	a2,t1,294 <cfs_read_C4+0x18>
}
     2c4:	00008067          	ret

000002c8 <relu_sw>:

/* ===== Layers: SW reference ===== */
static void relu_sw(int32_t *x, int n){ for(int i=0;i<n;++i) if(x[i]<0) x[i]=0; }
     2c8:	00259593          	sll	a1,a1,0x2
     2cc:	00b505b3          	add	a1,a0,a1
     2d0:	00052783          	lw	a5,0(a0)
     2d4:	0007d463          	bgez	a5,2dc <relu_sw+0x14>
     2d8:	00052023          	sw	zero,0(a0)
     2dc:	00450513          	add	a0,a0,4
     2e0:	feb518e3          	bne	a0,a1,2d0 <relu_sw+0x8>
     2e4:	00008067          	ret

000002e8 <maxpool2x2_sw>:
static void maxpool2x2_sw(const int32_t in[Cout][O2H][O2W], int32_t out[Cout][PH][PW]){
  for(int c=0;c<Cout;++c)
     2e8:	00010837          	lui	a6,0x10
     2ec:	01050833          	add	a6,a0,a6
    for(int y=0;y<PH;++y)
      for(int x=0;x<PW;++x){
     2f0:	01000f93          	li	t6,16
     2f4:	00001f37          	lui	t5,0x1
     2f8:	00058613          	mv	a2,a1
     2fc:	01e50eb3          	add	t4,a0,t5
     300:	0500006f          	j	350 <maxpool2x2_sw+0x68>
        int32_t m = in[c][2*y+0][2*x+0];
        if(in[c][2*y+0][2*x+1] > m) m = in[c][2*y+0][2*x+1];
        if(in[c][2*y+1][2*x+0] > m) m = in[c][2*y+1][2*x+0];
     304:	00072e03          	lw	t3,0(a4)
     308:	00472783          	lw	a5,4(a4)
     30c:	01c7d463          	bge	a5,t3,314 <maxpool2x2_sw+0x2c>
     310:	000e0793          	mv	a5,t3
     314:	0006ae03          	lw	t3,0(a3)
     318:	01c7d463          	bge	a5,t3,320 <maxpool2x2_sw+0x38>
     31c:	000e0793          	mv	a5,t3
        if(in[c][2*y+1][2*x+1] > m) m = in[c][2*y+1][2*x+1];
     320:	0046ae03          	lw	t3,4(a3)
     324:	01c7d463          	bge	a5,t3,32c <maxpool2x2_sw+0x44>
     328:	000e0793          	mv	a5,t3
        out[c][y][x]=m;
     32c:	00f32023          	sw	a5,0(t1)
      for(int x=0;x<PW;++x){
     330:	00188893          	add	a7,a7,1
     334:	00870713          	add	a4,a4,8
     338:	00868693          	add	a3,a3,8
     33c:	00430313          	add	t1,t1,4
     340:	fdf892e3          	bne	a7,t6,304 <maxpool2x2_sw+0x1c>
    for(int y=0;y<PH;++y)
     344:	10050513          	add	a0,a0,256
     348:	04060613          	add	a2,a2,64
     34c:	01d50c63          	beq	a0,t4,364 <maxpool2x2_sw+0x7c>
      for(int x=0;x<PW;++x){
     350:	08050693          	add	a3,a0,128
static void maxpool2x2_sw(const int32_t in[Cout][O2H][O2W], int32_t out[Cout][PH][PW]){
     354:	00060313          	mv	t1,a2
     358:	00050713          	mv	a4,a0
      for(int x=0;x<PW;++x){
     35c:	00000893          	li	a7,0
     360:	fa5ff06f          	j	304 <maxpool2x2_sw+0x1c>
  for(int c=0;c<Cout;++c)
     364:	40058593          	add	a1,a1,1024
     368:	f8a818e3          	bne	a6,a0,2f8 <maxpool2x2_sw+0x10>
      }
}
     36c:	00008067          	ret

00000370 <print_speedup_fixed>:
  if(!den){ printf("  n/a   "); return; }
     370:	00d667b3          	or	a5,a2,a3
     374:	00079863          	bnez	a5,384 <print_speedup_fixed+0x14>
     378:	00010537          	lui	a0,0x10
     37c:	fa850513          	add	a0,a0,-88 # ffa8 <__fini_array_end>
     380:	2d10106f          	j	1e50 <printf>
static void print_speedup_fixed(uint64_t num, uint64_t den){
     384:	fe010113          	add	sp,sp,-32
     388:	00812c23          	sw	s0,24(sp)
     38c:	00912a23          	sw	s1,20(sp)
     390:	00068413          	mv	s0,a3
  uint64_t s=(num*1000ull+den/2)/den; printf("%4" PRIu64 ".%03" PRIu64 "x", s/1000, s%1000);
     394:	00060493          	mv	s1,a2
     398:	00000693          	li	a3,0
     39c:	3e800613          	li	a2,1000
static void print_speedup_fixed(uint64_t num, uint64_t den){
     3a0:	00112e23          	sw	ra,28(sp)
  uint64_t s=(num*1000ull+den/2)/den; printf("%4" PRIu64 ".%03" PRIu64 "x", s/1000, s%1000);
     3a4:	2310f0ef          	jal	fdd4 <__muldi3>
     3a8:	00050793          	mv	a5,a0
     3ac:	01f41713          	sll	a4,s0,0x1f
     3b0:	0014d513          	srl	a0,s1,0x1
     3b4:	00a76533          	or	a0,a4,a0
     3b8:	00a78533          	add	a0,a5,a0
     3bc:	00145713          	srl	a4,s0,0x1
     3c0:	00f537b3          	sltu	a5,a0,a5
     3c4:	00e585b3          	add	a1,a1,a4
     3c8:	00b785b3          	add	a1,a5,a1
     3cc:	00048613          	mv	a2,s1
     3d0:	00040693          	mv	a3,s0
     3d4:	2080c0ef          	jal	c5dc <__udivdi3>
     3d8:	3e800613          	li	a2,1000
     3dc:	00000693          	li	a3,0
     3e0:	00050493          	mv	s1,a0
     3e4:	00058413          	mv	s0,a1
     3e8:	0a10c0ef          	jal	cc88 <__umoddi3>
     3ec:	00a12623          	sw	a0,12(sp)
     3f0:	00b12423          	sw	a1,8(sp)
     3f4:	3e800613          	li	a2,1000
     3f8:	00000693          	li	a3,0
     3fc:	00048513          	mv	a0,s1
     400:	00040593          	mv	a1,s0
     404:	1d80c0ef          	jal	c5dc <__udivdi3>
}
     408:	01812403          	lw	s0,24(sp)
  uint64_t s=(num*1000ull+den/2)/den; printf("%4" PRIu64 ".%03" PRIu64 "x", s/1000, s%1000);
     40c:	00c12703          	lw	a4,12(sp)
     410:	00812783          	lw	a5,8(sp)
}
     414:	01c12083          	lw	ra,28(sp)
     418:	01412483          	lw	s1,20(sp)
  uint64_t s=(num*1000ull+den/2)/den; printf("%4" PRIu64 ".%03" PRIu64 "x", s/1000, s%1000);
     41c:	00050613          	mv	a2,a0
     420:	00010537          	lui	a0,0x10
     424:	00058693          	mv	a3,a1
     428:	fb450513          	add	a0,a0,-76 # ffb4 <__fini_array_end+0xc>
}
     42c:	02010113          	add	sp,sp,32
  uint64_t s=(num*1000ull+den/2)/den; printf("%4" PRIu64 ".%03" PRIu64 "x", s/1000, s%1000);
     430:	2210106f          	j	1e50 <printf>

00000434 <conv_cfu.constprop.0>:
/* ===== CFU versions (DP4A) ===== */
static void conv_cfu(int Cin_, int H_, int W_,
                     int Cout_, int Kh_, int Kw_, int STR_, int PAD_,
                     const int8_t *in, const int8_t *Wm, int32_t *out){
  const int OH_=(H_+2*PAD_-Kh_)/STR_+1, OW_=(W_+2*PAD_-Kw_)/STR_+1;
  const int K_ = Cin_*Kh_*Kw_;
     434:	00351793          	sll	a5,a0,0x3
static void conv_cfu(int Cin_, int H_, int W_,
     438:	f8010113          	add	sp,sp,-128
  const int K_ = Cin_*Kh_*Kw_;
     43c:	00a787b3          	add	a5,a5,a0
static void conv_cfu(int Cin_, int H_, int W_,
     440:	06812c23          	sw	s0,120(sp)
     444:	06912a23          	sw	s1,116(sp)
     448:	07512223          	sw	s5,100(sp)
     44c:	07612023          	sw	s6,96(sp)
     450:	05812c23          	sw	s8,88(sp)
     454:	05912a23          	sw	s9,84(sp)
     458:	06112e23          	sw	ra,124(sp)
     45c:	07212823          	sw	s2,112(sp)
     460:	07312623          	sw	s3,108(sp)
     464:	07412423          	sw	s4,104(sp)
     468:	05712e23          	sw	s7,92(sp)
     46c:	05a12823          	sw	s10,80(sp)
     470:	05b12623          	sw	s11,76(sp)
     474:	00a12423          	sw	a0,8(sp)
     478:	00b12a23          	sw	a1,20(sp)
     47c:	00060b13          	mv	s6,a2
     480:	00068c93          	mv	s9,a3
     484:	00e12c23          	sw	a4,24(sp)
  const int K_ = Cin_*Kh_*Kw_;
     488:	00f12823          	sw	a5,16(sp)
     48c:	00000a93          	li	s5,0
  for(int oc=0; oc<Cout_; ++oc){
     490:	00000c13          	li	s8,0
          t=k+3;     int c3=t/(Kh_*Kw_); r=t%(Kh_*Kw_);     int ky3=r/Kw_; int kx3=r%Kw_;
          int iy0=oy*STR_+ky0-PAD_, ix0=ox*STR_+kx0-PAD_;
          int iy1=oy*STR_+ky1-PAD_, ix1=ox*STR_+kx1-PAD_;
          int iy2=oy*STR_+ky2-PAD_, ix2=ox*STR_+kx2-PAD_;
          int iy3=oy*STR_+ky3-PAD_, ix3=ox*STR_+kx3-PAD_;
          int8_t a0=(iy0>=0&&iy0<H_&&ix0>=0&&ix0<W_)? in[(c0*H_+iy0)*W_+ix0]:0;
     494:	fff00493          	li	s1,-1
     498:	02000413          	li	s0,32
    for(int oy=0; oy<OH_; ++oy)
     49c:	00ac1793          	sll	a5,s8,0xa
     4a0:	00f12023          	sw	a5,0(sp)
     4a4:	00000a13          	li	s4,0
     4a8:	3e80006f          	j	890 <conv_cfu.constprop.0+0x45c>
     4ac:	000d0913          	mv	s2,s10
          int t=k;   int c0=t/(Kh_*Kw_); int r=t%(Kh_*Kw_); int ky0=r/Kw_; int kx0=r%Kw_;
     4b0:	00900593          	li	a1,9
     4b4:	00090513          	mv	a0,s2
     4b8:	1b50f0ef          	jal	fe6c <__divsi3>
     4bc:	00a12623          	sw	a0,12(sp)
     4c0:	00900593          	li	a1,9
     4c4:	00090513          	mv	a0,s2
     4c8:	2290f0ef          	jal	fef0 <__modsi3>
     4cc:	00300593          	li	a1,3
     4d0:	00050d13          	mv	s10,a0
     4d4:	1990f0ef          	jal	fe6c <__divsi3>
     4d8:	02a12e23          	sw	a0,60(sp)
     4dc:	00300593          	li	a1,3
     4e0:	000d0513          	mv	a0,s10
     4e4:	20d0f0ef          	jal	fef0 <__modsi3>
          t=k+1;     int c1=t/(Kh_*Kw_); r=t%(Kh_*Kw_);     int ky1=r/Kw_; int kx1=r%Kw_;
     4e8:	00190d13          	add	s10,s2,1
          int t=k;   int c0=t/(Kh_*Kw_); int r=t%(Kh_*Kw_); int ky0=r/Kw_; int kx0=r%Kw_;
     4ec:	02a12c23          	sw	a0,56(sp)
          t=k+1;     int c1=t/(Kh_*Kw_); r=t%(Kh_*Kw_);     int ky1=r/Kw_; int kx1=r%Kw_;
     4f0:	00900593          	li	a1,9
     4f4:	000d0513          	mv	a0,s10
     4f8:	1750f0ef          	jal	fe6c <__divsi3>
     4fc:	02a12a23          	sw	a0,52(sp)
     500:	00900593          	li	a1,9
     504:	000d0513          	mv	a0,s10
     508:	1e90f0ef          	jal	fef0 <__modsi3>
     50c:	00300593          	li	a1,3
     510:	00050d13          	mv	s10,a0
     514:	1590f0ef          	jal	fe6c <__divsi3>
     518:	02a12823          	sw	a0,48(sp)
     51c:	00300593          	li	a1,3
     520:	000d0513          	mv	a0,s10
     524:	1cd0f0ef          	jal	fef0 <__modsi3>
          t=k+2;     int c2=t/(Kh_*Kw_); r=t%(Kh_*Kw_);     int ky2=r/Kw_; int kx2=r%Kw_;
     528:	00290d13          	add	s10,s2,2
          t=k+1;     int c1=t/(Kh_*Kw_); r=t%(Kh_*Kw_);     int ky1=r/Kw_; int kx1=r%Kw_;
     52c:	02a12623          	sw	a0,44(sp)
          t=k+2;     int c2=t/(Kh_*Kw_); r=t%(Kh_*Kw_);     int ky2=r/Kw_; int kx2=r%Kw_;
     530:	00900593          	li	a1,9
     534:	000d0513          	mv	a0,s10
     538:	1350f0ef          	jal	fe6c <__divsi3>
     53c:	02a12423          	sw	a0,40(sp)
     540:	00900593          	li	a1,9
     544:	000d0513          	mv	a0,s10
     548:	1a90f0ef          	jal	fef0 <__modsi3>
     54c:	00300593          	li	a1,3
     550:	00050d13          	mv	s10,a0
     554:	1190f0ef          	jal	fe6c <__divsi3>
     558:	02a12223          	sw	a0,36(sp)
     55c:	00300593          	li	a1,3
     560:	000d0513          	mv	a0,s10
     564:	18d0f0ef          	jal	fef0 <__modsi3>
     568:	00390d93          	add	s11,s2,3
     56c:	02a12023          	sw	a0,32(sp)
          t=k+3;     int c3=t/(Kh_*Kw_); r=t%(Kh_*Kw_);     int ky3=r/Kw_; int kx3=r%Kw_;
     570:	00900593          	li	a1,9
     574:	000d8513          	mv	a0,s11
     578:	0f50f0ef          	jal	fe6c <__divsi3>
     57c:	00a12e23          	sw	a0,28(sp)
     580:	00900593          	li	a1,9
     584:	000d8513          	mv	a0,s11
     588:	1690f0ef          	jal	fef0 <__modsi3>
     58c:	00300593          	li	a1,3
     590:	00050d13          	mv	s10,a0
     594:	0d90f0ef          	jal	fe6c <__divsi3>
     598:	00050d93          	mv	s11,a0
     59c:	00300593          	li	a1,3
     5a0:	000d0513          	mv	a0,s10
     5a4:	14d0f0ef          	jal	fef0 <__modsi3>
          int iy0=oy*STR_+ky0-PAD_, ix0=ox*STR_+kx0-PAD_;
     5a8:	03c12303          	lw	t1,60(sp)
          int iy1=oy*STR_+ky1-PAD_, ix1=ox*STR_+kx1-PAD_;
     5ac:	03012e83          	lw	t4,48(sp)
          int iy2=oy*STR_+ky2-PAD_, ix2=ox*STR_+kx2-PAD_;
     5b0:	02412f83          	lw	t6,36(sp)
          int iy0=oy*STR_+ky0-PAD_, ix0=ox*STR_+kx0-PAD_;
     5b4:	006a0e33          	add	t3,s4,t1
          int iy1=oy*STR_+ky1-PAD_, ix1=ox*STR_+kx1-PAD_;
     5b8:	01da0733          	add	a4,s4,t4
          int iy2=oy*STR_+ky2-PAD_, ix2=ox*STR_+kx2-PAD_;
     5bc:	01fa0d33          	add	s10,s4,t6
          int iy3=oy*STR_+ky3-PAD_, ix3=ox*STR_+kx3-PAD_;
     5c0:	01ba03b3          	add	t2,s4,s11
          int iy0=oy*STR_+ky0-PAD_, ix0=ox*STR_+kx0-PAD_;
     5c4:	fffe0e13          	add	t3,t3,-1
          int8_t a0=(iy0>=0&&iy0<H_&&ix0>=0&&ix0<W_)? in[(c0*H_+iy0)*W_+ix0]:0;
     5c8:	01c12683          	lw	a3,28(sp)
     5cc:	02012283          	lw	t0,32(sp)
     5d0:	02812803          	lw	a6,40(sp)
     5d4:	02c12f03          	lw	t5,44(sp)
     5d8:	03412883          	lw	a7,52(sp)
     5dc:	03812603          	lw	a2,56(sp)
          int iy1=oy*STR_+ky1-PAD_, ix1=ox*STR_+kx1-PAD_;
     5e0:	fff70713          	add	a4,a4,-1
          int iy2=oy*STR_+ky2-PAD_, ix2=ox*STR_+kx2-PAD_;
     5e4:	fffd0d13          	add	s10,s10,-1
          int iy3=oy*STR_+ky3-PAD_, ix3=ox*STR_+kx3-PAD_;
     5e8:	fff38393          	add	t2,t2,-1
          int8_t a0=(iy0>=0&&iy0<H_&&ix0>=0&&ix0<W_)? in[(c0*H_+iy0)*W_+ix0]:0;
     5ec:	00000593          	li	a1,0
     5f0:	029e0a63          	beq	t3,s1,624 <conv_cfu.constprop.0+0x1f0>
     5f4:	028e0863          	beq	t3,s0,624 <conv_cfu.constprop.0+0x1f0>
          int iy0=oy*STR_+ky0-PAD_, ix0=ox*STR_+kx0-PAD_;
     5f8:	00c987b3          	add	a5,s3,a2
     5fc:	fff78793          	add	a5,a5,-1
          int8_t a0=(iy0>=0&&iy0<H_&&ix0>=0&&ix0<W_)? in[(c0*H_+iy0)*W_+ix0]:0;
     600:	02978263          	beq	a5,s1,624 <conv_cfu.constprop.0+0x1f0>
     604:	02878063          	beq	a5,s0,624 <conv_cfu.constprop.0+0x1f0>
     608:	00c12583          	lw	a1,12(sp)
     60c:	00559593          	sll	a1,a1,0x5
     610:	01c585b3          	add	a1,a1,t3
     614:	00559593          	sll	a1,a1,0x5
     618:	00bb05b3          	add	a1,s6,a1
     61c:	00f585b3          	add	a1,a1,a5
     620:	00058583          	lb	a1,0(a1)
          int8_t a1=(iy1>=0&&iy1<H_&&ix1>=0&&ix1<W_)? in[(c1*H_+iy1)*W_+ix1]:0;
     624:	00000e13          	li	t3,0
     628:	02970863          	beq	a4,s1,658 <conv_cfu.constprop.0+0x224>
     62c:	02870663          	beq	a4,s0,658 <conv_cfu.constprop.0+0x224>
          int iy1=oy*STR_+ky1-PAD_, ix1=ox*STR_+kx1-PAD_;
     630:	01e987b3          	add	a5,s3,t5
     634:	fff78793          	add	a5,a5,-1
          int8_t a1=(iy1>=0&&iy1<H_&&ix1>=0&&ix1<W_)? in[(c1*H_+iy1)*W_+ix1]:0;
     638:	02978063          	beq	a5,s1,658 <conv_cfu.constprop.0+0x224>
     63c:	00878e63          	beq	a5,s0,658 <conv_cfu.constprop.0+0x224>
     640:	00589e13          	sll	t3,a7,0x5
     644:	00ee0e33          	add	t3,t3,a4
     648:	005e1e13          	sll	t3,t3,0x5
     64c:	01cb0e33          	add	t3,s6,t3
     650:	00fe0e33          	add	t3,t3,a5
     654:	000e0e03          	lb	t3,0(t3)
          int8_t a2=(iy2>=0&&iy2<H_&&ix2>=0&&ix2<W_)? in[(c2*H_+iy2)*W_+ix2]:0;
     658:	00000793          	li	a5,0
     65c:	029d0863          	beq	s10,s1,68c <conv_cfu.constprop.0+0x258>
     660:	028d0663          	beq	s10,s0,68c <conv_cfu.constprop.0+0x258>
          int iy2=oy*STR_+ky2-PAD_, ix2=ox*STR_+kx2-PAD_;
     664:	00598733          	add	a4,s3,t0
     668:	fff70713          	add	a4,a4,-1
          int8_t a2=(iy2>=0&&iy2<H_&&ix2>=0&&ix2<W_)? in[(c2*H_+iy2)*W_+ix2]:0;
     66c:	02970063          	beq	a4,s1,68c <conv_cfu.constprop.0+0x258>
     670:	00870e63          	beq	a4,s0,68c <conv_cfu.constprop.0+0x258>
     674:	00581793          	sll	a5,a6,0x5
     678:	01a787b3          	add	a5,a5,s10
     67c:	00579793          	sll	a5,a5,0x5
     680:	00fb07b3          	add	a5,s6,a5
     684:	00e787b3          	add	a5,a5,a4
     688:	00078783          	lb	a5,0(a5)
          int8_t a3=(iy3>=0&&iy3<H_&&ix3>=0&&ix3<W_)? in[(c3*H_+iy3)*W_+ix3]:0;
     68c:	00000713          	li	a4,0
     690:	02938863          	beq	t2,s1,6c0 <conv_cfu.constprop.0+0x28c>
     694:	02838663          	beq	t2,s0,6c0 <conv_cfu.constprop.0+0x28c>
          int iy3=oy*STR_+ky3-PAD_, ix3=ox*STR_+kx3-PAD_;
     698:	00a98d33          	add	s10,s3,a0
     69c:	fffd0d13          	add	s10,s10,-1
          int8_t a3=(iy3>=0&&iy3<H_&&ix3>=0&&ix3<W_)? in[(c3*H_+iy3)*W_+ix3]:0;
     6a0:	029d0063          	beq	s10,s1,6c0 <conv_cfu.constprop.0+0x28c>
     6a4:	008d0e63          	beq	s10,s0,6c0 <conv_cfu.constprop.0+0x28c>
     6a8:	00569713          	sll	a4,a3,0x5
     6ac:	00770733          	add	a4,a4,t2
     6b0:	00571713          	sll	a4,a4,0x5
     6b4:	00eb0733          	add	a4,s6,a4
     6b8:	01a70733          	add	a4,a4,s10
     6bc:	00070703          	lb	a4,0(a4)
         (((uint32_t)(uint8_t)x1) << 8)  |
     6c0:	0ffe7e13          	zext.b	t3,t3
     6c4:	008e1e13          	sll	t3,t3,0x8
  return  ((uint32_t)(uint8_t)x0)        |
     6c8:	0ff5f593          	zext.b	a1,a1
         (((uint32_t)(uint8_t)x2) << 16) |
     6cc:	0ff7f793          	zext.b	a5,a5
  return  ((uint32_t)(uint8_t)x0)        |
     6d0:	00be65b3          	or	a1,t3,a1
          uint32_t ap=pack4_s8_lsb(a0,a1,a2,a3);
          uint32_t bp=pack4_s8_lsb(
             Wm[(((oc*Cin_)+c0)*Kh_+ky0)*Kw_+kx0],
             Wm[(((oc*Cin_)+c1)*Kh_+ky1)*Kw_+kx1],
     6d4:	015888b3          	add	a7,a7,s5
         (((uint32_t)(uint8_t)x2) << 16) |
     6d8:	01079793          	sll	a5,a5,0x10
         (((uint32_t)(uint8_t)x1) << 8)  |
     6dc:	00f5e7b3          	or	a5,a1,a5
             Wm[(((oc*Cin_)+c1)*Kh_+ky1)*Kw_+kx1],
     6e0:	00189593          	sll	a1,a7,0x1
     6e4:	011585b3          	add	a1,a1,a7
     6e8:	01d585b3          	add	a1,a1,t4
         (((uint32_t)(uint8_t)x3) << 24);
     6ec:	01871713          	sll	a4,a4,0x18
         (((uint32_t)(uint8_t)x2) << 16) |
     6f0:	00e7e7b3          	or	a5,a5,a4
          uint32_t bp=pack4_s8_lsb(
     6f4:	00159713          	sll	a4,a1,0x1
     6f8:	00b70733          	add	a4,a4,a1
     6fc:	00ec8733          	add	a4,s9,a4
             Wm[(((oc*Cin_)+c2)*Kh_+ky2)*Kw_+kx2],
     700:	01580833          	add	a6,a6,s5
          uint32_t bp=pack4_s8_lsb(
     704:	01e70733          	add	a4,a4,t5
         (((uint32_t)(uint8_t)x1) << 8)  |
     708:	00074583          	lbu	a1,0(a4)
             Wm[(((oc*Cin_)+c2)*Kh_+ky2)*Kw_+kx2],
     70c:	00181713          	sll	a4,a6,0x1
     710:	01070733          	add	a4,a4,a6
     714:	01f70833          	add	a6,a4,t6
          uint32_t bp=pack4_s8_lsb(
     718:	00181713          	sll	a4,a6,0x1
     71c:	01070733          	add	a4,a4,a6
     720:	00ec8733          	add	a4,s9,a4
     724:	00570733          	add	a4,a4,t0
         (((uint32_t)(uint8_t)x2) << 16) |
     728:	00074703          	lbu	a4,0(a4)
         (((uint32_t)(uint8_t)x1) << 8)  |
     72c:	00859593          	sll	a1,a1,0x8
         (((uint32_t)(uint8_t)x2) << 16) |
     730:	01071713          	sll	a4,a4,0x10
     734:	00e5e5b3          	or	a1,a1,a4
             Wm[(((oc*Cin_)+c0)*Kh_+ky0)*Kw_+kx0],
     738:	00c12703          	lw	a4,12(sp)
     73c:	01570733          	add	a4,a4,s5
     740:	00171813          	sll	a6,a4,0x1
     744:	00e80833          	add	a6,a6,a4
     748:	00680833          	add	a6,a6,t1
          uint32_t bp=pack4_s8_lsb(
     74c:	00181713          	sll	a4,a6,0x1
     750:	01070733          	add	a4,a4,a6
     754:	00ec8733          	add	a4,s9,a4
     758:	00c70733          	add	a4,a4,a2
  return  ((uint32_t)(uint8_t)x0)        |
     75c:	00074803          	lbu	a6,0(a4)
             Wm[(((oc*Cin_)+c3)*Kh_+ky3)*Kw_+kx3]);
     760:	01568733          	add	a4,a3,s5
         (((uint32_t)(uint8_t)x2) << 16) |
     764:	0105e833          	or	a6,a1,a6
             Wm[(((oc*Cin_)+c3)*Kh_+ky3)*Kw_+kx3]);
     768:	00171593          	sll	a1,a4,0x1
     76c:	00e585b3          	add	a1,a1,a4
     770:	01b585b3          	add	a1,a1,s11
          uint32_t bp=pack4_s8_lsb(
     774:	00159713          	sll	a4,a1,0x1
     778:	00b70733          	add	a4,a4,a1
     77c:	00ec8733          	add	a4,s9,a4
     780:	00a70733          	add	a4,a4,a0
         (((uint32_t)(uint8_t)x3) << 24);
     784:	00074703          	lbu	a4,0(a4)
     788:	01871713          	sll	a4,a4,0x18
         (((uint32_t)(uint8_t)x2) << 16) |
     78c:	00e86833          	or	a6,a6,a4
  __asm__ volatile (".insn r 0x0B, %1, %2, %0, %3, %4"
     790:	0307878b          	.insn	4, 0x0307878b
          acc += cfu_dp4a((int32_t)ap,(int32_t)bp);
     794:	00fb8bb3          	add	s7,s7,a5
        for(; k+3<K_; k+=4){
     798:	01012783          	lw	a5,16(sp)
     79c:	00490d13          	add	s10,s2,4
     7a0:	00790913          	add	s2,s2,7
     7a4:	d0f944e3          	blt	s2,a5,4ac <conv_cfu.constprop.0+0x78>
        }
        for(;k<K_;++k){
     7a8:	01012783          	lw	a5,16(sp)
     7ac:	02fd4463          	blt	s10,a5,7d4 <conv_cfu.constprop.0+0x3a0>
          int iy=oy*STR_+ky-PAD_, ix=ox*STR_+kx-PAD_;
          int8_t a=(iy>=0&&iy<H_&&ix>=0&&ix<W_)? in[(c*H_+iy)*W_+ix]:0;
          int8_t b=Wm[(((oc*Cin_)+c)*Kh_+ky)*Kw_+kx];
          acc += (int32_t)a*b;
        }
        out[(oc*OH_+oy)*OW_+ox]=acc;
     7b0:	00412783          	lw	a5,4(sp)
      for(int ox=0; ox<OW_; ++ox){
     7b4:	00198993          	add	s3,s3,1
        out[(oc*OH_+oy)*OW_+ox]=acc;
     7b8:	0177a023          	sw	s7,0(a5)
      for(int ox=0; ox<OW_; ++ox){
     7bc:	00478793          	add	a5,a5,4
     7c0:	00f12223          	sw	a5,4(sp)
     7c4:	0a898c63          	beq	s3,s0,87c <conv_cfu.constprop.0+0x448>
        int32_t acc=0; int k=0;
     7c8:	00000b93          	li	s7,0
     7cc:	00000913          	li	s2,0
     7d0:	ce1ff06f          	j	4b0 <conv_cfu.constprop.0+0x7c>
          int c=k/(Kh_*Kw_), r=k%(Kh_*Kw_), ky=r/Kw_, kx=r%Kw_;
     7d4:	00900593          	li	a1,9
     7d8:	000d0513          	mv	a0,s10
     7dc:	6900f0ef          	jal	fe6c <__divsi3>
     7e0:	00900593          	li	a1,9
     7e4:	00050d93          	mv	s11,a0
     7e8:	000d0513          	mv	a0,s10
     7ec:	7040f0ef          	jal	fef0 <__modsi3>
     7f0:	00300593          	li	a1,3
     7f4:	00a12623          	sw	a0,12(sp)
     7f8:	6740f0ef          	jal	fe6c <__divsi3>
     7fc:	00050913          	mv	s2,a0
     800:	00c12503          	lw	a0,12(sp)
     804:	00300593          	li	a1,3
     808:	6e80f0ef          	jal	fef0 <__modsi3>
          int iy=oy*STR_+ky-PAD_, ix=ox*STR_+kx-PAD_;
     80c:	012a08b3          	add	a7,s4,s2
     810:	fff88893          	add	a7,a7,-1
          int8_t a=(iy>=0&&iy<H_&&ix>=0&&ix<W_)? in[(c*H_+iy)*W_+ix]:0;
     814:	00000593          	li	a1,0
     818:	02988863          	beq	a7,s1,848 <conv_cfu.constprop.0+0x414>
     81c:	02888663          	beq	a7,s0,848 <conv_cfu.constprop.0+0x414>
          int iy=oy*STR_+ky-PAD_, ix=ox*STR_+kx-PAD_;
     820:	00a98733          	add	a4,s3,a0
     824:	fff70713          	add	a4,a4,-1
          int8_t a=(iy>=0&&iy<H_&&ix>=0&&ix<W_)? in[(c*H_+iy)*W_+ix]:0;
     828:	02970063          	beq	a4,s1,848 <conv_cfu.constprop.0+0x414>
     82c:	00870e63          	beq	a4,s0,848 <conv_cfu.constprop.0+0x414>
     830:	005d9793          	sll	a5,s11,0x5
     834:	011787b3          	add	a5,a5,a7
     838:	00579793          	sll	a5,a5,0x5
     83c:	00fb07b3          	add	a5,s6,a5
     840:	00e787b3          	add	a5,a5,a4
     844:	00078583          	lb	a1,0(a5)
          int8_t b=Wm[(((oc*Cin_)+c)*Kh_+ky)*Kw_+kx];
     848:	01ba8db3          	add	s11,s5,s11
     84c:	001d9713          	sll	a4,s11,0x1
     850:	01b70733          	add	a4,a4,s11
     854:	01270733          	add	a4,a4,s2
     858:	00171793          	sll	a5,a4,0x1
     85c:	00e787b3          	add	a5,a5,a4
     860:	00fc87b3          	add	a5,s9,a5
     864:	00a78533          	add	a0,a5,a0
          acc += (int32_t)a*b;
     868:	00050503          	lb	a0,0(a0)
        for(;k<K_;++k){
     86c:	001d0d13          	add	s10,s10,1
          acc += (int32_t)a*b;
     870:	5400f0ef          	jal	fdb0 <__mulsi3>
     874:	00ab8bb3          	add	s7,s7,a0
        for(;k<K_;++k){
     878:	f31ff06f          	j	7a8 <conv_cfu.constprop.0+0x374>
    for(int oy=0; oy<OH_; ++oy)
     87c:	00012783          	lw	a5,0(sp)
     880:	001a0a13          	add	s4,s4,1
     884:	02078793          	add	a5,a5,32
     888:	00f12023          	sw	a5,0(sp)
     88c:	033a0063          	beq	s4,s3,8ac <conv_cfu.constprop.0+0x478>
      for(int ox=0; ox<OW_; ++ox){
     890:	00012783          	lw	a5,0(sp)
     894:	00000993          	li	s3,0
     898:	00279b93          	sll	s7,a5,0x2
     89c:	01812783          	lw	a5,24(sp)
     8a0:	017787b3          	add	a5,a5,s7
     8a4:	00f12223          	sw	a5,4(sp)
     8a8:	f21ff06f          	j	7c8 <conv_cfu.constprop.0+0x394>
  for(int oc=0; oc<Cout_; ++oc){
     8ac:	00812783          	lw	a5,8(sp)
     8b0:	001c0c13          	add	s8,s8,1
     8b4:	00fa8ab3          	add	s5,s5,a5
     8b8:	01412783          	lw	a5,20(sp)
     8bc:	befc10e3          	bne	s8,a5,49c <conv_cfu.constprop.0+0x68>
      }
  }
}
     8c0:	07c12083          	lw	ra,124(sp)
     8c4:	07812403          	lw	s0,120(sp)
     8c8:	07412483          	lw	s1,116(sp)
     8cc:	07012903          	lw	s2,112(sp)
     8d0:	06c12983          	lw	s3,108(sp)
     8d4:	06812a03          	lw	s4,104(sp)
     8d8:	06412a83          	lw	s5,100(sp)
     8dc:	06012b03          	lw	s6,96(sp)
     8e0:	05c12b83          	lw	s7,92(sp)
     8e4:	05812c03          	lw	s8,88(sp)
     8e8:	05412c83          	lw	s9,84(sp)
     8ec:	05012d03          	lw	s10,80(sp)
     8f0:	04c12d83          	lw	s11,76(sp)
     8f4:	08010113          	add	sp,sp,128
     8f8:	00008067          	ret

000008fc <conv_sw_generic.constprop.0>:
static void conv_sw_generic(int Cin_, int H_, int W_,
     8fc:	f8010113          	add	sp,sp,-128
     900:	00551793          	sll	a5,a0,0x5
     904:	07612023          	sw	s6,96(sp)
     908:	05712e23          	sw	s7,92(sp)
     90c:	05812c23          	sw	s8,88(sp)
     910:	05b12623          	sw	s11,76(sp)
     914:	00f12623          	sw	a5,12(sp)
     918:	06112e23          	sw	ra,124(sp)
     91c:	06812c23          	sw	s0,120(sp)
     920:	06912a23          	sw	s1,116(sp)
     924:	07212823          	sw	s2,112(sp)
     928:	07312623          	sw	s3,108(sp)
     92c:	07412423          	sw	s4,104(sp)
     930:	07512223          	sw	s5,100(sp)
     934:	05912a23          	sw	s9,84(sp)
     938:	05a12823          	sw	s10,80(sp)
     93c:	00050c13          	mv	s8,a0
     940:	00058d93          	mv	s11,a1
    for(int oy=0; oy<OH_; ++oy)
     944:	00000b13          	li	s6,0
  for(int oc=0; oc<Cout_; ++oc)
     948:	00000b93          	li	s7,0
              int8_t a=(iy>=0&&iy<H_&&ix>=0&&ix<W_)? in[(c*H_+iy)*W_+ix] : 0;
     94c:	fff00f13          	li	t5,-1
     950:	02000793          	li	a5,32
    for(int oy=0; oy<OH_; ++oy)
     954:	001b1593          	sll	a1,s6,0x1
     958:	016585b3          	add	a1,a1,s6
     95c:	00ab9d13          	sll	s10,s7,0xa
     960:	00b12823          	sw	a1,16(sp)
     964:	00000413          	li	s0,0
     968:	1140006f          	j	a7c <conv_sw_generic.constprop.0+0x180>
              int8_t a=(iy>=0&&iy<H_&&ix>=0&&ix<W_)? in[(c*H_+iy)*W_+ix] : 0;
     96c:	00000593          	li	a1,0
     970:	01ea0e63          	beq	s4,t5,98c <conv_sw_generic.constprop.0+0x90>
     974:	00fa0c63          	beq	s4,a5,98c <conv_sw_generic.constprop.0+0x90>
     978:	01e90a63          	beq	s2,t5,98c <conv_sw_generic.constprop.0+0x90>
     97c:	00f90863          	beq	s2,a5,98c <conv_sw_generic.constprop.0+0x90>
     980:	01c605b3          	add	a1,a2,t3
     984:	012585b3          	add	a1,a1,s2
     988:	fe058583          	lb	a1,-32(a1)
              acc += (int32_t)a*(int32_t)b;
     98c:	000e8503          	lb	a0,0(t4)
     990:	03f12e23          	sw	t6,60(sp)
     994:	02712c23          	sw	t2,56(sp)
     998:	02e12a23          	sw	a4,52(sp)
     99c:	02d12823          	sw	a3,48(sp)
     9a0:	02c12623          	sw	a2,44(sp)
     9a4:	02512423          	sw	t0,40(sp)
     9a8:	02612223          	sw	t1,36(sp)
     9ac:	03112023          	sw	a7,32(sp)
     9b0:	01012e23          	sw	a6,28(sp)
     9b4:	01c12c23          	sw	t3,24(sp)
     9b8:	01d12a23          	sw	t4,20(sp)
     9bc:	3f40f0ef          	jal	fdb0 <__mulsi3>
     9c0:	01c12803          	lw	a6,28(sp)
            for(int kx=0; kx<Kw_; ++kx){
     9c4:	01412e83          	lw	t4,20(sp)
     9c8:	03812383          	lw	t2,56(sp)
     9cc:	00190913          	add	s2,s2,1
     9d0:	01812e03          	lw	t3,24(sp)
     9d4:	02012883          	lw	a7,32(sp)
     9d8:	02412303          	lw	t1,36(sp)
     9dc:	02812283          	lw	t0,40(sp)
     9e0:	02c12603          	lw	a2,44(sp)
     9e4:	03012683          	lw	a3,48(sp)
     9e8:	03412703          	lw	a4,52(sp)
     9ec:	03c12f83          	lw	t6,60(sp)
              acc += (int32_t)a*(int32_t)b;
     9f0:	00a80833          	add	a6,a6,a0
            for(int kx=0; kx<Kw_; ++kx){
     9f4:	001e8e93          	add	t4,t4,1
     9f8:	fff00f13          	li	t5,-1
     9fc:	02000793          	li	a5,32
     a00:	f67916e3          	bne	s2,t2,96c <conv_sw_generic.constprop.0+0x70>
          for(int ky=0; ky<Kh_; ++ky)
     a04:	001a0a13          	add	s4,s4,1
     a08:	003a8a93          	add	s5,s5,3
     a0c:	020e0e13          	add	t3,t3,32
     a10:	01fa0863          	beq	s4,t6,a20 <conv_sw_generic.constprop.0+0x124>
            for(int kx=0; kx<Kw_; ++kx){
     a14:	01568eb3          	add	t4,a3,s5
     a18:	fff48913          	add	s2,s1,-1
     a1c:	f51ff06f          	j	96c <conv_sw_generic.constprop.0+0x70>
        for(int c=0; c<Cin_; ++c)
     a20:	00c12583          	lw	a1,12(sp)
     a24:	02088893          	add	a7,a7,32
     a28:	40030313          	add	t1,t1,1024
     a2c:	003c8c93          	add	s9,s9,3
     a30:	00b88c63          	beq	a7,a1,a48 <conv_sw_generic.constprop.0+0x14c>
          for(int ky=0; ky<Kh_; ++ky)
     a34:	001c9a93          	sll	s5,s9,0x1
     a38:	019a8ab3          	add	s5,s5,s9
     a3c:	fff40a13          	add	s4,s0,-1
              int8_t a=(iy>=0&&iy<H_&&ix>=0&&ix<W_)? in[(c*H_+iy)*W_+ix] : 0;
     a40:	00030e13          	mv	t3,t1
     a44:	fd1ff06f          	j	a14 <conv_sw_generic.constprop.0+0x118>
        out[(oc*OH_+oy)*OW_+ox] = acc;
     a48:	0109a023          	sw	a6,0(s3)
      for(int ox=0; ox<OW_; ++ox){
     a4c:	00148493          	add	s1,s1,1
     a50:	00498993          	add	s3,s3,4
     a54:	00f48e63          	beq	s1,a5,a70 <conv_sw_generic.constprop.0+0x174>
              int8_t a=(iy>=0&&iy<H_&&ix>=0&&ix<W_)? in[(c*H_+iy)*W_+ix] : 0;
     a58:	01012c83          	lw	s9,16(sp)
     a5c:	00028313          	mv	t1,t0
     a60:	00000893          	li	a7,0
        int32_t acc=0;
     a64:	00000813          	li	a6,0
            for(int kx=0; kx<Kw_; ++kx){
     a68:	00248393          	add	t2,s1,2
     a6c:	fc9ff06f          	j	a34 <conv_sw_generic.constprop.0+0x138>
    for(int oy=0; oy<OH_; ++oy)
     a70:	00140413          	add	s0,s0,1
     a74:	020d0d13          	add	s10,s10,32
     a78:	00940e63          	beq	s0,s1,a94 <conv_sw_generic.constprop.0+0x198>
      for(int ox=0; ox<OW_; ++ox){
     a7c:	002d1993          	sll	s3,s10,0x2
     a80:	013709b3          	add	s3,a4,s3
     a84:	00541293          	sll	t0,s0,0x5
     a88:	00000493          	li	s1,0
          for(int ky=0; ky<Kh_; ++ky)
     a8c:	00240f93          	add	t6,s0,2
     a90:	fc9ff06f          	j	a58 <conv_sw_generic.constprop.0+0x15c>
  for(int oc=0; oc<Cout_; ++oc)
     a94:	001b8b93          	add	s7,s7,1
     a98:	018b0b33          	add	s6,s6,s8
     a9c:	ebbb9ce3          	bne	s7,s11,954 <conv_sw_generic.constprop.0+0x58>
}
     aa0:	07c12083          	lw	ra,124(sp)
     aa4:	07812403          	lw	s0,120(sp)
     aa8:	07412483          	lw	s1,116(sp)
     aac:	07012903          	lw	s2,112(sp)
     ab0:	06c12983          	lw	s3,108(sp)
     ab4:	06812a03          	lw	s4,104(sp)
     ab8:	06412a83          	lw	s5,100(sp)
     abc:	06012b03          	lw	s6,96(sp)
     ac0:	05c12b83          	lw	s7,92(sp)
     ac4:	05812c03          	lw	s8,88(sp)
     ac8:	05412c83          	lw	s9,84(sp)
     acc:	05012d03          	lw	s10,80(sp)
     ad0:	04c12d83          	lw	s11,76(sp)
     ad4:	08010113          	add	sp,sp,128
     ad8:	00008067          	ret

00000adc <cfs_feed_strict_step.constprop.0>:
static void cfs_feed_strict_step(const int8_t *Aflat, const int8_t *Bflat, int Klen, int lda, int ldb){
     adc:	fc010113          	add	sp,sp,-64
     ae0:	02812e23          	sw	s0,60(sp)
     ae4:	02912c23          	sw	s1,56(sp)
     ae8:	03212a23          	sw	s2,52(sp)
     aec:	03312823          	sw	s3,48(sp)
     af0:	03412623          	sw	s4,44(sp)
     af4:	03512423          	sw	s5,40(sp)
     af8:	03612223          	sw	s6,36(sp)
static inline void     cfs_write(uint32_t off, uint32_t val){ CFS_REG(off)=val; }
     afc:	ffeb07b7          	lui	a5,0xffeb0
     b00:	00200713          	li	a4,2
     b04:	00e7a023          	sw	a4,0(a5) # ffeb0000 <__crt0_ram_last+0x7fe30001>
static inline uint32_t cfs_read (uint32_t off)             { return CFS_REG(off); }
     b08:	0007a783          	lw	a5,0(a5)
static inline void     cfs_write(uint32_t off, uint32_t val){ CFS_REG(off)=val; }
     b0c:	ffeb0337          	lui	t1,0xffeb0
     b10:	ffeb0e37          	lui	t3,0xffeb0
     b14:	ffeb0eb7          	lui	t4,0xffeb0
     b18:	ffeb0f37          	lui	t5,0xffeb0
     b1c:	ffeb0fb7          	lui	t6,0xffeb0
     b20:	ffeb02b7          	lui	t0,0xffeb0
     b24:	ffeb03b7          	lui	t2,0xffeb0
     b28:	ffeb0437          	lui	s0,0xffeb0
  const int T = Klen + 6;
     b2c:	00660a13          	add	s4,a2,6
  for(int s=0;s<T;++s){
     b30:	00000793          	li	a5,0
     b34:	fff68693          	add	a3,a3,-1
static inline void     cfs_write(uint32_t off, uint32_t val){ CFS_REG(off)=val; }
     b38:	ffeb0937          	lui	s2,0xffeb0
     b3c:	00430313          	add	t1,t1,4 # ffeb0004 <__crt0_ram_last+0x7fe30005>
     b40:	008e0e13          	add	t3,t3,8 # ffeb0008 <__crt0_ram_last+0x7fe30009>
     b44:	00ce8e93          	add	t4,t4,12 # ffeb000c <__crt0_ram_last+0x7fe3000d>
     b48:	010f0f13          	add	t5,t5,16 # ffeb0010 <__crt0_ram_last+0x7fe30011>
     b4c:	014f8f93          	add	t6,t6,20 # ffeb0014 <__crt0_ram_last+0x7fe30015>
     b50:	01828293          	add	t0,t0,24 # ffeb0018 <__crt0_ram_last+0x7fe30019>
     b54:	01c38393          	add	t2,t2,28 # ffeb001c <__crt0_ram_last+0x7fe3001d>
     b58:	02040413          	add	s0,s0,32 # ffeb0020 <__crt0_ram_last+0x7fe30021>
     b5c:	00100a93          	li	s5,1
  for(int s=0;s<T;++s){
     b60:	0347c463          	blt	a5,s4,b88 <cfs_feed_strict_step.constprop.0+0xac>
}
     b64:	03c12403          	lw	s0,60(sp)
     b68:	03812483          	lw	s1,56(sp)
     b6c:	03412903          	lw	s2,52(sp)
     b70:	03012983          	lw	s3,48(sp)
     b74:	02c12a03          	lw	s4,44(sp)
     b78:	02812a83          	lw	s5,40(sp)
     b7c:	02412b03          	lw	s6,36(sp)
     b80:	04010113          	add	sp,sp,64
     b84:	00008067          	ret
    uint32_t Aw[4]={0}, Bw[4]={0};
     b88:	00012023          	sw	zero,0(sp)
     b8c:	00012223          	sw	zero,4(sp)
     b90:	00012423          	sw	zero,8(sp)
     b94:	00012623          	sw	zero,12(sp)
     b98:	00012823          	sw	zero,16(sp)
     b9c:	00012a23          	sw	zero,20(sp)
     ba0:	00012c23          	sw	zero,24(sp)
     ba4:	00012e23          	sw	zero,28(sp)
    for(int i=0;i<4;++i){ int k=s-i; int8_t a=(k>=0&&k<Klen)? Aflat[i*lda+k] : 0; Aw[i]=(uint32_t)(uint8_t)a; }
     ba8:	00078713          	mv	a4,a5
     bac:	00010b13          	mv	s6,sp
     bb0:	00f504b3          	add	s1,a0,a5
    uint32_t Aw[4]={0}, Bw[4]={0};
     bb4:	00078813          	mv	a6,a5
     bb8:	ffc78993          	add	s3,a5,-4
    for(int i=0;i<4;++i){ int k=s-i; int8_t a=(k>=0&&k<Klen)? Aflat[i*lda+k] : 0; Aw[i]=(uint32_t)(uint8_t)a; }
     bbc:	00000893          	li	a7,0
     bc0:	00084663          	bltz	a6,bcc <cfs_feed_strict_step.constprop.0+0xf0>
     bc4:	00c85463          	bge	a6,a2,bcc <cfs_feed_strict_step.constprop.0+0xf0>
     bc8:	00048883          	lb	a7,0(s1)
     bcc:	0ff8f893          	zext.b	a7,a7
     bd0:	011b2023          	sw	a7,0(s6)
     bd4:	fff80813          	add	a6,a6,-1 # ffff <__fini_array_end+0x57>
     bd8:	004b0b13          	add	s6,s6,4
     bdc:	00d484b3          	add	s1,s1,a3
     be0:	fd381ee3          	bne	a6,s3,bbc <cfs_feed_strict_step.constprop.0+0xe0>
     be4:	00279813          	sll	a6,a5,0x2
     be8:	01010493          	add	s1,sp,16
     bec:	01058833          	add	a6,a1,a6
    for(int j=0;j<4;++j){ int k=s-j; int8_t b=(k>=0&&k<Klen)? Bflat[k*ldb+j] : 0; Bw[j]=(uint32_t)(uint8_t)b; }
     bf0:	00000893          	li	a7,0
     bf4:	00074663          	bltz	a4,c00 <cfs_feed_strict_step.constprop.0+0x124>
     bf8:	00c75463          	bge	a4,a2,c00 <cfs_feed_strict_step.constprop.0+0x124>
     bfc:	00080883          	lb	a7,0(a6)
     c00:	0ff8f893          	zext.b	a7,a7
     c04:	0114a023          	sw	a7,0(s1)
     c08:	fff70713          	add	a4,a4,-1
     c0c:	00448493          	add	s1,s1,4
     c10:	ffd80813          	add	a6,a6,-3
     c14:	fd371ee3          	bne	a4,s3,bf0 <cfs_feed_strict_step.constprop.0+0x114>
    cfs_write(CFS_A0,Aw[0]); cfs_write(CFS_A1,Aw[1]); cfs_write(CFS_A2,Aw[2]); cfs_write(CFS_A3,Aw[3]);
     c18:	00012703          	lw	a4,0(sp)
static inline void     cfs_write(uint32_t off, uint32_t val){ CFS_REG(off)=val; }
     c1c:	00e32023          	sw	a4,0(t1)
    cfs_write(CFS_A0,Aw[0]); cfs_write(CFS_A1,Aw[1]); cfs_write(CFS_A2,Aw[2]); cfs_write(CFS_A3,Aw[3]);
     c20:	00412703          	lw	a4,4(sp)
static inline void     cfs_write(uint32_t off, uint32_t val){ CFS_REG(off)=val; }
     c24:	00ee2023          	sw	a4,0(t3)
    cfs_write(CFS_A0,Aw[0]); cfs_write(CFS_A1,Aw[1]); cfs_write(CFS_A2,Aw[2]); cfs_write(CFS_A3,Aw[3]);
     c28:	00812703          	lw	a4,8(sp)
static inline void     cfs_write(uint32_t off, uint32_t val){ CFS_REG(off)=val; }
     c2c:	00eea023          	sw	a4,0(t4)
    cfs_write(CFS_A0,Aw[0]); cfs_write(CFS_A1,Aw[1]); cfs_write(CFS_A2,Aw[2]); cfs_write(CFS_A3,Aw[3]);
     c30:	00c12703          	lw	a4,12(sp)
static inline void     cfs_write(uint32_t off, uint32_t val){ CFS_REG(off)=val; }
     c34:	00ef2023          	sw	a4,0(t5)
    cfs_write(CFS_B0,Bw[0]); cfs_write(CFS_B1,Bw[1]); cfs_write(CFS_B2,Bw[2]); cfs_write(CFS_B3,Bw[3]);
     c38:	01012703          	lw	a4,16(sp)
static inline void     cfs_write(uint32_t off, uint32_t val){ CFS_REG(off)=val; }
     c3c:	00efa023          	sw	a4,0(t6)
    cfs_write(CFS_B0,Bw[0]); cfs_write(CFS_B1,Bw[1]); cfs_write(CFS_B2,Bw[2]); cfs_write(CFS_B3,Bw[3]);
     c40:	01412703          	lw	a4,20(sp)
static inline void     cfs_write(uint32_t off, uint32_t val){ CFS_REG(off)=val; }
     c44:	00e2a023          	sw	a4,0(t0)
    cfs_write(CFS_B0,Bw[0]); cfs_write(CFS_B1,Bw[1]); cfs_write(CFS_B2,Bw[2]); cfs_write(CFS_B3,Bw[3]);
     c48:	01812703          	lw	a4,24(sp)
static inline void     cfs_write(uint32_t off, uint32_t val){ CFS_REG(off)=val; }
     c4c:	00e3a023          	sw	a4,0(t2)
    cfs_write(CFS_B0,Bw[0]); cfs_write(CFS_B1,Bw[1]); cfs_write(CFS_B2,Bw[2]); cfs_write(CFS_B3,Bw[3]);
     c50:	01c12703          	lw	a4,28(sp)
static inline void     cfs_write(uint32_t off, uint32_t val){ CFS_REG(off)=val; }
     c54:	00e42023          	sw	a4,0(s0)
static inline uint32_t cfs_read (uint32_t off)             { return CFS_REG(off); }
     c58:	00092703          	lw	a4,0(s2) # ffeb0000 <__crt0_ram_last+0x7fe30001>
static inline void     cfs_write(uint32_t off, uint32_t val){ CFS_REG(off)=val; }
     c5c:	01592023          	sw	s5,0(s2)
  for(int s=0;s<T;++s){
     c60:	00178793          	add	a5,a5,1
     c64:	efdff06f          	j	b60 <cfs_feed_strict_step.constprop.0+0x84>

00000c68 <conv_cfs.constprop.0>:
          int8_t a=(iy>=0&&iy<H_&&ix>=0&&ix<W_)? in[(c*H_+iy)*W_+ix]:0;
          Bflat[idx*ldb+s]=a; idx++;
        }
  }
}
static void conv_cfs(int Cin_, int H_, int W_,
     c68:	f7010113          	add	sp,sp,-144
     c6c:	08912223          	sw	s1,132(sp)
                     int Cout_, int Kh_, int Kw_, int STR_, int PAD_,
                     const int8_t *in, const int8_t *Wm, int32_t *out){
  const int OH_=(H_+2*PAD_-Kh_)/STR_+1, OW_=(W_+2*PAD_-Kw_)/STR_+1;
  const int K_ = Cin_*Kh_*Kw_;
     c70:	00351493          	sll	s1,a0,0x3
     c74:	00a484b3          	add	s1,s1,a0
  int32_t C4[4][4];
  const int NPOS=OH_*OW_;
  /* per-tile VLAs (small here: K_ <= 9*Cmid, e.g. 72 for Cmid=8) */
  int8_t Aflat[4*K_];
     c78:	00249793          	sll	a5,s1,0x2
     c7c:	00f78793          	add	a5,a5,15
static void conv_cfs(int Cin_, int H_, int W_,
     c80:	08812423          	sw	s0,136(sp)
     c84:	09212023          	sw	s2,128(sp)
     c88:	07312e23          	sw	s3,124(sp)
     c8c:	07412c23          	sw	s4,120(sp)
     c90:	07612823          	sw	s6,112(sp)
     c94:	07712623          	sw	s7,108(sp)
     c98:	07812423          	sw	s8,104(sp)
     c9c:	07912223          	sw	s9,100(sp)
     ca0:	07a12023          	sw	s10,96(sp)
     ca4:	08112623          	sw	ra,140(sp)
     ca8:	07512a23          	sw	s5,116(sp)
     cac:	05b12e23          	sw	s11,92(sp)
     cb0:	09010413          	add	s0,sp,144
  int8_t Aflat[4*K_];
     cb4:	ff07f793          	and	a5,a5,-16
     cb8:	40f10133          	sub	sp,sp,a5
     cbc:	f6242e23          	sw	sp,-132(s0)
  int8_t Bflat[K_*4];
     cc0:	40f10133          	sub	sp,sp,a5
     cc4:	00251793          	sll	a5,a0,0x2
static void conv_cfs(int Cin_, int H_, int W_,
     cc8:	00050913          	mv	s2,a0
     ccc:	00058a13          	mv	s4,a1
     cd0:	00060b93          	mv	s7,a2
     cd4:	00068c13          	mv	s8,a3
     cd8:	00070c93          	mv	s9,a4
  int8_t Bflat[K_*4];
     cdc:	f6242c23          	sw	sp,-136(s0)

  for(int oc0=0; oc0<Cout_; oc0+=4){
     ce0:	f6f42a23          	sw	a5,-140(s0)
  int8_t Bflat[K_*4];
     ce4:	00000b13          	li	s6,0
  for(int oc0=0; oc0<Cout_; oc0+=4){
     ce8:	00000993          	li	s3,0
          int8_t a=(iy>=0&&iy<H_&&ix>=0&&ix<W_)? in[(c*H_+iy)*W_+ix]:0;
     cec:	02000d13          	li	s10,32
static void conv_cfs(int Cin_, int H_, int W_,
     cf0:	000b0513          	mv	a0,s6
     cf4:	00000813          	li	a6,0
  for(int r=0;r<4;++r){
     cf8:	00000593          	li	a1,0
        for(int kx=0;kx<Kw_;++kx){
     cfc:	00300e13          	li	t3,3
  for(int r=0;r<4;++r){
     d00:	00400313          	li	t1,4
          Aflat[r*lda+idx++] = (oc<Cout_)? Wm[(((oc*Cin_)+c)*Kh_+ky)*Kw_+kx] : 0;
     d04:	f7c42683          	lw	a3,-132(s0)
     d08:	00151713          	sll	a4,a0,0x1
     d0c:	00a70733          	add	a4,a4,a0
    int idx=0;
     d10:	00000793          	li	a5,0
          Aflat[r*lda+idx++] = (oc<Cout_)? Wm[(((oc*Cin_)+c)*Kh_+ky)*Kw_+kx] : 0;
     d14:	01358f33          	add	t5,a1,s3
     d18:	01068fb3          	add	t6,a3,a6
      for(int ky=0;ky<Kh_;++ky)
     d1c:	00171693          	sll	a3,a4,0x1
     d20:	00e686b3          	add	a3,a3,a4
     d24:	00978e93          	add	t4,a5,9
     d28:	0300006f          	j	d58 <conv_cfs.constprop.0+0xf0>
          Aflat[r*lda+idx++] = (oc<Cout_)? Wm[(((oc*Cin_)+c)*Kh_+ky)*Kw_+kx] : 0;
     d2c:	00000893          	li	a7,0
     d30:	014f5663          	bge	t5,s4,d3c <conv_cfs.constprop.0+0xd4>
     d34:	00c388b3          	add	a7,t2,a2
     d38:	00088883          	lb	a7,0(a7)
     d3c:	00c280b3          	add	ra,t0,a2
     d40:	01108023          	sb	a7,0(ra)
        for(int kx=0;kx<Kw_;++kx){
     d44:	00160613          	add	a2,a2,1
     d48:	ffc612e3          	bne	a2,t3,d2c <conv_cfs.constprop.0+0xc4>
     d4c:	00378793          	add	a5,a5,3
      for(int ky=0;ky<Kh_;++ky)
     d50:	00368693          	add	a3,a3,3
     d54:	01d78a63          	beq	a5,t4,d68 <conv_cfs.constprop.0+0x100>
        for(int kx=0;kx<Kw_;++kx){
     d58:	00000613          	li	a2,0
          Aflat[r*lda+idx++] = (oc<Cout_)? Wm[(((oc*Cin_)+c)*Kh_+ky)*Kw_+kx] : 0;
     d5c:	00dc03b3          	add	t2,s8,a3
     d60:	00ff82b3          	add	t0,t6,a5
     d64:	fc9ff06f          	j	d2c <conv_cfs.constprop.0+0xc4>
    for(int c=0;c<Cin_;++c)
     d68:	00370713          	add	a4,a4,3
     d6c:	faf498e3          	bne	s1,a5,d1c <conv_cfs.constprop.0+0xb4>
  for(int r=0;r<4;++r){
     d70:	00158593          	add	a1,a1,1
     d74:	00980833          	add	a6,a6,s1
     d78:	01250533          	add	a0,a0,s2
     d7c:	f86594e3          	bne	a1,t1,d04 <conv_cfs.constprop.0+0x9c>
    build_Aflat_conv(Wm, oc0, Cout_, Cin_, Kh_, Kw_, Aflat, /*lda=*/K_);
    for(int j0=0; j0<NPOS; j0+=4){
     d80:	00000a93          	li	s5,0
  for(int s=0;s<4;++s){
     d84:	00400d93          	li	s11,4
      build_Bflat_conv(in, Cin_, H_, W_, Kh_, Kw_, STR_, PAD_, j0, OH_, OW_, Bflat, /*ldb=*/4);
      cfs_gemm_4xKx4(Aflat,Bflat,K_,/*lda=*/K_,/*ldb=*/4);
      cfs_read_C4(C4);
      for(int r=0;r<4;++r){
     d88:	00498e93          	add	t4,s3,4
  for(int s=0;s<4;++s){
     d8c:	00000593          	li	a1,0
          int8_t a=(iy>=0&&iy<H_&&ix>=0&&ix<W_)? in[(c*H_+iy)*W_+ix]:0;
     d90:	fff00f93          	li	t6,-1
    int pos=j0+s;
     d94:	f7842783          	lw	a5,-136(s0)
     d98:	01558333          	add	t1,a1,s5
    int oy=pos/OW_, ox=pos%OW_;
     d9c:	40535613          	sra	a2,t1,0x5
     da0:	01f37313          	and	t1,t1,31
     da4:	00060693          	mv	a3,a2
    for(int c=0;c<Cin_;++c)
     da8:	00000893          	li	a7,0
     dac:	00260393          	add	t2,a2,2
     db0:	00b780b3          	add	ra,a5,a1
     db4:	00230293          	add	t0,t1,2
     db8:	00389813          	sll	a6,a7,0x3
     dbc:	01180833          	add	a6,a6,a7
      for(int ky=0;ky<Kh_;++ky)
     dc0:	fff60513          	add	a0,a2,-1
     dc4:	00569713          	sll	a4,a3,0x5
     dc8:	0440006f          	j	e0c <conv_cfs.constprop.0+0x1a4>
          int8_t a=(iy>=0&&iy<H_&&ix>=0&&ix<W_)? in[(c*H_+iy)*W_+ix]:0;
     dcc:	00000f13          	li	t5,0
     dd0:	01f50e63          	beq	a0,t6,dec <conv_cfs.constprop.0+0x184>
     dd4:	01a50c63          	beq	a0,s10,dec <conv_cfs.constprop.0+0x184>
     dd8:	01f78a63          	beq	a5,t6,dec <conv_cfs.constprop.0+0x184>
     ddc:	01a78863          	beq	a5,s10,dec <conv_cfs.constprop.0+0x184>
     de0:	00eb8f33          	add	t5,s7,a4
     de4:	00ff0f33          	add	t5,t5,a5
     de8:	fe0f0f03          	lb	t5,-32(t5)
          Bflat[idx*ldb+s]=a; idx++;
     dec:	01ee0023          	sb	t5,0(t3)
        for(int kx=0;kx<Kw_;++kx){
     df0:	00178793          	add	a5,a5,1
     df4:	004e0e13          	add	t3,t3,4
     df8:	fcf29ae3          	bne	t0,a5,dcc <conv_cfs.constprop.0+0x164>
      for(int ky=0;ky<Kh_;++ky)
     dfc:	00150513          	add	a0,a0,1
     e00:	00380813          	add	a6,a6,3
     e04:	02070713          	add	a4,a4,32
     e08:	00750a63          	beq	a0,t2,e1c <conv_cfs.constprop.0+0x1b4>
        for(int kx=0;kx<Kw_;++kx){
     e0c:	00281e13          	sll	t3,a6,0x2
     e10:	01c08e33          	add	t3,ra,t3
     e14:	fff30793          	add	a5,t1,-1
     e18:	fb5ff06f          	j	dcc <conv_cfs.constprop.0+0x164>
    for(int c=0;c<Cin_;++c)
     e1c:	00188893          	add	a7,a7,1
     e20:	02068693          	add	a3,a3,32
     e24:	f9191ae3          	bne	s2,a7,db8 <conv_cfs.constprop.0+0x150>
  for(int s=0;s<4;++s){
     e28:	00158593          	add	a1,a1,1
     e2c:	f7b594e3          	bne	a1,s11,d94 <conv_cfs.constprop.0+0x12c>
  cfs_feed_strict_step(Aflat,Bflat,Klen,lda,ldb);
     e30:	f7842583          	lw	a1,-136(s0)
     e34:	f7c42503          	lw	a0,-132(s0)
     e38:	00048613          	mv	a2,s1
     e3c:	00048693          	mv	a3,s1
     e40:	f7d42823          	sw	t4,-144(s0)
     e44:	c99ff0ef          	jal	adc <cfs_feed_strict_step.constprop.0>
      cfs_read_C4(C4);
     e48:	f8040513          	add	a0,s0,-128
     e4c:	c30ff0ef          	jal	27c <cfs_read_C4>
     e50:	f7042e83          	lw	t4,-144(s0)
     e54:	f8040613          	add	a2,s0,-128
     e58:	00098713          	mv	a4,s3
        int oc=oc0+r; if(oc>=Cout_) continue;
     e5c:	05475263          	bge	a4,s4,ea0 <conv_cfs.constprop.0+0x238>
        for(int s=0;s<4;++s){
          int pos=j0+s; if(pos>=NPOS) continue;
          int oy=pos/OW_, ox=pos%OW_;
          out[(oc*OH_+oy)*OW_+ox] = C4[r][s];
     e60:	00571513          	sll	a0,a4,0x5
     e64:	00060593          	mv	a1,a2
        for(int s=0;s<4;++s){
     e68:	00000693          	li	a3,0
          int pos=j0+s; if(pos>=NPOS) continue;
     e6c:	01568833          	add	a6,a3,s5
          int oy=pos/OW_, ox=pos%OW_;
     e70:	40585793          	sra	a5,a6,0x5
          out[(oc*OH_+oy)*OW_+ox] = C4[r][s];
     e74:	00a787b3          	add	a5,a5,a0
          int oy=pos/OW_, ox=pos%OW_;
     e78:	01f87813          	and	a6,a6,31
          out[(oc*OH_+oy)*OW_+ox] = C4[r][s];
     e7c:	00579793          	sll	a5,a5,0x5
     e80:	010787b3          	add	a5,a5,a6
     e84:	0005a803          	lw	a6,0(a1)
     e88:	00279793          	sll	a5,a5,0x2
     e8c:	00fc87b3          	add	a5,s9,a5
     e90:	0107a023          	sw	a6,0(a5)
        for(int s=0;s<4;++s){
     e94:	00168693          	add	a3,a3,1
     e98:	00458593          	add	a1,a1,4
     e9c:	fdb698e3          	bne	a3,s11,e6c <conv_cfs.constprop.0+0x204>
      for(int r=0;r<4;++r){
     ea0:	00170713          	add	a4,a4,1
     ea4:	01060613          	add	a2,a2,16
     ea8:	fbd71ae3          	bne	a4,t4,e5c <conv_cfs.constprop.0+0x1f4>
    for(int j0=0; j0<NPOS; j0+=4){
     eac:	004a8a93          	add	s5,s5,4
     eb0:	40000793          	li	a5,1024
     eb4:	ecfa9ce3          	bne	s5,a5,d8c <conv_cfs.constprop.0+0x124>
  for(int oc0=0; oc0<Cout_; oc0+=4){
     eb8:	f7442783          	lw	a5,-140(s0)
     ebc:	00070993          	mv	s3,a4
     ec0:	00fb0b33          	add	s6,s6,a5
     ec4:	e34746e3          	blt	a4,s4,cf0 <conv_cfs.constprop.0+0x88>
        }
      }
    }
  }
}
     ec8:	f7040113          	add	sp,s0,-144
     ecc:	08c12083          	lw	ra,140(sp)
     ed0:	08812403          	lw	s0,136(sp)
     ed4:	08412483          	lw	s1,132(sp)
     ed8:	08012903          	lw	s2,128(sp)
     edc:	07c12983          	lw	s3,124(sp)
     ee0:	07812a03          	lw	s4,120(sp)
     ee4:	07412a83          	lw	s5,116(sp)
     ee8:	07012b03          	lw	s6,112(sp)
     eec:	06c12b83          	lw	s7,108(sp)
     ef0:	06812c03          	lw	s8,104(sp)
     ef4:	06412c83          	lw	s9,100(sp)
     ef8:	06012d03          	lw	s10,96(sp)
     efc:	05c12d83          	lw	s11,92(sp)
     f00:	09010113          	add	sp,sp,144
     f04:	00008067          	ret

00000f08 <argmax_i32.constprop.0>:
  int bi=0; int32_t bv=v[0];
     f08:	00052603          	lw	a2,0(a0)
static int argmax_i32(const int32_t *v, int n){
     f0c:	00050713          	mv	a4,a0
  for(int i=1;i<n;++i){ if(v[i]>bv){ bv=v[i]; bi=i; } }
     f10:	00100793          	li	a5,1
  int bi=0; int32_t bv=v[0];
     f14:	00000513          	li	a0,0
  for(int i=1;i<n;++i){ if(v[i]>bv){ bv=v[i]; bi=i; } }
     f18:	00a00593          	li	a1,10
     f1c:	00279693          	sll	a3,a5,0x2
     f20:	00d706b3          	add	a3,a4,a3
     f24:	0006a683          	lw	a3,0(a3)
     f28:	00d65663          	bge	a2,a3,f34 <argmax_i32.constprop.0+0x2c>
     f2c:	00068613          	mv	a2,a3
     f30:	00078513          	mv	a0,a5
     f34:	00178793          	add	a5,a5,1
     f38:	feb792e3          	bne	a5,a1,f1c <argmax_i32.constprop.0+0x14>
}
     f3c:	00008067          	ret

00000f40 <dump_first_mismatch.isra.0>:
static void dump_first_mismatch(const char* tag, const int32_t* A, const int32_t* B, int n, int stride_hint){
     f40:	fe010113          	add	sp,sp,-32
     f44:	00812c23          	sw	s0,24(sp)
     f48:	01212823          	sw	s2,16(sp)
     f4c:	01312623          	sw	s3,12(sp)
     f50:	01412423          	sw	s4,8(sp)
     f54:	00112e23          	sw	ra,28(sp)
     f58:	00912a23          	sw	s1,20(sp)
     f5c:	01512223          	sw	s5,4(sp)
     f60:	00058993          	mv	s3,a1
     f64:	00060a13          	mv	s4,a2
     f68:	00068913          	mv	s2,a3
  for(int i=0;i<n; ++i){
     f6c:	00000413          	li	s0,0
    if (A[i] != B[i]) {
     f70:	00241793          	sll	a5,s0,0x2
     f74:	00f98733          	add	a4,s3,a5
     f78:	00fa07b3          	add	a5,s4,a5
     f7c:	00072683          	lw	a3,0(a4)
     f80:	0007a703          	lw	a4,0(a5)
     f84:	0ce68663          	beq	a3,a4,1050 <dump_first_mismatch.isra.0+0x110>
      printf("[%s] first mismatch at idx=%d: ref=%ld got=%ld\n",
     f88:	00050593          	mv	a1,a0
     f8c:	00010537          	lui	a0,0x10
     f90:	00040613          	mv	a2,s0
     f94:	fc450513          	add	a0,a0,-60 # ffc4 <__fini_array_end+0x1c>
     f98:	6b9000ef          	jal	1e50 <printf>
      int s = (i>8? i-8:0), e = (i+8<n? i+8:n);
     f9c:	00800793          	li	a5,8
     fa0:	00040493          	mv	s1,s0
     fa4:	00f45463          	bge	s0,a5,fac <dump_first_mismatch.isra.0+0x6c>
     fa8:	00800493          	li	s1,8
     fac:	00840413          	add	s0,s0,8
     fb0:	ff848493          	add	s1,s1,-8
     fb4:	00895463          	bge	s2,s0,fbc <dump_first_mismatch.isra.0+0x7c>
     fb8:	00090413          	mv	s0,s2
      printf("  ref: "); for(int t=s;t<e;++t) printf("%ld ", (long)A[t]); printf("\n");
     fbc:	00010537          	lui	a0,0x10
     fc0:	ff450513          	add	a0,a0,-12 # fff4 <__fini_array_end+0x4c>
     fc4:	68d000ef          	jal	1e50 <printf>
     fc8:	00048913          	mv	s2,s1
     fcc:	00010ab7          	lui	s5,0x10
     fd0:	04894463          	blt	s2,s0,1018 <dump_first_mismatch.isra.0+0xd8>
     fd4:	00a00513          	li	a0,10
     fd8:	6c9000ef          	jal	1ea0 <putchar>
      printf("  got: "); for(int t=s;t<e;++t) printf("%ld ", (long)B[t]); printf("\n");
     fdc:	00010537          	lui	a0,0x10
     fe0:	00450513          	add	a0,a0,4 # 10004 <__fini_array_end+0x5c>
     fe4:	66d000ef          	jal	1e50 <printf>
     fe8:	00010937          	lui	s2,0x10
     fec:	0484c463          	blt	s1,s0,1034 <dump_first_mismatch.isra.0+0xf4>
}
     ff0:	01812403          	lw	s0,24(sp)
     ff4:	01c12083          	lw	ra,28(sp)
     ff8:	01412483          	lw	s1,20(sp)
     ffc:	01012903          	lw	s2,16(sp)
    1000:	00c12983          	lw	s3,12(sp)
    1004:	00812a03          	lw	s4,8(sp)
    1008:	00412a83          	lw	s5,4(sp)
      printf("  got: "); for(int t=s;t<e;++t) printf("%ld ", (long)B[t]); printf("\n");
    100c:	00a00513          	li	a0,10
}
    1010:	02010113          	add	sp,sp,32
      printf("  got: "); for(int t=s;t<e;++t) printf("%ld ", (long)B[t]); printf("\n");
    1014:	68d0006f          	j	1ea0 <putchar>
      printf("  ref: "); for(int t=s;t<e;++t) printf("%ld ", (long)A[t]); printf("\n");
    1018:	00291793          	sll	a5,s2,0x2
    101c:	00f987b3          	add	a5,s3,a5
    1020:	0007a583          	lw	a1,0(a5)
    1024:	ffca8513          	add	a0,s5,-4 # fffc <__fini_array_end+0x54>
    1028:	00190913          	add	s2,s2,1 # 10001 <__fini_array_end+0x59>
    102c:	625000ef          	jal	1e50 <printf>
    1030:	fa1ff06f          	j	fd0 <dump_first_mismatch.isra.0+0x90>
      printf("  got: "); for(int t=s;t<e;++t) printf("%ld ", (long)B[t]); printf("\n");
    1034:	00249793          	sll	a5,s1,0x2
    1038:	00fa07b3          	add	a5,s4,a5
    103c:	0007a583          	lw	a1,0(a5)
    1040:	ffc90513          	add	a0,s2,-4
    1044:	00148493          	add	s1,s1,1
    1048:	609000ef          	jal	1e50 <printf>
    104c:	fa1ff06f          	j	fec <dump_first_mismatch.isra.0+0xac>
  for(int i=0;i<n; ++i){
    1050:	00140413          	add	s0,s0,1
    1054:	f0891ee3          	bne	s2,s0,f70 <dump_first_mismatch.isra.0+0x30>
}
    1058:	01812403          	lw	s0,24(sp)
    105c:	01c12083          	lw	ra,28(sp)
    1060:	01412483          	lw	s1,20(sp)
    1064:	00c12983          	lw	s3,12(sp)
    1068:	00812a03          	lw	s4,8(sp)
    106c:	00412a83          	lw	s5,4(sp)
  printf("[%s] (no mismatch found in %d elements)\n", tag, n);
    1070:	00090613          	mv	a2,s2
}
    1074:	01012903          	lw	s2,16(sp)
  printf("[%s] (no mismatch found in %d elements)\n", tag, n);
    1078:	00050593          	mv	a1,a0
    107c:	00010537          	lui	a0,0x10
    1080:	00c50513          	add	a0,a0,12 # 1000c <__fini_array_end+0x64>
}
    1084:	02010113          	add	sp,sp,32
  printf("[%s] (no mismatch found in %d elements)\n", tag, n);
    1088:	5c90006f          	j	1e50 <printf>

0000108c <main>:

/* ===== Main ===== */
static volatile uint32_t g_sink;

int main(void){
  printf("== Tiny CNN pipeline: SW vs CFU vs CFS ==\n");
    108c:	00010537          	lui	a0,0x10
int main(void){
    1090:	f4010113          	add	sp,sp,-192
  printf("== Tiny CNN pipeline: SW vs CFU vs CFS ==\n");
    1094:	04850513          	add	a0,a0,72 # 10048 <__fini_array_end+0xa0>
int main(void){
    1098:	0a112e23          	sw	ra,188(sp)
    109c:	0a812c23          	sw	s0,184(sp)
    10a0:	0a912a23          	sw	s1,180(sp)
    10a4:	0b212823          	sw	s2,176(sp)
    10a8:	0b312623          	sw	s3,172(sp)
    10ac:	0b412423          	sw	s4,168(sp)
    10b0:	0b512223          	sw	s5,164(sp)
    10b4:	0b612023          	sw	s6,160(sp)
    10b8:	09712e23          	sw	s7,156(sp)
    10bc:	09812c23          	sw	s8,152(sp)
    10c0:	09912a23          	sw	s9,148(sp)
    10c4:	09a12823          	sw	s10,144(sp)
    10c8:	09b12623          	sw	s11,140(sp)
  printf("== Tiny CNN pipeline: SW vs CFU vs CFS ==\n");
    10cc:	719000ef          	jal	1fe4 <puts>
static inline uint32_t cfs_read (uint32_t off)             { return CFS_REG(off); }
    10d0:	ffeb07b7          	lui	a5,0xffeb0
    10d4:	0007a583          	lw	a1,0(a5) # ffeb0000 <__crt0_ram_last+0x7fe30001>
  uint32_t id = cfs_read(CFS_CTL);
  printf("CFS ID: 0x%08" PRIX32 " (expect 0xCAFEBABE)\n\n", id);
    10d8:	00010537          	lui	a0,0x10
    10dc:	07450513          	add	a0,a0,116 # 10074 <__fini_array_end+0xcc>
    10e0:	571000ef          	jal	1e50 <printf>
  __asm__ volatile (".insn r 0x0B, %1, %2, %0, %3, %4"
    10e4:	040305b7          	lui	a1,0x4030
    10e8:	080707b7          	lui	a5,0x8070
    10ec:	20158593          	add	a1,a1,513 # 4030201 <__neorv32_ram_size+0x3fb0201>
    10f0:	60578793          	add	a5,a5,1541 # 8070605 <__neorv32_ram_size+0x7ff0605>
    10f4:	02f5858b          	.insn	4, 0x02f5858b

  /* CFU DP4A probe (1*5+2*6+3*7+4*8=70) */
  int32_t probe = cfu_dp4a((int32_t)pack4_s8_lsb(1,2,3,4),
                           (int32_t)pack4_s8_lsb(5,6,7,8));
  printf("CFU DP4A probe = %ld (expect 70)\n\n", (long)probe);
    10f8:	00010537          	lui	a0,0x10
    10fc:	09c50513          	add	a0,a0,156 # 1009c <__fini_array_end+0xf4>
    1100:	551000ef          	jal	1e50 <printf>
  static int8_t  P_sw_s8  [FCDIM];
  static int8_t  P_cfu_s8 [FCDIM];
  static int8_t  P_cfs_s8 [FCDIM];

  /* Fill inputs/weights */
  for(int c=0;c<Cin;++c) for(int y=0;y<H_IMG;++y) for(int x=0;x<W_IMG;++x) IN[c][y][x]=patt_in(c,y,x);
    1104:	800684b7          	lui	s1,0x80068
    1108:	d5048513          	add	a0,s1,-688 # 80067d50 <IN.21>
  printf("CFU DP4A probe = %ld (expect 70)\n\n", (long)probe);
    110c:	00100693          	li	a3,1
  for(int c=0;c<Cin;++c) for(int y=0;y<H_IMG;++y) for(int x=0;x<W_IMG;++x) IN[c][y][x]=patt_in(c,y,x);
    1110:	02000e93          	li	t4,32
    1114:	00500f13          	li	t5,5
    1118:	0ff6fe13          	zext.b	t3,a3
    111c:	001e1793          	sll	a5,t3,0x1
    1120:	ffd78793          	add	a5,a5,-3
    1124:	0ff7f793          	zext.b	a5,a5
int main(void){
    1128:	00050593          	mv	a1,a0
  for(int c=0;c<Cin;++c) for(int y=0;y<H_IMG;++y) for(int x=0;x<W_IMG;++x) IN[c][y][x]=patt_in(c,y,x);
    112c:	00000613          	li	a2,0
    1130:	0340006f          	j	1164 <main+0xd8>
static inline int8_t patt_in (int c, int y, int x){ return (int8_t)(((c+1)*(y+2)+(x-3)) & 0x0F) - 8; }
    1134:	00f77313          	and	t1,a4,15
    1138:	ff830313          	add	t1,t1,-8
  for(int c=0;c<Cin;++c) for(int y=0;y<H_IMG;++y) for(int x=0;x<W_IMG;++x) IN[c][y][x]=patt_in(c,y,x);
    113c:	00170713          	add	a4,a4,1
    1140:	00688023          	sb	t1,0(a7)
    1144:	0ff77713          	zext.b	a4,a4
    1148:	00188893          	add	a7,a7,1
    114c:	fee814e3          	bne	a6,a4,1134 <main+0xa8>
    1150:	00fe07b3          	add	a5,t3,a5
    1154:	00160613          	add	a2,a2,1
    1158:	0ff7f793          	zext.b	a5,a5
    115c:	02058593          	add	a1,a1,32
    1160:	01d60c63          	beq	a2,t4,1178 <main+0xec>
    1164:	02078813          	add	a6,a5,32
int main(void){
    1168:	00058893          	mv	a7,a1
    116c:	00078713          	mv	a4,a5
  for(int c=0;c<Cin;++c) for(int y=0;y<H_IMG;++y) for(int x=0;x<W_IMG;++x) IN[c][y][x]=patt_in(c,y,x);
    1170:	0ff87813          	zext.b	a6,a6
    1174:	fc1ff06f          	j	1134 <main+0xa8>
    1178:	00168693          	add	a3,a3,1
    117c:	40050513          	add	a0,a0,1024
    1180:	f9e69ce3          	bne	a3,t5,1118 <main+0x8c>
    1184:	800689b7          	lui	s3,0x80068
    1188:	00000513          	li	a0,0
    118c:	00200713          	li	a4,2
    1190:	c3098313          	add	t1,s3,-976 # 80067c30 <W1.20>
  for(int oc=0;oc<Cmid;++oc) for(int c=0;c<Cin;++c) for(int ky=0;ky<K1h;++ky) for(int kx=0;kx<K1w;++kx) W1[oc][c][ky][kx]=patt_w1(oc,c,ky,kx);
    1194:	00300e13          	li	t3,3
    1198:	00400e93          	li	t4,4
    119c:	12000f13          	li	t5,288
    11a0:	00650833          	add	a6,a0,t1
    11a4:	00000593          	li	a1,0
    11a8:	0500006f          	j	11f8 <main+0x16c>
static inline int8_t patt_w1 (int oc,int c,int ky,int kx){ return (int8_t)(((oc+2)*(ky+1)+(kx-2)+c) & 0x0F)-8; }
    11ac:	ffe78613          	add	a2,a5,-2
    11b0:	00f67613          	and	a2,a2,15
    11b4:	ff860613          	add	a2,a2,-8
  for(int oc=0;oc<Cmid;++oc) for(int c=0;c<Cin;++c) for(int ky=0;ky<K1h;++ky) for(int kx=0;kx<K1w;++kx) W1[oc][c][ky][kx]=patt_w1(oc,c,ky,kx);
    11b8:	00c68023          	sb	a2,0(a3)
static inline int8_t patt_w1 (int oc,int c,int ky,int kx){ return (int8_t)(((oc+2)*(ky+1)+(kx-2)+c) & 0x0F)-8; }
    11bc:	fff78613          	add	a2,a5,-1
    11c0:	00f67613          	and	a2,a2,15
    11c4:	ff860613          	add	a2,a2,-8
  for(int oc=0;oc<Cmid;++oc) for(int c=0;c<Cin;++c) for(int ky=0;ky<K1h;++ky) for(int kx=0;kx<K1w;++kx) W1[oc][c][ky][kx]=patt_w1(oc,c,ky,kx);
    11c8:	00c680a3          	sb	a2,1(a3)
static inline int8_t patt_w1 (int oc,int c,int ky,int kx){ return (int8_t)(((oc+2)*(ky+1)+(kx-2)+c) & 0x0F)-8; }
    11cc:	00f7f613          	and	a2,a5,15
    11d0:	ff860613          	add	a2,a2,-8
  for(int oc=0;oc<Cmid;++oc) for(int c=0;c<Cin;++c) for(int ky=0;ky<K1h;++ky) for(int kx=0;kx<K1w;++kx) W1[oc][c][ky][kx]=patt_w1(oc,c,ky,kx);
    11d4:	00c68123          	sb	a2,2(a3)
    11d8:	00f707b3          	add	a5,a4,a5
static inline int8_t patt_w1 (int oc,int c,int ky,int kx){ return (int8_t)(((oc+2)*(ky+1)+(kx-2)+c) & 0x0F)-8; }
    11dc:	00188893          	add	a7,a7,1
  for(int oc=0;oc<Cmid;++oc) for(int c=0;c<Cin;++c) for(int ky=0;ky<K1h;++ky) for(int kx=0;kx<K1w;++kx) W1[oc][c][ky][kx]=patt_w1(oc,c,ky,kx);
    11e0:	0ff7f793          	zext.b	a5,a5
    11e4:	00368693          	add	a3,a3,3
    11e8:	fdc892e3          	bne	a7,t3,11ac <main+0x120>
    11ec:	00158593          	add	a1,a1,1
    11f0:	00980813          	add	a6,a6,9
    11f4:	01d58c63          	beq	a1,t4,120c <main+0x180>
    11f8:	00b707b3          	add	a5,a4,a1
    11fc:	0ff7f793          	zext.b	a5,a5
  printf("CFU DP4A probe = %ld (expect 70)\n\n", (long)probe);
    1200:	00080693          	mv	a3,a6
  for(int oc=0;oc<Cmid;++oc) for(int c=0;c<Cin;++c) for(int ky=0;ky<K1h;++ky) for(int kx=0;kx<K1w;++kx) W1[oc][c][ky][kx]=patt_w1(oc,c,ky,kx);
    1204:	00000893          	li	a7,0
    1208:	fa5ff06f          	j	11ac <main+0x120>
    120c:	00170713          	add	a4,a4,1
    1210:	02450513          	add	a0,a0,36
    1214:	0ff77713          	zext.b	a4,a4
    1218:	f9e514e3          	bne	a0,t5,11a0 <main+0x114>
    121c:	80067437          	lui	s0,0x80067
    1220:	00000513          	li	a0,0
    1224:	00300693          	li	a3,3
    1228:	7b040e13          	add	t3,s0,1968 # 800677b0 <W2.19>
  for(int oc=0;oc<Cout;++oc) for(int c=0;c<Cmid;++c) for(int ky=0;ky<K2h;++ky) for(int kx=0;kx<K2w;++kx) W2[oc][c][ky][kx]=patt_w2(oc,c,ky,kx);
    122c:	00300e93          	li	t4,3
    1230:	00800f13          	li	t5,8
    1234:	48000f93          	li	t6,1152
    1238:	00169793          	sll	a5,a3,0x1
    123c:	0ff7f793          	zext.b	a5,a5
    1240:	01c508b3          	add	a7,a0,t3
    1244:	00000813          	li	a6,0
    1248:	0580006f          	j	12a0 <main+0x214>
static inline int8_t patt_w2 (int oc,int c,int ky,int kx){ return (int8_t)(((oc+3)*(ky+2)+(kx-1)+2*c) & 0x0F)-8; }
    124c:	fff70593          	add	a1,a4,-1
    1250:	00f5f593          	and	a1,a1,15
    1254:	ff858593          	add	a1,a1,-8
  for(int oc=0;oc<Cout;++oc) for(int c=0;c<Cmid;++c) for(int ky=0;ky<K2h;++ky) for(int kx=0;kx<K2w;++kx) W2[oc][c][ky][kx]=patt_w2(oc,c,ky,kx);
    1258:	00b60023          	sb	a1,0(a2)
static inline int8_t patt_w2 (int oc,int c,int ky,int kx){ return (int8_t)(((oc+3)*(ky+2)+(kx-1)+2*c) & 0x0F)-8; }
    125c:	00f77593          	and	a1,a4,15
    1260:	ff858593          	add	a1,a1,-8
  for(int oc=0;oc<Cout;++oc) for(int c=0;c<Cmid;++c) for(int ky=0;ky<K2h;++ky) for(int kx=0;kx<K2w;++kx) W2[oc][c][ky][kx]=patt_w2(oc,c,ky,kx);
    1264:	00b600a3          	sb	a1,1(a2)
static inline int8_t patt_w2 (int oc,int c,int ky,int kx){ return (int8_t)(((oc+3)*(ky+2)+(kx-1)+2*c) & 0x0F)-8; }
    1268:	00170593          	add	a1,a4,1
    126c:	00f5f593          	and	a1,a1,15
    1270:	ff858593          	add	a1,a1,-8
  for(int oc=0;oc<Cout;++oc) for(int c=0;c<Cmid;++c) for(int ky=0;ky<K2h;++ky) for(int kx=0;kx<K2w;++kx) W2[oc][c][ky][kx]=patt_w2(oc,c,ky,kx);
    1274:	00b60123          	sb	a1,2(a2)
    1278:	00e68733          	add	a4,a3,a4
    127c:	00130313          	add	t1,t1,1
    1280:	0ff77713          	zext.b	a4,a4
    1284:	00360613          	add	a2,a2,3
    1288:	fdd312e3          	bne	t1,t4,124c <main+0x1c0>
    128c:	00278793          	add	a5,a5,2
    1290:	00180813          	add	a6,a6,1
    1294:	0ff7f793          	zext.b	a5,a5
    1298:	00988893          	add	a7,a7,9
    129c:	01e80a63          	beq	a6,t5,12b0 <main+0x224>
    12a0:	00088613          	mv	a2,a7
    12a4:	00078713          	mv	a4,a5
    12a8:	00000313          	li	t1,0
    12ac:	fa1ff06f          	j	124c <main+0x1c0>
    12b0:	00168693          	add	a3,a3,1
    12b4:	04850513          	add	a0,a0,72
    12b8:	0ff6f693          	zext.b	a3,a3
    12bc:	f7f51ee3          	bne	a0,t6,1238 <main+0x1ac>
    12c0:	8005d737          	lui	a4,0x8005d
    12c4:	7b070713          	add	a4,a4,1968 # 8005d7b0 <Wfc.18>
    12c8:	00500793          	li	a5,5
  for(int o=0;o<NCLS;++o) for(int i=0;i<FCDIM;++i) Wfc[o][i]=patt_fc(o,i);
    12cc:	00001537          	lui	a0,0x1
    12d0:	00f00813          	li	a6,15
    12d4:	00078613          	mv	a2,a5
    12d8:	00000693          	li	a3,0
static inline int8_t patt_fc (int o,int i){ return (int8_t)(((o+5)+(i*3)) & 0x0F)-8; }
    12dc:	00f67593          	and	a1,a2,15
  for(int o=0;o<NCLS;++o) for(int i=0;i<FCDIM;++i) Wfc[o][i]=patt_fc(o,i);
    12e0:	00d708b3          	add	a7,a4,a3
static inline int8_t patt_fc (int o,int i){ return (int8_t)(((o+5)+(i*3)) & 0x0F)-8; }
    12e4:	ff858593          	add	a1,a1,-8
  for(int o=0;o<NCLS;++o) for(int i=0;i<FCDIM;++i) Wfc[o][i]=patt_fc(o,i);
    12e8:	00360613          	add	a2,a2,3
    12ec:	00b88023          	sb	a1,0(a7)
    12f0:	00168693          	add	a3,a3,1
    12f4:	0ff67613          	zext.b	a2,a2
    12f8:	fea692e3          	bne	a3,a0,12dc <main+0x250>
    12fc:	00178793          	add	a5,a5,1
    1300:	0ff7f793          	zext.b	a5,a5
    1304:	00d70733          	add	a4,a4,a3
    1308:	fd0796e3          	bne	a5,a6,12d4 <main+0x248>

  uint64_t c0,i0,c1,i1; uint64_t cyc_sw=0, ins_sw=0, cyc_cfu=0, ins_cfu=0, cyc_cfs=0, ins_cfs=0;

  /* ===== SW pipeline ===== */
  __asm__ volatile("" ::: "memory");
  c0=rdcycle(); i0=rdinstret();
    130c:	ed9fe0ef          	jal	1e4 <rdcycle>
  conv_sw_generic(Cin,H_IMG,W_IMG, Cmid,K1h,K1w,STR1,PAD1, &IN[0][0][0], &W1[0][0][0][0], &C1_sw[0][0][0]);
    1310:	80055b37          	lui	s6,0x80055
  c0=rdcycle(); i0=rdinstret();
    1314:	00050d13          	mv	s10,a0
    1318:	00058c93          	mv	s9,a1
    131c:	eddfe0ef          	jal	1f8 <rdinstret>
  conv_sw_generic(Cin,H_IMG,W_IMG, Cmid,K1h,K1w,STR1,PAD1, &IN[0][0][0], &W1[0][0][0][0], &C1_sw[0][0][0]);
    1320:	7b0b0713          	add	a4,s6,1968 # 800557b0 <C1_sw.17>
    1324:	c3098693          	add	a3,s3,-976
    1328:	d5048613          	add	a2,s1,-688
  c0=rdcycle(); i0=rdinstret();
    132c:	00050a13          	mv	s4,a0
    1330:	00058913          	mv	s2,a1
  conv_sw_generic(Cin,H_IMG,W_IMG, Cmid,K1h,K1w,STR1,PAD1, &IN[0][0][0], &W1[0][0][0][0], &C1_sw[0][0][0]);
    1334:	00400513          	li	a0,4
    1338:	00800593          	li	a1,8
    133c:	dc0ff0ef          	jal	8fc <conv_sw_generic.constprop.0>
  relu_sw(&C1_sw[0][0][0], Cmid*O1H*O1W);
    1340:	000025b7          	lui	a1,0x2
    1344:	7b0b0513          	add	a0,s6,1968
    1348:	f81fe0ef          	jal	2c8 <relu_sw>
  requantize_i32_to_s8(&C1_sw[0][0][0], Cmid*O1H*O1W, C1_sw_s8);
    134c:	80053bb7          	lui	s7,0x80053
    1350:	7b0b8613          	add	a2,s7,1968 # 800537b0 <C1_sw_s8.16>
    1354:	000025b7          	lui	a1,0x2
    1358:	7b0b0513          	add	a0,s6,1968
    135c:	ee5fe0ef          	jal	240 <requantize_i32_to_s8>
  conv_sw_generic(Cmid,O1H,O1W, Cout,K2h,K2w,STR2,PAD2, C1_sw_s8, &W2[0][0][0][0], &C2_sw[0][0][0]);
    1360:	80043ab7          	lui	s5,0x80043
    1364:	7b0a8713          	add	a4,s5,1968 # 800437b0 <C2_sw.15>
    1368:	7b040693          	add	a3,s0,1968
    136c:	7b0b8613          	add	a2,s7,1968
    1370:	01000593          	li	a1,16
    1374:	00800513          	li	a0,8
    1378:	d84ff0ef          	jal	8fc <conv_sw_generic.constprop.0>
  relu_sw(&C2_sw[0][0][0], Cout*O2H*O2W);
    137c:	000045b7          	lui	a1,0x4
    1380:	7b0a8513          	add	a0,s5,1968
    1384:	f45fe0ef          	jal	2c8 <relu_sw>
  maxpool2x2_sw(C2_sw, P_sw);
    1388:	8003fc37          	lui	s8,0x8003f
    138c:	7b0c0593          	add	a1,s8,1968 # 8003f7b0 <P_sw.14>
    1390:	7b0a8513          	add	a0,s5,1968
    1394:	f55fe0ef          	jal	2e8 <maxpool2x2_sw>
  requantize_i32_to_s8(&P_sw[0][0][0], FCDIM, P_sw_s8);
    1398:	8003edb7          	lui	s11,0x8003e
    139c:	7b0d8613          	add	a2,s11,1968 # 8003e7b0 <P_sw_s8.13>
    13a0:	000015b7          	lui	a1,0x1
    13a4:	7b0c0513          	add	a0,s8,1968
    13a8:	e99fe0ef          	jal	240 <requantize_i32_to_s8>
  for(int o=0;o<NCLS;++o){
    13ac:	8003ebb7          	lui	s7,0x8003e
    13b0:	788b8693          	add	a3,s7,1928 # 8003e788 <Y_sw.12>
  requantize_i32_to_s8(&P_sw[0][0][0], FCDIM, P_sw_s8);
    13b4:	00000793          	li	a5,0
    for(int i=0;i<FCDIM;++i) s += (int32_t)row[i] * (int32_t)x[i];
    13b8:	7b0d8713          	add	a4,s11,1968
    13bc:	8005d5b7          	lui	a1,0x8005d
    13c0:	7b058593          	add	a1,a1,1968 # 8005d7b0 <Wfc.18>
    int32_t s=0;
    13c4:	00000613          	li	a2,0
    for(int i=0;i<FCDIM;++i) s += (int32_t)row[i] * (int32_t)x[i];
    13c8:	00000d93          	li	s11,0
    13cc:	00f58333          	add	t1,a1,a5
    13d0:	01b30533          	add	a0,t1,s11
    13d4:	00ed85b3          	add	a1,s11,a4
    13d8:	00058583          	lb	a1,0(a1)
    13dc:	00050503          	lb	a0,0(a0) # 1000 <dump_first_mismatch.isra.0+0xc0>
    13e0:	00d12c23          	sw	a3,24(sp)
    13e4:	00f12a23          	sw	a5,20(sp)
    13e8:	00c12823          	sw	a2,16(sp)
    13ec:	00612623          	sw	t1,12(sp)
    13f0:	1c10e0ef          	jal	fdb0 <__mulsi3>
    13f4:	01012603          	lw	a2,16(sp)
    13f8:	8003e7b7          	lui	a5,0x8003e
    13fc:	001d8d93          	add	s11,s11,1
    1400:	000018b7          	lui	a7,0x1
    1404:	7b078713          	add	a4,a5,1968 # 8003e7b0 <P_sw_s8.13>
    1408:	00c12303          	lw	t1,12(sp)
    140c:	01412783          	lw	a5,20(sp)
    1410:	01812683          	lw	a3,24(sp)
    1414:	00a60633          	add	a2,a2,a0
    1418:	0000a837          	lui	a6,0xa
    141c:	fb1d9ae3          	bne	s11,a7,13d0 <main+0x344>
    y[o]=s;
    1420:	00c6a023          	sw	a2,0(a3)
  for(int o=0;o<NCLS;++o){
    1424:	01b787b3          	add	a5,a5,s11
    1428:	00468693          	add	a3,a3,4
    142c:	f90798e3          	bne	a5,a6,13bc <main+0x330>
    1430:	02f12023          	sw	a5,32(sp)
  fc_sw(P_sw_s8, &Wfc[0][0], Y_sw);
  i1=rdinstret(); c1=rdcycle();
    1434:	dc5fe0ef          	jal	1f8 <rdinstret>
    1438:	00050d93          	mv	s11,a0
    143c:	00b12c23          	sw	a1,24(sp)
    1440:	da5fe0ef          	jal	1e4 <rdcycle>
  __asm__ volatile("" ::: "memory");
  cyc_sw=c1-c0; ins_sw=i1-i0; g_sink ^= (uint32_t)cyc_sw;
    1444:	41a507b3          	sub	a5,a0,s10
    1448:	01812703          	lw	a4,24(sp)
    144c:	00f53533          	sltu	a0,a0,a5
    1450:	419585b3          	sub	a1,a1,s9
    1454:	00f12623          	sw	a5,12(sp)
    1458:	40a587b3          	sub	a5,a1,a0
    145c:	00f12a23          	sw	a5,20(sp)
    1460:	414d87b3          	sub	a5,s11,s4
    1464:	41270733          	sub	a4,a4,s2
    1468:	00fdbdb3          	sltu	s11,s11,a5
    146c:	80000937          	lui	s2,0x80000
    1470:	00f12823          	sw	a5,16(sp)
    1474:	41b707b3          	sub	a5,a4,s11
    1478:	00f12c23          	sw	a5,24(sp)
    147c:	71492703          	lw	a4,1812(s2) # 80000714 <g_sink>
    1480:	00c12783          	lw	a5,12(sp)
    1484:	00f74733          	xor	a4,a4,a5
    1488:	70e92a23          	sw	a4,1812(s2)

  /* ===== CFU pipeline ===== */
  __asm__ volatile("" ::: "memory");
  c0=rdcycle(); i0=rdinstret();
    148c:	d59fe0ef          	jal	1e4 <rdcycle>
  conv_cfu(Cin,H_IMG,W_IMG, Cmid,K1h,K1w,STR1,PAD1, &IN[0][0][0], &W1[0][0][0][0], &C1_cfu[0][0][0]);
    1490:	80036db7          	lui	s11,0x80036
  c0=rdcycle(); i0=rdinstret();
    1494:	00a12e23          	sw	a0,28(sp)
    1498:	00058d13          	mv	s10,a1
    149c:	d5dfe0ef          	jal	1f8 <rdinstret>
  conv_cfu(Cin,H_IMG,W_IMG, Cmid,K1h,K1w,STR1,PAD1, &IN[0][0][0], &W1[0][0][0][0], &C1_cfu[0][0][0]);
    14a0:	788d8713          	add	a4,s11,1928 # 80036788 <C1_cfu.11>
    14a4:	c3098693          	add	a3,s3,-976
    14a8:	d5048613          	add	a2,s1,-688
  c0=rdcycle(); i0=rdinstret();
    14ac:	02b12223          	sw	a1,36(sp)
    14b0:	00050c93          	mv	s9,a0
  conv_cfu(Cin,H_IMG,W_IMG, Cmid,K1h,K1w,STR1,PAD1, &IN[0][0][0], &W1[0][0][0][0], &C1_cfu[0][0][0]);
    14b4:	00800593          	li	a1,8
    14b8:	00400513          	li	a0,4
    14bc:	f79fe0ef          	jal	434 <conv_cfu.constprop.0>
  relu_sw(&C1_cfu[0][0][0], Cmid*O1H*O1W);
    14c0:	000025b7          	lui	a1,0x2
    14c4:	788d8513          	add	a0,s11,1928
    14c8:	e01fe0ef          	jal	2c8 <relu_sw>
  requantize_i32_to_s8(&C1_cfu[0][0][0], Cmid*O1H*O1W, C1_cfu_s8);
    14cc:	800348b7          	lui	a7,0x80034
    14d0:	78888613          	add	a2,a7,1928 # 80034788 <C1_cfu_s8.10>
    14d4:	000025b7          	lui	a1,0x2
    14d8:	788d8513          	add	a0,s11,1928
    14dc:	d65fe0ef          	jal	240 <requantize_i32_to_s8>
  conv_cfu(Cmid,O1H,O1W, Cout,K2h,K2w,STR2,PAD2, C1_cfu_s8, &W2[0][0][0][0], &C2_cfu[0][0][0]);
    14e0:	800348b7          	lui	a7,0x80034
    14e4:	80024a37          	lui	s4,0x80024
    14e8:	7b040693          	add	a3,s0,1968
    14ec:	78888613          	add	a2,a7,1928 # 80034788 <C1_cfu_s8.10>
    14f0:	788a0713          	add	a4,s4,1928 # 80024788 <C2_cfu.9>
    14f4:	01000593          	li	a1,16
    14f8:	00800513          	li	a0,8
    14fc:	f39fe0ef          	jal	434 <conv_cfu.constprop.0>
  relu_sw(&C2_cfu[0][0][0], Cout*O2H*O2W);
    1500:	000045b7          	lui	a1,0x4
    1504:	788a0513          	add	a0,s4,1928
    1508:	dc1fe0ef          	jal	2c8 <relu_sw>
  maxpool2x2_sw(C2_cfu, P_cfu);
    150c:	80020737          	lui	a4,0x80020
    1510:	78870593          	add	a1,a4,1928 # 80020788 <P_cfu.8>
    1514:	788a0513          	add	a0,s4,1928
    1518:	dd1fe0ef          	jal	2e8 <maxpool2x2_sw>
  requantize_i32_to_s8(&P_cfu[0][0][0], FCDIM, P_cfu_s8);
    151c:	8001f837          	lui	a6,0x8001f
    1520:	80020737          	lui	a4,0x80020
    1524:	78880613          	add	a2,a6,1928 # 8001f788 <P_cfu_s8.7>
    1528:	78870513          	add	a0,a4,1928 # 80020788 <P_cfu.8>
    152c:	000015b7          	lui	a1,0x1
    1530:	d11fe0ef          	jal	240 <requantize_i32_to_s8>
  for(int o=0;o<NCLS;++o){
    1534:	02012783          	lw	a5,32(sp)
    1538:	8005d737          	lui	a4,0x8005d
    153c:	8001f537          	lui	a0,0x8001f
    1540:	7b070693          	add	a3,a4,1968 # 8005d7b0 <Wfc.18>
    1544:	76050513          	add	a0,a0,1888 # 8001f760 <Y_cfu.6>
    1548:	00f686b3          	add	a3,a3,a5
  requantize_i32_to_s8(&P_cfu[0][0][0], FCDIM, P_cfu_s8);
    154c:	7b070613          	add	a2,a4,1968
    1550:	00001337          	lui	t1,0x1
    1554:	8001f837          	lui	a6,0x8001f
    1558:	00060713          	mv	a4,a2
    155c:	78880593          	add	a1,a6,1928 # 8001f788 <P_cfu_s8.7>
    int32_t s=0; int i=0;
    1560:	00000893          	li	a7,0
    1564:	00660633          	add	a2,a2,t1
         (((uint32_t)(uint8_t)x1) << 8)  |
    1568:	0015c783          	lbu	a5,1(a1) # 1001 <dump_first_mismatch.isra.0+0xc1>
         (((uint32_t)(uint8_t)x2) << 16) |
    156c:	0025ce03          	lbu	t3,2(a1)
    1570:	00274e83          	lbu	t4,2(a4)
         (((uint32_t)(uint8_t)x1) << 8)  |
    1574:	00879793          	sll	a5,a5,0x8
         (((uint32_t)(uint8_t)x2) << 16) |
    1578:	010e1e13          	sll	t3,t3,0x10
         (((uint32_t)(uint8_t)x1) << 8)  |
    157c:	01c7e7b3          	or	a5,a5,t3
  return  ((uint32_t)(uint8_t)x0)        |
    1580:	0005ce03          	lbu	t3,0(a1)
         (((uint32_t)(uint8_t)x2) << 16) |
    1584:	010e9e93          	sll	t4,t4,0x10
         (((uint32_t)(uint8_t)x1) << 8)  |
    1588:	01c7e7b3          	or	a5,a5,t3
         (((uint32_t)(uint8_t)x3) << 24);
    158c:	0035ce03          	lbu	t3,3(a1)
    1590:	018e1e13          	sll	t3,t3,0x18
         (((uint32_t)(uint8_t)x2) << 16) |
    1594:	01c7ee33          	or	t3,a5,t3
         (((uint32_t)(uint8_t)x1) << 8)  |
    1598:	00174783          	lbu	a5,1(a4)
    159c:	00879793          	sll	a5,a5,0x8
    15a0:	01d7e7b3          	or	a5,a5,t4
  return  ((uint32_t)(uint8_t)x0)        |
    15a4:	00074e83          	lbu	t4,0(a4)
         (((uint32_t)(uint8_t)x1) << 8)  |
    15a8:	01d7e7b3          	or	a5,a5,t4
         (((uint32_t)(uint8_t)x3) << 24);
    15ac:	00374e83          	lbu	t4,3(a4)
    15b0:	018e9e93          	sll	t4,t4,0x18
         (((uint32_t)(uint8_t)x2) << 16) |
    15b4:	01d7e7b3          	or	a5,a5,t4
  __asm__ volatile (".insn r 0x0B, %1, %2, %0, %3, %4"
    15b8:	02fe078b          	.insn	4, 0x02fe078b
    for(; i+3<FCDIM; i+=4){
    15bc:	00470713          	add	a4,a4,4
      s += cfu_dp4a((int32_t)ap,(int32_t)bp);
    15c0:	00f888b3          	add	a7,a7,a5
    for(; i+3<FCDIM; i+=4){
    15c4:	00458593          	add	a1,a1,4
    15c8:	fae610e3          	bne	a2,a4,1568 <main+0x4dc>
    y[o]=s;
    15cc:	01152023          	sw	a7,0(a0)
  for(int o=0;o<NCLS;++o){
    15d0:	00450513          	add	a0,a0,4
    15d4:	f8d612e3          	bne	a2,a3,1558 <main+0x4cc>
  fc_cfu(P_cfu_s8, &Wfc[0][0], Y_cfu);
  i1=rdinstret(); c1=rdcycle();
    15d8:	c21fe0ef          	jal	1f8 <rdinstret>
    15dc:	02a12023          	sw	a0,32(sp)
    15e0:	02b12623          	sw	a1,44(sp)
    15e4:	c01fe0ef          	jal	1e4 <rdcycle>
  __asm__ volatile("" ::: "memory");
  cyc_cfu=c1-c0; ins_cfu=i1-i0; g_sink ^= (uint32_t)cyc_cfu;
    15e8:	01c12783          	lw	a5,28(sp)
    15ec:	41a585b3          	sub	a1,a1,s10
    15f0:	02412683          	lw	a3,36(sp)
    15f4:	40f507b3          	sub	a5,a0,a5
    15f8:	00f53533          	sltu	a0,a0,a5
    15fc:	00f12e23          	sw	a5,28(sp)
    1600:	40a587b3          	sub	a5,a1,a0
    1604:	02f12423          	sw	a5,40(sp)
    1608:	02012783          	lw	a5,32(sp)
    160c:	41978733          	sub	a4,a5,s9
    1610:	02e12023          	sw	a4,32(sp)
    1614:	00e7b7b3          	sltu	a5,a5,a4
    1618:	02c12703          	lw	a4,44(sp)
    161c:	40d70733          	sub	a4,a4,a3
    1620:	40f707b3          	sub	a5,a4,a5
    1624:	02f12623          	sw	a5,44(sp)
    1628:	01c12703          	lw	a4,28(sp)
    162c:	71492783          	lw	a5,1812(s2)
    1630:	00e7c7b3          	xor	a5,a5,a4
    1634:	70f92a23          	sw	a5,1812(s2)

  /* ===== CFS pipeline ===== */
  __asm__ volatile("" ::: "memory");
  c0=rdcycle(); i0=rdinstret();
    1638:	badfe0ef          	jal	1e4 <rdcycle>
  conv_cfs(Cin,H_IMG,W_IMG, Cmid,K1h,K1w,STR1,PAD1, &IN[0][0][0], &W1[0][0][0][0], &C1_cfs[0][0][0]);
    163c:	80017d37          	lui	s10,0x80017
  c0=rdcycle(); i0=rdinstret();
    1640:	02a12223          	sw	a0,36(sp)
    1644:	02b12823          	sw	a1,48(sp)
    1648:	bb1fe0ef          	jal	1f8 <rdinstret>
  conv_cfs(Cin,H_IMG,W_IMG, Cmid,K1h,K1w,STR1,PAD1, &IN[0][0][0], &W1[0][0][0][0], &C1_cfs[0][0][0]);
    164c:	c3098693          	add	a3,s3,-976
    1650:	760d0713          	add	a4,s10,1888 # 80017760 <C1_cfs.5>
    1654:	d5048613          	add	a2,s1,-688
  c0=rdcycle(); i0=rdinstret();
    1658:	02a12a23          	sw	a0,52(sp)
    165c:	02b12c23          	sw	a1,56(sp)
  conv_cfs(Cin,H_IMG,W_IMG, Cmid,K1h,K1w,STR1,PAD1, &IN[0][0][0], &W1[0][0][0][0], &C1_cfs[0][0][0]);
    1660:	00400513          	li	a0,4
    1664:	00800593          	li	a1,8
    1668:	e00ff0ef          	jal	c68 <conv_cfs.constprop.0>
  relu_sw(&C1_cfs[0][0][0], Cmid*O1H*O1W);
    166c:	000025b7          	lui	a1,0x2
    1670:	760d0513          	add	a0,s10,1888
    1674:	c55fe0ef          	jal	2c8 <relu_sw>
  requantize_i32_to_s8(&C1_cfs[0][0][0], Cmid*O1H*O1W, C1_cfs_s8);
    1678:	800159b7          	lui	s3,0x80015
    167c:	76098613          	add	a2,s3,1888 # 80015760 <C1_cfs_s8.4>
    1680:	000025b7          	lui	a1,0x2
    1684:	760d0513          	add	a0,s10,1888
    1688:	bb9fe0ef          	jal	240 <requantize_i32_to_s8>
  conv_cfs(Cmid,O1H,O1W, Cout,K2h,K2w,STR2,PAD2, C1_cfs_s8, &W2[0][0][0][0], &C2_cfs[0][0][0]);
    168c:	800054b7          	lui	s1,0x80005
    1690:	76048713          	add	a4,s1,1888 # 80005760 <C2_cfs.3>
    1694:	7b040693          	add	a3,s0,1968
    1698:	76098613          	add	a2,s3,1888
    169c:	01000593          	li	a1,16
    16a0:	00800513          	li	a0,8
    16a4:	dc4ff0ef          	jal	c68 <conv_cfs.constprop.0>
  relu_sw(&C2_cfs[0][0][0], Cout*O2H*O2W);
    16a8:	76048513          	add	a0,s1,1888
    16ac:	000045b7          	lui	a1,0x4
    16b0:	c19fe0ef          	jal	2c8 <relu_sw>
  maxpool2x2_sw(C2_cfs, P_cfs);
    16b4:	80001437          	lui	s0,0x80001
    16b8:	76040593          	add	a1,s0,1888 # 80001760 <P_cfs.2>
    16bc:	76048513          	add	a0,s1,1888
    16c0:	c29fe0ef          	jal	2e8 <maxpool2x2_sw>
  requantize_i32_to_s8(&P_cfs[0][0][0], FCDIM, P_cfs_s8);
    16c4:	800004b7          	lui	s1,0x80000
    16c8:	76040513          	add	a0,s0,1888
    16cc:	76048613          	add	a2,s1,1888 # 80000760 <P_cfs_s8.1>
    16d0:	000015b7          	lui	a1,0x1
    16d4:	b6dfe0ef          	jal	240 <requantize_i32_to_s8>
  for(int o=0;o<NCLS;++o) y[o]=0;
    16d8:	800007b7          	lui	a5,0x80000
    16dc:	02800613          	li	a2,40
    16e0:	00000593          	li	a1,0
    16e4:	73878513          	add	a0,a5,1848 # 80000738 <Y_cfs.0>
    16e8:	00078413          	mv	s0,a5
    16ec:	119000ef          	jal	2004 <memset>
    16f0:	73840993          	add	s3,s0,1848
    16f4:	80069fb7          	lui	t6,0x80069
  for(int o0=0;o0<NCLS;o0+=4){
    16f8:	00000413          	li	s0,0
    16fc:	80069cb7          	lui	s9,0x80069
        int8_t a = x[k0+k];
    1700:	76048393          	add	t2,s1,1888
    for(int k0=0;k0<FCDIM;k0+=FC_CHUNKK){
    1704:	00c41293          	sll	t0,s0,0xc
    1708:	00000493          	li	s1,0
          fc_Aflat[r*kk + k] = (o<NCLS)? Wm[o*FCDIM + (k0+k)] : 0;
    170c:	00900f13          	li	t5,9
        for(int k=0;k<kk;++k){
    1710:	10000a13          	li	s4,256
    1714:	0e80006f          	j	17fc <main+0x770>
    1718:	00000793          	li	a5,0
          fc_Aflat[r*kk + k] = (o<NCLS)? Wm[o*FCDIM + (k0+k)] : 0;
    171c:	00e40e33          	add	t3,s0,a4
    1720:	00d88eb3          	add	t4,a7,a3
    1724:	00000593          	li	a1,0
    1728:	01cf6663          	bltu	t5,t3,1734 <main+0x6a8>
    172c:	00fe85b3          	add	a1,t4,a5
    1730:	00058583          	lb	a1,0(a1) # 1000 <dump_first_mismatch.isra.0+0xc0>
    1734:	00f60333          	add	t1,a2,a5
    1738:	00b30023          	sb	a1,0(t1) # 1000 <dump_first_mismatch.isra.0+0xc0>
        for(int k=0;k<kk;++k){
    173c:	00178793          	add	a5,a5,1
    1740:	ff4792e3          	bne	a5,s4,1724 <main+0x698>
      for(int r=0;r<4;++r){
    1744:	00170713          	add	a4,a4,1
    1748:	10060613          	add	a2,a2,256
    174c:	010686b3          	add	a3,a3,a6
    1750:	fca714e3          	bne	a4,a0,1718 <main+0x68c>
    1754:	d50c8793          	add	a5,s9,-688 # 80068d50 <fc_Bflat>
      for(int k=0;k<kk;++k){
    1758:	00000713          	li	a4,0
        int8_t a = x[k0+k];
    175c:	00748633          	add	a2,s1,t2
    1760:	00e606b3          	add	a3,a2,a4
    1764:	00068683          	lb	a3,0(a3)
      for(int k=0;k<kk;++k){
    1768:	00170713          	add	a4,a4,1
    176c:	00478793          	add	a5,a5,4
        fc_Bflat[k*4+0]=a; fc_Bflat[k*4+1]=a; fc_Bflat[k*4+2]=a; fc_Bflat[k*4+3]=a;
    1770:	fed78e23          	sb	a3,-4(a5)
    1774:	fed78ea3          	sb	a3,-3(a5)
    1778:	fed78f23          	sb	a3,-2(a5)
    177c:	fed78fa3          	sb	a3,-1(a5)
      for(int k=0;k<kk;++k){
    1780:	ff4710e3          	bne	a4,s4,1760 <main+0x6d4>
  cfs_feed_strict_step(Aflat,Bflat,Klen,lda,ldb);
    1784:	150f8513          	add	a0,t6,336 # 80069150 <fc_Aflat>
    1788:	10000693          	li	a3,256
    178c:	10000613          	li	a2,256
    1790:	d50c8593          	add	a1,s9,-688
    1794:	02512e23          	sw	t0,60(sp)
    1798:	b44ff0ef          	jal	adc <cfs_feed_strict_step.constprop.0>
      cfs_read_C4(C4);
    179c:	04010513          	add	a0,sp,64
    17a0:	addfe0ef          	jal	27c <cfs_read_C4>
      for(int r=0;r<4;++r){
    17a4:	03c12283          	lw	t0,60(sp)
    17a8:	80000637          	lui	a2,0x80000
    17ac:	04010693          	add	a3,sp,64
      cfs_read_C4(C4);
    17b0:	00098713          	mv	a4,s3
      for(int r=0;r<4;++r){
    17b4:	00000793          	li	a5,0
    17b8:	00400593          	li	a1,4
    17bc:	76060393          	add	t2,a2,1888 # 80000760 <P_cfs_s8.1>
    17c0:	00900f13          	li	t5,9
    17c4:	80069fb7          	lui	t6,0x80069
        int o=o0+r; if(o<NCLS) y[o] += C4[r][0]; /* take col0 (all cols identical) */
    17c8:	00878633          	add	a2,a5,s0
    17cc:	00cf6a63          	bltu	t5,a2,17e0 <main+0x754>
    17d0:	00072603          	lw	a2,0(a4)
    17d4:	0006a503          	lw	a0,0(a3)
    17d8:	00a60633          	add	a2,a2,a0
    17dc:	00c72023          	sw	a2,0(a4)
      for(int r=0;r<4;++r){
    17e0:	00178793          	add	a5,a5,1
    17e4:	00470713          	add	a4,a4,4
    17e8:	01068693          	add	a3,a3,16
    17ec:	fcb79ee3          	bne	a5,a1,17c8 <main+0x73c>
    for(int k0=0;k0<FCDIM;k0+=FC_CHUNKK){
    17f0:	10048493          	add	s1,s1,256
    17f4:	000017b7          	lui	a5,0x1
    17f8:	02f48463          	beq	s1,a5,1820 <main+0x794>
          fc_Aflat[r*kk + k] = (o<NCLS)? Wm[o*FCDIM + (k0+k)] : 0;
    17fc:	8005d7b7          	lui	a5,0x8005d
    1800:	7b078793          	add	a5,a5,1968 # 8005d7b0 <Wfc.18>
    1804:	150f8613          	add	a2,t6,336 # 80069150 <fc_Aflat>
    int32_t s=0; int i=0;
    1808:	00028693          	mv	a3,t0
      for(int r=0;r<4;++r){
    180c:	00000713          	li	a4,0
          fc_Aflat[r*kk + k] = (o<NCLS)? Wm[o*FCDIM + (k0+k)] : 0;
    1810:	00f488b3          	add	a7,s1,a5
      for(int r=0;r<4;++r){
    1814:	00001837          	lui	a6,0x1
    1818:	00400513          	li	a0,4
    181c:	efdff06f          	j	1718 <main+0x68c>
  for(int o0=0;o0<NCLS;o0+=4){
    1820:	00440413          	add	s0,s0,4
    1824:	00c00793          	li	a5,12
    1828:	01098993          	add	s3,s3,16
    182c:	ecf41ce3          	bne	s0,a5,1704 <main+0x678>
  fc_cfs(P_cfs_s8, &Wfc[0][0], Y_cfs);
  i1=rdinstret(); c1=rdcycle();
    1830:	9c9fe0ef          	jal	1f8 <rdinstret>
    1834:	00050413          	mv	s0,a0
    1838:	00058993          	mv	s3,a1
    183c:	9a9fe0ef          	jal	1e4 <rdcycle>
  __asm__ volatile("" ::: "memory");
  cyc_cfs=c1-c0; ins_cfs=i1-i0; g_sink ^= (uint32_t)cyc_cfs;
    1840:	02412783          	lw	a5,36(sp)

  /* ===== Verify & report ===== */
  int ok_cfu = 1, ok_cfs = 1;
  if (!equal_i32(&C1_sw[0][0][0], &C1_cfu[0][0][0], Cmid*O1H*O1W)) { ok_cfu = 0; dump_first_mismatch("CFU:C1", &C1_sw[0][0][0], &C1_cfu[0][0][0], Cmid*O1H*O1W, O1W); }
    1844:	00002637          	lui	a2,0x2
  cyc_cfs=c1-c0; ins_cfs=i1-i0; g_sink ^= (uint32_t)cyc_cfs;
    1848:	40f50cb3          	sub	s9,a0,a5
    184c:	03012783          	lw	a5,48(sp)
    1850:	01953533          	sltu	a0,a0,s9
    1854:	40f58a33          	sub	s4,a1,a5
    1858:	03412783          	lw	a5,52(sp)
    185c:	40aa0a33          	sub	s4,s4,a0
  if (!equal_i32(&C1_sw[0][0][0], &C1_cfu[0][0][0], Cmid*O1H*O1W)) { ok_cfu = 0; dump_first_mismatch("CFU:C1", &C1_sw[0][0][0], &C1_cfu[0][0][0], Cmid*O1H*O1W, O1W); }
    1860:	788d8593          	add	a1,s11,1928
  cyc_cfs=c1-c0; ins_cfs=i1-i0; g_sink ^= (uint32_t)cyc_cfs;
    1864:	40f407b3          	sub	a5,s0,a5
    1868:	00f43433          	sltu	s0,s0,a5
    186c:	02f12223          	sw	a5,36(sp)
    1870:	03812783          	lw	a5,56(sp)
  if (!equal_i32(&C1_sw[0][0][0], &C1_cfu[0][0][0], Cmid*O1H*O1W)) { ok_cfu = 0; dump_first_mismatch("CFU:C1", &C1_sw[0][0][0], &C1_cfu[0][0][0], Cmid*O1H*O1W, O1W); }
    1874:	7b0b0513          	add	a0,s6,1968
  cyc_cfs=c1-c0; ins_cfs=i1-i0; g_sink ^= (uint32_t)cyc_cfs;
    1878:	40f989b3          	sub	s3,s3,a5
    187c:	71492783          	lw	a5,1812(s2)
    1880:	408989b3          	sub	s3,s3,s0
    1884:	0197c7b3          	xor	a5,a5,s9
    1888:	70f92a23          	sw	a5,1812(s2)
  if (!equal_i32(&C1_sw[0][0][0], &C1_cfu[0][0][0], Cmid*O1H*O1W)) { ok_cfu = 0; dump_first_mismatch("CFU:C1", &C1_sw[0][0][0], &C1_cfu[0][0][0], Cmid*O1H*O1W, O1W); }
    188c:	981fe0ef          	jal	20c <equal_i32>
    1890:	00050413          	mv	s0,a0
    1894:	30051463          	bnez	a0,1b9c <main+0xb10>
    1898:	00010537          	lui	a0,0x10
    189c:	000026b7          	lui	a3,0x2
    18a0:	788d8613          	add	a2,s11,1928
    18a4:	7b0b0593          	add	a1,s6,1968
    18a8:	0c050513          	add	a0,a0,192 # 100c0 <__fini_array_end+0x118>
    18ac:	e94ff0ef          	jal	f40 <dump_first_mismatch.isra.0>
  if (!equal_i32(&C2_sw[0][0][0], &C2_cfu[0][0][0], Cout*O2H*O2W)) { ok_cfu = 0; dump_first_mismatch("CFU:C2", &C2_sw[0][0][0], &C2_cfu[0][0][0], Cout*O2H*O2W, O2W); }
    18b0:	800244b7          	lui	s1,0x80024
    18b4:	00004637          	lui	a2,0x4
    18b8:	78848593          	add	a1,s1,1928 # 80024788 <C2_cfu.9>
    18bc:	7b0a8513          	add	a0,s5,1968
    18c0:	94dfe0ef          	jal	20c <equal_i32>
    18c4:	02051063          	bnez	a0,18e4 <main+0x858>
    18c8:	00010537          	lui	a0,0x10
    18cc:	000046b7          	lui	a3,0x4
    18d0:	78848613          	add	a2,s1,1928
    18d4:	7b0a8593          	add	a1,s5,1968
    18d8:	0c850513          	add	a0,a0,200 # 100c8 <__fini_array_end+0x120>
    18dc:	e64ff0ef          	jal	f40 <dump_first_mismatch.isra.0>
    18e0:	00000413          	li	s0,0
  if (!equal_i32(&P_sw [0][0][0], &P_cfu [0][0][0], Cout*PH*PW))   { ok_cfu = 0; dump_first_mismatch("CFU:POOL", &P_sw[0][0][0], &P_cfu[0][0][0], Cout*PH*PW, PW); }
    18e4:	800204b7          	lui	s1,0x80020
    18e8:	00001637          	lui	a2,0x1
    18ec:	78848593          	add	a1,s1,1928 # 80020788 <P_cfu.8>
    18f0:	7b0c0513          	add	a0,s8,1968
    18f4:	919fe0ef          	jal	20c <equal_i32>
    18f8:	02051063          	bnez	a0,1918 <main+0x88c>
    18fc:	00010537          	lui	a0,0x10
    1900:	000016b7          	lui	a3,0x1
    1904:	78848613          	add	a2,s1,1928
    1908:	7b0c0593          	add	a1,s8,1968
    190c:	0d050513          	add	a0,a0,208 # 100d0 <__fini_array_end+0x128>
    1910:	e30ff0ef          	jal	f40 <dump_first_mismatch.isra.0>
    1914:	00000413          	li	s0,0
  if (!equal_i32(&Y_sw [0],       &Y_cfu [0],       NCLS))         { ok_cfu = 0; dump_first_mismatch("CFU:FC", Y_sw, Y_cfu, NCLS, 0); }
    1918:	8001fdb7          	lui	s11,0x8001f
    191c:	00a00613          	li	a2,10
    1920:	760d8593          	add	a1,s11,1888 # 8001f760 <Y_cfu.6>
    1924:	788b8513          	add	a0,s7,1928
    1928:	8e5fe0ef          	jal	20c <equal_i32>
    192c:	02051063          	bnez	a0,194c <main+0x8c0>
    1930:	00010537          	lui	a0,0x10
    1934:	00a00693          	li	a3,10
    1938:	760d8613          	add	a2,s11,1888
    193c:	788b8593          	add	a1,s7,1928
    1940:	0dc50513          	add	a0,a0,220 # 100dc <__fini_array_end+0x134>
    1944:	dfcff0ef          	jal	f40 <dump_first_mismatch.isra.0>
    1948:	00000413          	li	s0,0

  if (!equal_i32(&C1_sw[0][0][0], &C1_cfs[0][0][0], Cmid*O1H*O1W)) { ok_cfs = 0; dump_first_mismatch("CFS:C1", &C1_sw[0][0][0], &C1_cfs[0][0][0], Cmid*O1H*O1W, O1W); }
    194c:	00002637          	lui	a2,0x2
    1950:	760d0593          	add	a1,s10,1888
    1954:	7b0b0513          	add	a0,s6,1968
    1958:	8b5fe0ef          	jal	20c <equal_i32>
    195c:	00050493          	mv	s1,a0
    1960:	24051263          	bnez	a0,1ba4 <main+0xb18>
    1964:	00010537          	lui	a0,0x10
    1968:	000026b7          	lui	a3,0x2
    196c:	760d0613          	add	a2,s10,1888
    1970:	7b0b0593          	add	a1,s6,1968
    1974:	0e450513          	add	a0,a0,228 # 100e4 <__fini_array_end+0x13c>
    1978:	dc8ff0ef          	jal	f40 <dump_first_mismatch.isra.0>
  if (!equal_i32(&C2_sw[0][0][0], &C2_cfs[0][0][0], Cout*O2H*O2W)) { ok_cfs = 0; dump_first_mismatch("CFS:C2", &C2_sw[0][0][0], &C2_cfs[0][0][0], Cout*O2H*O2W, O2W); }
    197c:	80005b37          	lui	s6,0x80005
    1980:	00004637          	lui	a2,0x4
    1984:	760b0593          	add	a1,s6,1888 # 80005760 <C2_cfs.3>
    1988:	7b0a8513          	add	a0,s5,1968
    198c:	881fe0ef          	jal	20c <equal_i32>
    1990:	02051063          	bnez	a0,19b0 <main+0x924>
    1994:	00010537          	lui	a0,0x10
    1998:	000046b7          	lui	a3,0x4
    199c:	760b0613          	add	a2,s6,1888
    19a0:	7b0a8593          	add	a1,s5,1968
    19a4:	0ec50513          	add	a0,a0,236 # 100ec <__fini_array_end+0x144>
    19a8:	d98ff0ef          	jal	f40 <dump_first_mismatch.isra.0>
    19ac:	00000493          	li	s1,0
  if (!equal_i32(&P_sw [0][0][0], &P_cfs [0][0][0], Cout*PH*PW))   { ok_cfs = 0; dump_first_mismatch("CFS:POOL", &P_sw[0][0][0], &P_cfs[0][0][0], Cout*PH*PW, PW); }
    19b0:	80001ab7          	lui	s5,0x80001
    19b4:	00001637          	lui	a2,0x1
    19b8:	760a8593          	add	a1,s5,1888 # 80001760 <P_cfs.2>
    19bc:	7b0c0513          	add	a0,s8,1968
    19c0:	84dfe0ef          	jal	20c <equal_i32>
    19c4:	02051063          	bnez	a0,19e4 <main+0x958>
    19c8:	00010537          	lui	a0,0x10
    19cc:	000016b7          	lui	a3,0x1
    19d0:	760a8613          	add	a2,s5,1888
    19d4:	7b0c0593          	add	a1,s8,1968
    19d8:	0f450513          	add	a0,a0,244 # 100f4 <__fini_array_end+0x14c>
    19dc:	d64ff0ef          	jal	f40 <dump_first_mismatch.isra.0>
    19e0:	00000493          	li	s1,0
  if (!equal_i32(&Y_sw [0],       &Y_cfs [0],       NCLS))         { ok_cfs = 0; dump_first_mismatch("CFS:FC", Y_sw, Y_cfs, NCLS, 0); }
    19e4:	80000ab7          	lui	s5,0x80000
    19e8:	00a00613          	li	a2,10
    19ec:	738a8593          	add	a1,s5,1848 # 80000738 <Y_cfs.0>
    19f0:	788b8513          	add	a0,s7,1928
    19f4:	819fe0ef          	jal	20c <equal_i32>
    19f8:	02051063          	bnez	a0,1a18 <main+0x98c>
    19fc:	00010537          	lui	a0,0x10
    1a00:	00a00693          	li	a3,10
    1a04:	738a8613          	add	a2,s5,1848
    1a08:	788b8593          	add	a1,s7,1928
    1a0c:	10050513          	add	a0,a0,256 # 10100 <__fini_array_end+0x158>
    1a10:	d30ff0ef          	jal	f40 <dump_first_mismatch.isra.0>
    1a14:	00000493          	li	s1,0
  printf("\nSample logits (first 8):\nSW : "); for(int i=0;i<8 && i<NCLS;++i) printf("%8ld ", (long)Y_sw[i]);  printf("\n");
  printf("CFU: "); for(int i=0;i<8 && i<NCLS;++i) printf("%8ld ", (long)Y_cfu[i]); printf("\n");
  printf("CFS: "); for(int i=0;i<8 && i<NCLS;++i) printf("%8ld ", (long)Y_cfs[i]); printf("\n\n");
#endif

  int cls_sw  = argmax_i32(Y_sw,  NCLS);
    1a18:	788b8513          	add	a0,s7,1928
    1a1c:	cecff0ef          	jal	f08 <argmax_i32.constprop.0>
    1a20:	00050a93          	mv	s5,a0
  int cls_cfu = argmax_i32(Y_cfu, NCLS);
    1a24:	760d8513          	add	a0,s11,1888
    1a28:	ce0ff0ef          	jal	f08 <argmax_i32.constprop.0>
  int cls_cfs = argmax_i32(Y_cfs, NCLS);
    1a2c:	800007b7          	lui	a5,0x80000
  int cls_cfu = argmax_i32(Y_cfu, NCLS);
    1a30:	00050b13          	mv	s6,a0
  int cls_cfs = argmax_i32(Y_cfs, NCLS);
    1a34:	73878513          	add	a0,a5,1848 # 80000738 <Y_cfs.0>
    1a38:	cd0ff0ef          	jal	f08 <argmax_i32.constprop.0>
    1a3c:	00050b93          	mv	s7,a0

  printf("Tiny CNN timing summary\n");
    1a40:	00010537          	lui	a0,0x10
    1a44:	10850513          	add	a0,a0,264 # 10108 <__fini_array_end+0x160>
    1a48:	59c000ef          	jal	1fe4 <puts>
  printf("Path |     cycles     |    instret    | Speedup(cyc) | Speedup(inst)\n");
    1a4c:	00010537          	lui	a0,0x10
    1a50:	12050513          	add	a0,a0,288 # 10120 <__fini_array_end+0x178>
    1a54:	590000ef          	jal	1fe4 <puts>
  printf("-----+----------------+---------------+--------------+--------------\n");
    1a58:	00010537          	lui	a0,0x10
    1a5c:	16850513          	add	a0,a0,360 # 10168 <__fini_array_end+0x1c0>
    1a60:	584000ef          	jal	1fe4 <puts>
  printf(" SW  | %14" PRIu64 " | %13" PRIu64 " |     --       |     --      \n", cyc_sw,  ins_sw);
    1a64:	01012703          	lw	a4,16(sp)
    1a68:	01812783          	lw	a5,24(sp)
    1a6c:	00c12603          	lw	a2,12(sp)
    1a70:	01412683          	lw	a3,20(sp)
    1a74:	00010537          	lui	a0,0x10
    1a78:	1b050513          	add	a0,a0,432 # 101b0 <__fini_array_end+0x208>
    1a7c:	3d4000ef          	jal	1e50 <printf>
  printf(" CFU | %14" PRIu64 " | %13" PRIu64 " |  "); print_speedup_fixed(cyc_sw,cyc_cfu); printf("     |  "); print_speedup_fixed(ins_sw,ins_cfu); printf("\n");
    1a80:	00010537          	lui	a0,0x10
    1a84:	1e850513          	add	a0,a0,488 # 101e8 <__fini_array_end+0x240>
    1a88:	3c8000ef          	jal	1e50 <printf>
    1a8c:	01c12603          	lw	a2,28(sp)
    1a90:	02812683          	lw	a3,40(sp)
    1a94:	01412583          	lw	a1,20(sp)
    1a98:	00c12503          	lw	a0,12(sp)
    1a9c:	00010c37          	lui	s8,0x10
    1aa0:	8d1fe0ef          	jal	370 <print_speedup_fixed>
    1aa4:	204c0513          	add	a0,s8,516 # 10204 <__fini_array_end+0x25c>
    1aa8:	3a8000ef          	jal	1e50 <printf>
    1aac:	02012603          	lw	a2,32(sp)
    1ab0:	02c12683          	lw	a3,44(sp)
    1ab4:	01812583          	lw	a1,24(sp)
    1ab8:	01012503          	lw	a0,16(sp)
    1abc:	8b5fe0ef          	jal	370 <print_speedup_fixed>
    1ac0:	00a00513          	li	a0,10
    1ac4:	3dc000ef          	jal	1ea0 <putchar>
  printf(" CFS | %14" PRIu64 " | %13" PRIu64 " |  "); print_speedup_fixed(cyc_sw,cyc_cfs); printf("     |  "); print_speedup_fixed(ins_sw,ins_cfs); printf("\n");
    1ac8:	00010537          	lui	a0,0x10
    1acc:	21050513          	add	a0,a0,528 # 10210 <__fini_array_end+0x268>
    1ad0:	380000ef          	jal	1e50 <printf>
    1ad4:	01412583          	lw	a1,20(sp)
    1ad8:	00c12503          	lw	a0,12(sp)
    1adc:	000c8613          	mv	a2,s9
    1ae0:	000a0693          	mv	a3,s4
    1ae4:	88dfe0ef          	jal	370 <print_speedup_fixed>
    1ae8:	204c0513          	add	a0,s8,516
    1aec:	364000ef          	jal	1e50 <printf>
    1af0:	02412603          	lw	a2,36(sp)
    1af4:	01812583          	lw	a1,24(sp)
    1af8:	01012503          	lw	a0,16(sp)
    1afc:	00098693          	mv	a3,s3
    1b00:	871fe0ef          	jal	370 <print_speedup_fixed>
    1b04:	00a00513          	li	a0,10
    1b08:	398000ef          	jal	1ea0 <putchar>

  printf("\nPred class: SW=%d, CFU=%d, CFS=%d\n", cls_sw, cls_cfu, cls_cfs);
    1b0c:	00010537          	lui	a0,0x10
    1b10:	000b8693          	mv	a3,s7
    1b14:	000b0613          	mv	a2,s6
    1b18:	000a8593          	mv	a1,s5
    1b1c:	22c50513          	add	a0,a0,556 # 1022c <__fini_array_end+0x284>
    1b20:	330000ef          	jal	1e50 <printf>
  printf("Verdict: CFU %s, CFS %s\n", ok_cfu? "PASS":"FAIL", ok_cfs? "PASS":"FAIL");
    1b24:	08040463          	beqz	s0,1bac <main+0xb20>
    1b28:	000105b7          	lui	a1,0x10
    1b2c:	03858593          	add	a1,a1,56 # 10038 <__fini_array_end+0x90>
    1b30:	08048463          	beqz	s1,1bb8 <main+0xb2c>
    1b34:	00010637          	lui	a2,0x10
    1b38:	03860613          	add	a2,a2,56 # 10038 <__fini_array_end+0x90>
    1b3c:	00010537          	lui	a0,0x10
    1b40:	25050513          	add	a0,a0,592 # 10250 <__fini_array_end+0x2a8>
    1b44:	30c000ef          	jal	1e50 <printf>
  printf("(sink=0x%08" PRIX32 ")\n", g_sink);
    1b48:	71492583          	lw	a1,1812(s2)
    1b4c:	00010537          	lui	a0,0x10
    1b50:	26c50513          	add	a0,a0,620 # 1026c <__fini_array_end+0x2c4>
    1b54:	2fc000ef          	jal	1e50 <printf>
  return (ok_cfu && ok_cfs) ? 0 : 1;
    1b58:	00947533          	and	a0,s0,s1
}
    1b5c:	0bc12083          	lw	ra,188(sp)
    1b60:	0b812403          	lw	s0,184(sp)
    1b64:	0b412483          	lw	s1,180(sp)
    1b68:	0b012903          	lw	s2,176(sp)
    1b6c:	0ac12983          	lw	s3,172(sp)
    1b70:	0a812a03          	lw	s4,168(sp)
    1b74:	0a412a83          	lw	s5,164(sp)
    1b78:	0a012b03          	lw	s6,160(sp)
    1b7c:	09c12b83          	lw	s7,156(sp)
    1b80:	09812c03          	lw	s8,152(sp)
    1b84:	09412c83          	lw	s9,148(sp)
    1b88:	09012d03          	lw	s10,144(sp)
    1b8c:	08c12d83          	lw	s11,140(sp)
    1b90:	00154513          	xor	a0,a0,1
    1b94:	0c010113          	add	sp,sp,192
    1b98:	00008067          	ret
  int ok_cfu = 1, ok_cfs = 1;
    1b9c:	00100413          	li	s0,1
    1ba0:	d11ff06f          	j	18b0 <main+0x824>
    1ba4:	00100493          	li	s1,1
    1ba8:	dd5ff06f          	j	197c <main+0x8f0>
  printf("Verdict: CFU %s, CFS %s\n", ok_cfu? "PASS":"FAIL", ok_cfs? "PASS":"FAIL");
    1bac:	000105b7          	lui	a1,0x10
    1bb0:	04058593          	add	a1,a1,64 # 10040 <__fini_array_end+0x98>
    1bb4:	f7dff06f          	j	1b30 <main+0xaa4>
    1bb8:	00010637          	lui	a2,0x10
    1bbc:	04060613          	add	a2,a2,64 # 10040 <__fini_array_end+0x98>
    1bc0:	f7dff06f          	j	1b3c <main+0xab0>

00001bc4 <_exit>:
 * Exit a program without cleaning up anything.
 **************************************************************************/
void _exit(int status) {

  // put status into register 'a0' and jump to crt0's exit code
  asm volatile (
    1bc4:	ffffe097          	auipc	ra,0xffffe
    1bc8:	59408093          	add	ra,ra,1428 # 158 <__crt0_main_exit>
    1bcc:	00050513          	mv	a0,a0
    1bd0:	00008067          	ret

00001bd4 <_close>:
  return neorv32_semihosting_close(file);
#else
  (void)file;
  return -1; // no files available
#endif
}
    1bd4:	fff00513          	li	a0,-1
    1bd8:	00008067          	ret

00001bdc <_fstat>:
 /**********************************************************************//**
 * Status of an open file. All files are regarded as character special devices.
 **************************************************************************/
int _fstat(int file, struct stat *st) {
  (void)file;
  st->st_mode = S_IFCHR;
    1bdc:	000027b7          	lui	a5,0x2
    1be0:	00f5a223          	sw	a5,4(a1)
  return 0;
}
    1be4:	00000513          	li	a0,0
    1be8:	00008067          	ret

00001bec <_getpid>:
 * Process-ID; this is sometimes used to generate strings unlikely to
 * conflict with other processes.
 **************************************************************************/
int _getpid() {
  return 1; // there is only one process by default
}
    1bec:	00100513          	li	a0,1
    1bf0:	00008067          	ret

00001bf4 <_isatty>:
  return neorv32_semihosting_istty(file);
#else
  (void)file;
  return 1; // all streams are terminals
#endif
}
    1bf4:	00100513          	li	a0,1
    1bf8:	00008067          	ret

00001bfc <_kill>:
 * Send a signal.
 **************************************************************************/
int _kill(int pid, int sig) {
  (void)pid;
  (void)sig;
  errno = EINVAL;
    1bfc:	800007b7          	lui	a5,0x80000
    1c00:	01600713          	li	a4,22
    1c04:	70e7ae23          	sw	a4,1820(a5) # 8000071c <errno>
  return -1;
}
    1c08:	fff00513          	li	a0,-1
    1c0c:	00008067          	ret

00001c10 <_lseek>:
  (void)file;
  (void)ptr;
  (void)dir;
  return 0;
#endif
}
    1c10:	00000513          	li	a0,0
    1c14:	00008067          	ret

00001c18 <_read>:

 /**********************************************************************//**
 * Read from a file. STDIN will read from UART0, all other input streams
 * will read from UART1.
 **************************************************************************/
int _read(int file, char *ptr, int len) {
    1c18:	fe010113          	add	sp,sp,-32
    1c1c:	00912a23          	sw	s1,20(sp)
    1c20:	01212823          	sw	s2,16(sp)
    1c24:	00112e23          	sw	ra,28(sp)
    1c28:	00812c23          	sw	s0,24(sp)
    1c2c:	01312623          	sw	s3,12(sp)
    1c30:	01412423          	sw	s4,8(sp)
    1c34:	00058913          	mv	s2,a1
    1c38:	00060493          	mv	s1,a2
#else
  char c = 0;
  int read_cnt = 0;

  // read STDIN stream from NEORV32.UART0 (if available)
  if ((file == STDIN_FILENO) && (neorv32_uart_available(NEORV32_UART0))) {
    1c3c:	06051463          	bnez	a0,1ca4 <_read+0x8c>
    1c40:	00050413          	mv	s0,a0
    1c44:	fff50537          	lui	a0,0xfff50
    1c48:	1a0000ef          	jal	1de8 <neorv32_uart_available>
    1c4c:	04050c63          	beqz	a0,1ca4 <_read+0x8c>
    while (len--) {
      c = (char)neorv32_uart_getc(NEORV32_UART0);
      *ptr++ = c;
      read_cnt++;
      if ((c == '\n') || (c == '\r')) { // also terminate on [press enter]
    1c50:	00a00993          	li	s3,10
    1c54:	00d00a13          	li	s4,13
    while (len--) {
    1c58:	00941663          	bne	s0,s1,1c64 <_read+0x4c>
        return read_cnt;
      }
    }
    return read_cnt;
    1c5c:	00048413          	mv	s0,s1
    1c60:	0200006f          	j	1c80 <_read+0x68>
      c = (char)neorv32_uart_getc(NEORV32_UART0);
    1c64:	fff50537          	lui	a0,0xfff50
    1c68:	1d0000ef          	jal	1e38 <neorv32_uart_getc>
      *ptr++ = c;
    1c6c:	008907b3          	add	a5,s2,s0
    1c70:	00a78023          	sb	a0,0(a5)
      read_cnt++;
    1c74:	00140413          	add	s0,s0,1
      if ((c == '\n') || (c == '\r')) { // also terminate on [press enter]
    1c78:	01350463          	beq	a0,s3,1c80 <_read+0x68>
    1c7c:	fd451ee3          	bne	a0,s4,1c58 <_read+0x40>
  else {
    errno = ENOSYS;
    return -1;
  }
#endif
}
    1c80:	01c12083          	lw	ra,28(sp)
    1c84:	00040513          	mv	a0,s0
    1c88:	01812403          	lw	s0,24(sp)
    1c8c:	01412483          	lw	s1,20(sp)
    1c90:	01012903          	lw	s2,16(sp)
    1c94:	00c12983          	lw	s3,12(sp)
    1c98:	00812a03          	lw	s4,8(sp)
    1c9c:	02010113          	add	sp,sp,32
    1ca0:	00008067          	ret
  else if (neorv32_uart_available(NEORV32_UART1)) {
    1ca4:	fff60537          	lui	a0,0xfff60
    1ca8:	140000ef          	jal	1de8 <neorv32_uart_available>
  int read_cnt = 0;
    1cac:	00000413          	li	s0,0
  else if (neorv32_uart_available(NEORV32_UART1)) {
    1cb0:	02050863          	beqz	a0,1ce0 <_read+0xc8>
      if ((c == '\n') || (c == '\r')) { // also terminate on [press enter]
    1cb4:	00a00993          	li	s3,10
    1cb8:	00d00a13          	li	s4,13
    while (len--) {
    1cbc:	fa9400e3          	beq	s0,s1,1c5c <_read+0x44>
      c = (char)neorv32_uart_getc(NEORV32_UART1);
    1cc0:	fff60537          	lui	a0,0xfff60
    1cc4:	174000ef          	jal	1e38 <neorv32_uart_getc>
      *ptr++ = c;
    1cc8:	008907b3          	add	a5,s2,s0
    1ccc:	00a78023          	sb	a0,0(a5)
      read_cnt++;
    1cd0:	00140413          	add	s0,s0,1
      if ((c == '\n') || (c == '\r')) { // also terminate on [press enter]
    1cd4:	fb3506e3          	beq	a0,s3,1c80 <_read+0x68>
    1cd8:	ff4512e3          	bne	a0,s4,1cbc <_read+0xa4>
    1cdc:	fa5ff06f          	j	1c80 <_read+0x68>
    errno = ENOSYS;
    1ce0:	800007b7          	lui	a5,0x80000
    1ce4:	05800713          	li	a4,88
    1ce8:	70e7ae23          	sw	a4,1820(a5) # 8000071c <errno>
    return -1;
    1cec:	fff00413          	li	s0,-1
    1cf0:	f91ff06f          	j	1c80 <_read+0x68>

00001cf4 <_write>:

 /**********************************************************************//**
 * Write to a file. STDOUT and STDERR will write to UART0, all other
 * output streams will write to UART1.
 **************************************************************************/
int _write(int file, char *ptr, int len) {
    1cf4:	ff010113          	add	sp,sp,-16
    1cf8:	00812423          	sw	s0,8(sp)
    1cfc:	00912223          	sw	s1,4(sp)
    1d00:	00112623          	sw	ra,12(sp)
    1d04:	01212023          	sw	s2,0(sp)
  return neorv32_semihosting_write(file, ptr, len);
#else
  int write_cnt = 0;

  // write STDOUT and STDERR streams to NEORV32.UART0 (if available)
  if ((file == STDOUT_FILENO) || (file == STDERR_FILENO)) {
    1d08:	fff50513          	add	a0,a0,-1 # fff5ffff <__crt0_ram_last+0x7fee0000>
    1d0c:	00100793          	li	a5,1
int _write(int file, char *ptr, int len) {
    1d10:	00058413          	mv	s0,a1
    1d14:	00060493          	mv	s1,a2
  if ((file == STDOUT_FILENO) || (file == STDERR_FILENO)) {
    1d18:	04a7ec63          	bltu	a5,a0,1d70 <_write+0x7c>
    if (neorv32_uart_available(NEORV32_UART0)) {
    1d1c:	fff50537          	lui	a0,0xfff50
    1d20:	0c8000ef          	jal	1de8 <neorv32_uart_available>
    1d24:	00940933          	add	s2,s0,s1
    1d28:	02051463          	bnez	a0,1d50 <_write+0x5c>
        write_cnt++;
      }
      return write_cnt;
    }
    else {
      errno = ENOSYS;
    1d2c:	800007b7          	lui	a5,0x80000
    1d30:	05800713          	li	a4,88
    1d34:	70e7ae23          	sw	a4,1820(a5) # 8000071c <errno>
      return -1;
    1d38:	fff00493          	li	s1,-1
    1d3c:	0180006f          	j	1d54 <_write+0x60>
        neorv32_uart_putc(NEORV32_UART0, *ptr++);
    1d40:	00044583          	lbu	a1,0(s0)
    1d44:	fff50537          	lui	a0,0xfff50
    1d48:	00140413          	add	s0,s0,1
    1d4c:	0d8000ef          	jal	1e24 <neorv32_uart_putc>
      while (len--) {
    1d50:	fe8918e3          	bne	s2,s0,1d40 <_write+0x4c>
  else {
    errno = ENOSYS;
    return -1;
  }
#endif
}
    1d54:	00c12083          	lw	ra,12(sp)
    1d58:	00812403          	lw	s0,8(sp)
    1d5c:	00012903          	lw	s2,0(sp)
    1d60:	00048513          	mv	a0,s1
    1d64:	00412483          	lw	s1,4(sp)
    1d68:	01010113          	add	sp,sp,16
    1d6c:	00008067          	ret
  if (neorv32_uart_available(NEORV32_UART1)) {
    1d70:	fff60537          	lui	a0,0xfff60
    1d74:	074000ef          	jal	1de8 <neorv32_uart_available>
    1d78:	00940933          	add	s2,s0,s1
    1d7c:	fa0508e3          	beqz	a0,1d2c <_write+0x38>
    while (len--) {
    1d80:	fd240ae3          	beq	s0,s2,1d54 <_write+0x60>
      neorv32_uart_putc(NEORV32_UART1, *ptr++);
    1d84:	00044583          	lbu	a1,0(s0)
    1d88:	fff60537          	lui	a0,0xfff60
    1d8c:	00140413          	add	s0,s0,1
    1d90:	094000ef          	jal	1e24 <neorv32_uart_putc>
      write_cnt++;
    1d94:	fedff06f          	j	1d80 <_write+0x8c>

00001d98 <_sbrk>:

  static unsigned char *curr_heap = NULL; // current heap pointer
  unsigned char *prev_heap; // previous heap pointer

  // initialize
  if (curr_heap == NULL) {
    1d98:	80000737          	lui	a4,0x80000
    1d9c:	71872683          	lw	a3,1816(a4) # 80000718 <curr_heap.0>
    1da0:	80069637          	lui	a2,0x80069
void *_sbrk(int incr) {
    1da4:	00050793          	mv	a5,a0
    1da8:	6b060613          	add	a2,a2,1712 # 800696b0 <__crt0_bss_end>
  if (curr_heap == NULL) {
    1dac:	00069463          	bnez	a3,1db4 <_sbrk+0x1c>
    curr_heap = (unsigned char *)NEORV32_HEAP_BEGIN;
    1db0:	70c72c23          	sw	a2,1816(a4)
  }

  // do we have a heap at all?
  if ((NEORV32_HEAP_BEGIN == NEORV32_HEAP_END) || (NEORV32_HEAP_SIZE == 0)) {
    1db4:	800696b7          	lui	a3,0x80069
    1db8:	6b068693          	add	a3,a3,1712 # 800696b0 <__crt0_bss_end>
    1dbc:	00c69c63          	bne	a3,a2,1dd4 <_sbrk+0x3c>
#ifdef NEWLIB_DEBUG
    write(STDERR_FILENO, "[neorv32-newlib] no heap available\r\n", 36);
#endif
    errno = ENOMEM;
    1dc0:	800007b7          	lui	a5,0x80000
    1dc4:	00c00713          	li	a4,12
    1dc8:	70e7ae23          	sw	a4,1820(a5) # 8000071c <errno>
    return (void*)-1; // error - no more memory
    1dcc:	fff00513          	li	a0,-1
    1dd0:	00008067          	ret
  }

  // sufficient space left?
  if ((uint32_t)(curr_heap + incr) >= NEORV32_HEAP_END) {
    1dd4:	71872503          	lw	a0,1816(a4)
    1dd8:	00f507b3          	add	a5,a0,a5
    1ddc:	fed7f2e3          	bgeu	a5,a3,1dc0 <_sbrk+0x28>
    errno = ENOMEM;
    return (void*)-1; // error - no more memory
  }

  prev_heap = curr_heap;
  curr_heap += incr;
    1de0:	70f72c23          	sw	a5,1816(a4)

  return (void*)prev_heap;
}
    1de4:	00008067          	ret

00001de8 <neorv32_uart_available>:
 * @param[in,out] Hardware handle to UART register struct, #neorv32_uart_t.
 * @return 0 if UART0/1 was not synthesized, non-zero if UART0/1 is available.
 **************************************************************************/
int neorv32_uart_available(neorv32_uart_t *UARTx) {

  if (UARTx == NEORV32_UART0) {
    1de8:	fff50737          	lui	a4,0xfff50
int neorv32_uart_available(neorv32_uart_t *UARTx) {
    1dec:	00050793          	mv	a5,a0
  if (UARTx == NEORV32_UART0) {
    1df0:	00e51c63          	bne	a0,a4,1e08 <neorv32_uart_available+0x20>
    return (int)(NEORV32_SYSINFO->SOC & (1 << SYSINFO_SOC_IO_UART0));
    1df4:	fffe07b7          	lui	a5,0xfffe0
    1df8:	0087a503          	lw	a0,8(a5) # fffe0008 <__crt0_ram_last+0x7ff60009>
    1dfc:	000207b7          	lui	a5,0x20
  }
  else if (UARTx == NEORV32_UART1) {
    return (int)(NEORV32_SYSINFO->SOC & (1 << SYSINFO_SOC_IO_UART1));
    1e00:	00f57533          	and	a0,a0,a5
  }
  else {
    return 0;
  }
}
    1e04:	00008067          	ret
  else if (UARTx == NEORV32_UART1) {
    1e08:	fff60737          	lui	a4,0xfff60
    return 0;
    1e0c:	00000513          	li	a0,0
  else if (UARTx == NEORV32_UART1) {
    1e10:	fee79ae3          	bne	a5,a4,1e04 <neorv32_uart_available+0x1c>
    return (int)(NEORV32_SYSINFO->SOC & (1 << SYSINFO_SOC_IO_UART1));
    1e14:	fffe07b7          	lui	a5,0xfffe0
    1e18:	0087a503          	lw	a0,8(a5) # fffe0008 <__crt0_ram_last+0x7ff60009>
    1e1c:	020007b7          	lui	a5,0x2000
    1e20:	fe1ff06f          	j	1e00 <neorv32_uart_available+0x18>

00001e24 <neorv32_uart_putc>:
 * @param[in,out] UARTx Hardware handle to UART register struct, #neorv32_uart_t.
 * @param[in] c Char to be send.
 **************************************************************************/
void neorv32_uart_putc(neorv32_uart_t *UARTx, char c) {

  while ((UARTx->CTRL & (1<<UART_CTRL_TX_NFULL)) == 0); // wait for free space in TX FIFO
    1e24:	00052783          	lw	a5,0(a0) # fff60000 <__crt0_ram_last+0x7fee0001>
    1e28:	00a79713          	sll	a4,a5,0xa
    1e2c:	fe075ce3          	bgez	a4,1e24 <neorv32_uart_putc>
  UARTx->DATA = (uint32_t)c << UART_DATA_RTX_LSB;
    1e30:	00b52223          	sw	a1,4(a0)
}
    1e34:	00008067          	ret

00001e38 <neorv32_uart_getc>:
 * @param[in,out] UARTx Hardware handle to UART register struct, #neorv32_uart_t.
 * @return Received char.
 **************************************************************************/
char neorv32_uart_getc(neorv32_uart_t *UARTx) {

  while ((UARTx->CTRL & (1<<UART_CTRL_RX_NEMPTY)) == 0); // wait until data available
    1e38:	00052783          	lw	a5,0(a0)
    1e3c:	00f79713          	sll	a4,a5,0xf
    1e40:	fe075ce3          	bgez	a4,1e38 <neorv32_uart_getc>
  return (char)(UARTx->DATA >> UART_DATA_RTX_LSB);
    1e44:	00452503          	lw	a0,4(a0)
}
    1e48:	0ff57513          	zext.b	a0,a0
    1e4c:	00008067          	ret

00001e50 <printf>:
    1e50:	fc010113          	add	sp,sp,-64
    1e54:	02c12423          	sw	a2,40(sp)
    1e58:	02d12623          	sw	a3,44(sp)
    1e5c:	7ffff317          	auipc	t1,0x7ffff
    1e60:	8ac32303          	lw	t1,-1876(t1) # 80000708 <_impure_ptr>
    1e64:	02b12223          	sw	a1,36(sp)
    1e68:	02e12823          	sw	a4,48(sp)
    1e6c:	02f12a23          	sw	a5,52(sp)
    1e70:	03012c23          	sw	a6,56(sp)
    1e74:	03112e23          	sw	a7,60(sp)
    1e78:	00832583          	lw	a1,8(t1)
    1e7c:	02410693          	add	a3,sp,36
    1e80:	00050613          	mv	a2,a0
    1e84:	00030513          	mv	a0,t1
    1e88:	00112e23          	sw	ra,28(sp)
    1e8c:	00d12623          	sw	a3,12(sp)
    1e90:	0c8010ef          	jal	2f58 <_vfprintf_r>
    1e94:	01c12083          	lw	ra,28(sp)
    1e98:	04010113          	add	sp,sp,64
    1e9c:	00008067          	ret

00001ea0 <putchar>:
    1ea0:	7ffff797          	auipc	a5,0x7ffff
    1ea4:	8687a783          	lw	a5,-1944(a5) # 80000708 <_impure_ptr>
    1ea8:	0087a603          	lw	a2,8(a5)
    1eac:	00050593          	mv	a1,a0
    1eb0:	00078513          	mv	a0,a5
    1eb4:	3c00606f          	j	8274 <_putc_r>

00001eb8 <_puts_r>:
    1eb8:	fd010113          	add	sp,sp,-48
    1ebc:	02812423          	sw	s0,40(sp)
    1ec0:	00050413          	mv	s0,a0
    1ec4:	00058513          	mv	a0,a1
    1ec8:	02912223          	sw	s1,36(sp)
    1ecc:	02112623          	sw	ra,44(sp)
    1ed0:	00058493          	mv	s1,a1
    1ed4:	3b0000ef          	jal	2284 <strlen>
    1ed8:	00150713          	add	a4,a0,1
    1edc:	0000e697          	auipc	a3,0xe
    1ee0:	1bc68693          	add	a3,a3,444 # 10098 <__fini_array_end+0xf0>
    1ee4:	00e12623          	sw	a4,12(sp)
    1ee8:	03442783          	lw	a5,52(s0)
    1eec:	01010713          	add	a4,sp,16
    1ef0:	00d12c23          	sw	a3,24(sp)
    1ef4:	00e12223          	sw	a4,4(sp)
    1ef8:	00100693          	li	a3,1
    1efc:	00200713          	li	a4,2
    1f00:	00912823          	sw	s1,16(sp)
    1f04:	00a12a23          	sw	a0,20(sp)
    1f08:	00d12e23          	sw	a3,28(sp)
    1f0c:	00e12423          	sw	a4,8(sp)
    1f10:	00842483          	lw	s1,8(s0)
    1f14:	0c078263          	beqz	a5,1fd8 <_puts_r+0x120>
    1f18:	0644a703          	lw	a4,100(s1)
    1f1c:	00c49783          	lh	a5,12(s1)
    1f20:	00177713          	and	a4,a4,1
    1f24:	00071663          	bnez	a4,1f30 <_puts_r+0x78>
    1f28:	2007f713          	and	a4,a5,512
    1f2c:	08070e63          	beqz	a4,1fc8 <_puts_r+0x110>
    1f30:	01279713          	sll	a4,a5,0x12
    1f34:	02074263          	bltz	a4,1f58 <_puts_r+0xa0>
    1f38:	0644a703          	lw	a4,100(s1)
    1f3c:	ffffe6b7          	lui	a3,0xffffe
    1f40:	fff68693          	add	a3,a3,-1 # ffffdfff <__crt0_ram_last+0x7ff7e000>
    1f44:	00002637          	lui	a2,0x2
    1f48:	00c7e7b3          	or	a5,a5,a2
    1f4c:	00d77733          	and	a4,a4,a3
    1f50:	00f49623          	sh	a5,12(s1)
    1f54:	06e4a223          	sw	a4,100(s1)
    1f58:	00040513          	mv	a0,s0
    1f5c:	00410613          	add	a2,sp,4
    1f60:	00048593          	mv	a1,s1
    1f64:	549050ef          	jal	7cac <__sfvwrite_r>
    1f68:	0644a783          	lw	a5,100(s1)
    1f6c:	00153413          	seqz	s0,a0
    1f70:	40800433          	neg	s0,s0
    1f74:	00b47413          	and	s0,s0,11
    1f78:	0017f793          	and	a5,a5,1
    1f7c:	fff40413          	add	s0,s0,-1
    1f80:	00079863          	bnez	a5,1f90 <_puts_r+0xd8>
    1f84:	00c4d783          	lhu	a5,12(s1)
    1f88:	2007f793          	and	a5,a5,512
    1f8c:	00078e63          	beqz	a5,1fa8 <_puts_r+0xf0>
    1f90:	02c12083          	lw	ra,44(sp)
    1f94:	00040513          	mv	a0,s0
    1f98:	02812403          	lw	s0,40(sp)
    1f9c:	02412483          	lw	s1,36(sp)
    1fa0:	03010113          	add	sp,sp,48
    1fa4:	00008067          	ret
    1fa8:	0584a503          	lw	a0,88(s1)
    1fac:	054000ef          	jal	2000 <__retarget_lock_release_recursive>
    1fb0:	02c12083          	lw	ra,44(sp)
    1fb4:	00040513          	mv	a0,s0
    1fb8:	02812403          	lw	s0,40(sp)
    1fbc:	02412483          	lw	s1,36(sp)
    1fc0:	03010113          	add	sp,sp,48
    1fc4:	00008067          	ret
    1fc8:	0584a503          	lw	a0,88(s1)
    1fcc:	030000ef          	jal	1ffc <__retarget_lock_acquire_recursive>
    1fd0:	00c49783          	lh	a5,12(s1)
    1fd4:	f5dff06f          	j	1f30 <_puts_r+0x78>
    1fd8:	00040513          	mv	a0,s0
    1fdc:	449050ef          	jal	7c24 <__sinit>
    1fe0:	f39ff06f          	j	1f18 <_puts_r+0x60>

00001fe4 <puts>:
    1fe4:	00050593          	mv	a1,a0
    1fe8:	7fffe517          	auipc	a0,0x7fffe
    1fec:	72052503          	lw	a0,1824(a0) # 80000708 <_impure_ptr>
    1ff0:	ec9ff06f          	j	1eb8 <_puts_r>

00001ff4 <__retarget_lock_init_recursive>:
    1ff4:	00008067          	ret

00001ff8 <__retarget_lock_close_recursive>:
    1ff8:	00008067          	ret

00001ffc <__retarget_lock_acquire_recursive>:
    1ffc:	00008067          	ret

00002000 <__retarget_lock_release_recursive>:
    2000:	00008067          	ret

00002004 <memset>:
    2004:	00f00313          	li	t1,15
    2008:	00050713          	mv	a4,a0
    200c:	02c37e63          	bgeu	t1,a2,2048 <memset+0x44>
    2010:	00f77793          	and	a5,a4,15
    2014:	0a079063          	bnez	a5,20b4 <memset+0xb0>
    2018:	08059263          	bnez	a1,209c <memset+0x98>
    201c:	ff067693          	and	a3,a2,-16
    2020:	00f67613          	and	a2,a2,15
    2024:	00e686b3          	add	a3,a3,a4
    2028:	00b72023          	sw	a1,0(a4) # fff60000 <__crt0_ram_last+0x7fee0001>
    202c:	00b72223          	sw	a1,4(a4)
    2030:	00b72423          	sw	a1,8(a4)
    2034:	00b72623          	sw	a1,12(a4)
    2038:	01070713          	add	a4,a4,16
    203c:	fed766e3          	bltu	a4,a3,2028 <memset+0x24>
    2040:	00061463          	bnez	a2,2048 <memset+0x44>
    2044:	00008067          	ret
    2048:	40c306b3          	sub	a3,t1,a2
    204c:	00269693          	sll	a3,a3,0x2
    2050:	00000297          	auipc	t0,0x0
    2054:	005686b3          	add	a3,a3,t0
    2058:	00c68067          	jr	12(a3)
    205c:	00b70723          	sb	a1,14(a4)
    2060:	00b706a3          	sb	a1,13(a4)
    2064:	00b70623          	sb	a1,12(a4)
    2068:	00b705a3          	sb	a1,11(a4)
    206c:	00b70523          	sb	a1,10(a4)
    2070:	00b704a3          	sb	a1,9(a4)
    2074:	00b70423          	sb	a1,8(a4)
    2078:	00b703a3          	sb	a1,7(a4)
    207c:	00b70323          	sb	a1,6(a4)
    2080:	00b702a3          	sb	a1,5(a4)
    2084:	00b70223          	sb	a1,4(a4)
    2088:	00b701a3          	sb	a1,3(a4)
    208c:	00b70123          	sb	a1,2(a4)
    2090:	00b700a3          	sb	a1,1(a4)
    2094:	00b70023          	sb	a1,0(a4)
    2098:	00008067          	ret
    209c:	0ff5f593          	zext.b	a1,a1
    20a0:	00859693          	sll	a3,a1,0x8
    20a4:	00d5e5b3          	or	a1,a1,a3
    20a8:	01059693          	sll	a3,a1,0x10
    20ac:	00d5e5b3          	or	a1,a1,a3
    20b0:	f6dff06f          	j	201c <memset+0x18>
    20b4:	00279693          	sll	a3,a5,0x2
    20b8:	00000297          	auipc	t0,0x0
    20bc:	005686b3          	add	a3,a3,t0
    20c0:	00008293          	mv	t0,ra
    20c4:	fa0680e7          	jalr	-96(a3)
    20c8:	00028093          	mv	ra,t0
    20cc:	ff078793          	add	a5,a5,-16
    20d0:	40f70733          	sub	a4,a4,a5
    20d4:	00f60633          	add	a2,a2,a5
    20d8:	f6c378e3          	bgeu	t1,a2,2048 <memset+0x44>
    20dc:	f3dff06f          	j	2018 <memset+0x14>

000020e0 <memcpy>:
    20e0:	00a5c7b3          	xor	a5,a1,a0
    20e4:	0037f793          	and	a5,a5,3
    20e8:	00c508b3          	add	a7,a0,a2
    20ec:	06079463          	bnez	a5,2154 <memcpy+0x74>
    20f0:	00300793          	li	a5,3
    20f4:	06c7f063          	bgeu	a5,a2,2154 <memcpy+0x74>
    20f8:	00357793          	and	a5,a0,3
    20fc:	00050713          	mv	a4,a0
    2100:	06079a63          	bnez	a5,2174 <memcpy+0x94>
    2104:	ffc8f613          	and	a2,a7,-4
    2108:	40e606b3          	sub	a3,a2,a4
    210c:	02000793          	li	a5,32
    2110:	08d7ce63          	blt	a5,a3,21ac <memcpy+0xcc>
    2114:	00058693          	mv	a3,a1
    2118:	00070793          	mv	a5,a4
    211c:	02c77863          	bgeu	a4,a2,214c <memcpy+0x6c>
    2120:	0006a803          	lw	a6,0(a3)
    2124:	00478793          	add	a5,a5,4
    2128:	00468693          	add	a3,a3,4
    212c:	ff07ae23          	sw	a6,-4(a5)
    2130:	fec7e8e3          	bltu	a5,a2,2120 <memcpy+0x40>
    2134:	fff60793          	add	a5,a2,-1 # 1fff <__retarget_lock_acquire_recursive+0x3>
    2138:	40e787b3          	sub	a5,a5,a4
    213c:	ffc7f793          	and	a5,a5,-4
    2140:	00478793          	add	a5,a5,4
    2144:	00f70733          	add	a4,a4,a5
    2148:	00f585b3          	add	a1,a1,a5
    214c:	01176863          	bltu	a4,a7,215c <memcpy+0x7c>
    2150:	00008067          	ret
    2154:	00050713          	mv	a4,a0
    2158:	05157863          	bgeu	a0,a7,21a8 <memcpy+0xc8>
    215c:	0005c783          	lbu	a5,0(a1)
    2160:	00170713          	add	a4,a4,1
    2164:	00158593          	add	a1,a1,1
    2168:	fef70fa3          	sb	a5,-1(a4)
    216c:	fee898e3          	bne	a7,a4,215c <memcpy+0x7c>
    2170:	00008067          	ret
    2174:	0005c683          	lbu	a3,0(a1)
    2178:	00170713          	add	a4,a4,1
    217c:	00377793          	and	a5,a4,3
    2180:	fed70fa3          	sb	a3,-1(a4)
    2184:	00158593          	add	a1,a1,1
    2188:	f6078ee3          	beqz	a5,2104 <memcpy+0x24>
    218c:	0005c683          	lbu	a3,0(a1)
    2190:	00170713          	add	a4,a4,1
    2194:	00377793          	and	a5,a4,3
    2198:	fed70fa3          	sb	a3,-1(a4)
    219c:	00158593          	add	a1,a1,1
    21a0:	fc079ae3          	bnez	a5,2174 <memcpy+0x94>
    21a4:	f61ff06f          	j	2104 <memcpy+0x24>
    21a8:	00008067          	ret
    21ac:	ff010113          	add	sp,sp,-16
    21b0:	00812623          	sw	s0,12(sp)
    21b4:	02000413          	li	s0,32
    21b8:	0005a383          	lw	t2,0(a1)
    21bc:	0045a283          	lw	t0,4(a1)
    21c0:	0085af83          	lw	t6,8(a1)
    21c4:	00c5af03          	lw	t5,12(a1)
    21c8:	0105ae83          	lw	t4,16(a1)
    21cc:	0145ae03          	lw	t3,20(a1)
    21d0:	0185a303          	lw	t1,24(a1)
    21d4:	01c5a803          	lw	a6,28(a1)
    21d8:	0205a683          	lw	a3,32(a1)
    21dc:	02470713          	add	a4,a4,36
    21e0:	40e607b3          	sub	a5,a2,a4
    21e4:	fc772e23          	sw	t2,-36(a4)
    21e8:	fe572023          	sw	t0,-32(a4)
    21ec:	fff72223          	sw	t6,-28(a4)
    21f0:	ffe72423          	sw	t5,-24(a4)
    21f4:	ffd72623          	sw	t4,-20(a4)
    21f8:	ffc72823          	sw	t3,-16(a4)
    21fc:	fe672a23          	sw	t1,-12(a4)
    2200:	ff072c23          	sw	a6,-8(a4)
    2204:	fed72e23          	sw	a3,-4(a4)
    2208:	02458593          	add	a1,a1,36
    220c:	faf446e3          	blt	s0,a5,21b8 <memcpy+0xd8>
    2210:	00058693          	mv	a3,a1
    2214:	00070793          	mv	a5,a4
    2218:	02c77863          	bgeu	a4,a2,2248 <memcpy+0x168>
    221c:	0006a803          	lw	a6,0(a3)
    2220:	00478793          	add	a5,a5,4
    2224:	00468693          	add	a3,a3,4
    2228:	ff07ae23          	sw	a6,-4(a5)
    222c:	fec7e8e3          	bltu	a5,a2,221c <memcpy+0x13c>
    2230:	fff60793          	add	a5,a2,-1
    2234:	40e787b3          	sub	a5,a5,a4
    2238:	ffc7f793          	and	a5,a5,-4
    223c:	00478793          	add	a5,a5,4
    2240:	00f70733          	add	a4,a4,a5
    2244:	00f585b3          	add	a1,a1,a5
    2248:	01176863          	bltu	a4,a7,2258 <memcpy+0x178>
    224c:	00c12403          	lw	s0,12(sp)
    2250:	01010113          	add	sp,sp,16
    2254:	00008067          	ret
    2258:	0005c783          	lbu	a5,0(a1)
    225c:	00170713          	add	a4,a4,1
    2260:	00158593          	add	a1,a1,1
    2264:	fef70fa3          	sb	a5,-1(a4)
    2268:	fee882e3          	beq	a7,a4,224c <memcpy+0x16c>
    226c:	0005c783          	lbu	a5,0(a1)
    2270:	00170713          	add	a4,a4,1
    2274:	00158593          	add	a1,a1,1
    2278:	fef70fa3          	sb	a5,-1(a4)
    227c:	fce89ee3          	bne	a7,a4,2258 <memcpy+0x178>
    2280:	fcdff06f          	j	224c <memcpy+0x16c>

00002284 <strlen>:
    2284:	00357793          	and	a5,a0,3
    2288:	00050713          	mv	a4,a0
    228c:	04079c63          	bnez	a5,22e4 <strlen+0x60>
    2290:	7f7f86b7          	lui	a3,0x7f7f8
    2294:	f7f68693          	add	a3,a3,-129 # 7f7f7f7f <__neorv32_ram_size+0x7f777f7f>
    2298:	fff00593          	li	a1,-1
    229c:	00072603          	lw	a2,0(a4)
    22a0:	00470713          	add	a4,a4,4
    22a4:	00d677b3          	and	a5,a2,a3
    22a8:	00d787b3          	add	a5,a5,a3
    22ac:	00c7e7b3          	or	a5,a5,a2
    22b0:	00d7e7b3          	or	a5,a5,a3
    22b4:	feb784e3          	beq	a5,a1,229c <strlen+0x18>
    22b8:	ffc74683          	lbu	a3,-4(a4)
    22bc:	40a707b3          	sub	a5,a4,a0
    22c0:	04068463          	beqz	a3,2308 <strlen+0x84>
    22c4:	ffd74683          	lbu	a3,-3(a4)
    22c8:	02068c63          	beqz	a3,2300 <strlen+0x7c>
    22cc:	ffe74503          	lbu	a0,-2(a4)
    22d0:	00a03533          	snez	a0,a0
    22d4:	00f50533          	add	a0,a0,a5
    22d8:	ffe50513          	add	a0,a0,-2
    22dc:	00008067          	ret
    22e0:	fa0688e3          	beqz	a3,2290 <strlen+0xc>
    22e4:	00074783          	lbu	a5,0(a4)
    22e8:	00170713          	add	a4,a4,1
    22ec:	00377693          	and	a3,a4,3
    22f0:	fe0798e3          	bnez	a5,22e0 <strlen+0x5c>
    22f4:	40a70733          	sub	a4,a4,a0
    22f8:	fff70513          	add	a0,a4,-1
    22fc:	00008067          	ret
    2300:	ffd78513          	add	a0,a5,-3
    2304:	00008067          	ret
    2308:	ffc78513          	add	a0,a5,-4
    230c:	00008067          	ret

00002310 <_malloc_trim_r>:
    2310:	fe010113          	add	sp,sp,-32
    2314:	00812c23          	sw	s0,24(sp)
    2318:	00912a23          	sw	s1,20(sp)
    231c:	01212823          	sw	s2,16(sp)
    2320:	01312623          	sw	s3,12(sp)
    2324:	01412423          	sw	s4,8(sp)
    2328:	00058993          	mv	s3,a1
    232c:	00112e23          	sw	ra,28(sp)
    2330:	00050913          	mv	s2,a0
    2334:	7fffea17          	auipc	s4,0x7fffe
    2338:	deca0a13          	add	s4,s4,-532 # 80000120 <__malloc_av_>
    233c:	405000ef          	jal	2f40 <__malloc_lock>
    2340:	008a2703          	lw	a4,8(s4)
    2344:	000017b7          	lui	a5,0x1
    2348:	fef78793          	add	a5,a5,-17 # fef <dump_first_mismatch.isra.0+0xaf>
    234c:	00472483          	lw	s1,4(a4)
    2350:	00001737          	lui	a4,0x1
    2354:	ffc4f493          	and	s1,s1,-4
    2358:	00f48433          	add	s0,s1,a5
    235c:	41340433          	sub	s0,s0,s3
    2360:	00c45413          	srl	s0,s0,0xc
    2364:	fff40413          	add	s0,s0,-1
    2368:	00c41413          	sll	s0,s0,0xc
    236c:	00e44e63          	blt	s0,a4,2388 <_malloc_trim_r+0x78>
    2370:	00000593          	li	a1,0
    2374:	00090513          	mv	a0,s2
    2378:	105060ef          	jal	8c7c <_sbrk_r>
    237c:	008a2783          	lw	a5,8(s4)
    2380:	009787b3          	add	a5,a5,s1
    2384:	02f50863          	beq	a0,a5,23b4 <_malloc_trim_r+0xa4>
    2388:	00090513          	mv	a0,s2
    238c:	3c1000ef          	jal	2f4c <__malloc_unlock>
    2390:	01c12083          	lw	ra,28(sp)
    2394:	01812403          	lw	s0,24(sp)
    2398:	01412483          	lw	s1,20(sp)
    239c:	01012903          	lw	s2,16(sp)
    23a0:	00c12983          	lw	s3,12(sp)
    23a4:	00812a03          	lw	s4,8(sp)
    23a8:	00000513          	li	a0,0
    23ac:	02010113          	add	sp,sp,32
    23b0:	00008067          	ret
    23b4:	408005b3          	neg	a1,s0
    23b8:	00090513          	mv	a0,s2
    23bc:	0c1060ef          	jal	8c7c <_sbrk_r>
    23c0:	fff00793          	li	a5,-1
    23c4:	04f50a63          	beq	a0,a5,2418 <_malloc_trim_r+0x108>
    23c8:	80067717          	auipc	a4,0x80067
    23cc:	18870713          	add	a4,a4,392 # 80069550 <__malloc_current_mallinfo>
    23d0:	00072783          	lw	a5,0(a4)
    23d4:	008a2683          	lw	a3,8(s4)
    23d8:	408484b3          	sub	s1,s1,s0
    23dc:	0014e493          	or	s1,s1,1
    23e0:	408787b3          	sub	a5,a5,s0
    23e4:	00090513          	mv	a0,s2
    23e8:	0096a223          	sw	s1,4(a3)
    23ec:	00f72023          	sw	a5,0(a4)
    23f0:	35d000ef          	jal	2f4c <__malloc_unlock>
    23f4:	01c12083          	lw	ra,28(sp)
    23f8:	01812403          	lw	s0,24(sp)
    23fc:	01412483          	lw	s1,20(sp)
    2400:	01012903          	lw	s2,16(sp)
    2404:	00c12983          	lw	s3,12(sp)
    2408:	00812a03          	lw	s4,8(sp)
    240c:	00100513          	li	a0,1
    2410:	02010113          	add	sp,sp,32
    2414:	00008067          	ret
    2418:	00000593          	li	a1,0
    241c:	00090513          	mv	a0,s2
    2420:	05d060ef          	jal	8c7c <_sbrk_r>
    2424:	008a2703          	lw	a4,8(s4)
    2428:	00f00693          	li	a3,15
    242c:	40e507b3          	sub	a5,a0,a4
    2430:	f4f6dce3          	bge	a3,a5,2388 <_malloc_trim_r+0x78>
    2434:	7fffe697          	auipc	a3,0x7fffe
    2438:	2d86a683          	lw	a3,728(a3) # 8000070c <__malloc_sbrk_base>
    243c:	40d50533          	sub	a0,a0,a3
    2440:	0017e793          	or	a5,a5,1
    2444:	80067697          	auipc	a3,0x80067
    2448:	10a6a623          	sw	a0,268(a3) # 80069550 <__malloc_current_mallinfo>
    244c:	00f72223          	sw	a5,4(a4)
    2450:	f39ff06f          	j	2388 <_malloc_trim_r+0x78>

00002454 <_free_r>:
    2454:	18058263          	beqz	a1,25d8 <_free_r+0x184>
    2458:	ff010113          	add	sp,sp,-16
    245c:	00812423          	sw	s0,8(sp)
    2460:	00912223          	sw	s1,4(sp)
    2464:	00058413          	mv	s0,a1
    2468:	00050493          	mv	s1,a0
    246c:	00112623          	sw	ra,12(sp)
    2470:	2d1000ef          	jal	2f40 <__malloc_lock>
    2474:	ffc42583          	lw	a1,-4(s0)
    2478:	ff840713          	add	a4,s0,-8
    247c:	7fffe517          	auipc	a0,0x7fffe
    2480:	ca450513          	add	a0,a0,-860 # 80000120 <__malloc_av_>
    2484:	ffe5f793          	and	a5,a1,-2
    2488:	00f70633          	add	a2,a4,a5
    248c:	00462683          	lw	a3,4(a2)
    2490:	00852803          	lw	a6,8(a0)
    2494:	ffc6f693          	and	a3,a3,-4
    2498:	1ac80263          	beq	a6,a2,263c <_free_r+0x1e8>
    249c:	00d62223          	sw	a3,4(a2)
    24a0:	0015f593          	and	a1,a1,1
    24a4:	00d60833          	add	a6,a2,a3
    24a8:	0a059063          	bnez	a1,2548 <_free_r+0xf4>
    24ac:	ff842303          	lw	t1,-8(s0)
    24b0:	00482583          	lw	a1,4(a6) # 1004 <dump_first_mismatch.isra.0+0xc4>
    24b4:	7fffe897          	auipc	a7,0x7fffe
    24b8:	c7488893          	add	a7,a7,-908 # 80000128 <__malloc_av_+0x8>
    24bc:	40670733          	sub	a4,a4,t1
    24c0:	00872803          	lw	a6,8(a4)
    24c4:	006787b3          	add	a5,a5,t1
    24c8:	0015f593          	and	a1,a1,1
    24cc:	15180263          	beq	a6,a7,2610 <_free_r+0x1bc>
    24d0:	00c72303          	lw	t1,12(a4)
    24d4:	00682623          	sw	t1,12(a6)
    24d8:	01032423          	sw	a6,8(t1)
    24dc:	1a058a63          	beqz	a1,2690 <_free_r+0x23c>
    24e0:	0017e693          	or	a3,a5,1
    24e4:	00d72223          	sw	a3,4(a4)
    24e8:	00f62023          	sw	a5,0(a2)
    24ec:	1ff00693          	li	a3,511
    24f0:	06f6ec63          	bltu	a3,a5,2568 <_free_r+0x114>
    24f4:	ff87f693          	and	a3,a5,-8
    24f8:	00868693          	add	a3,a3,8
    24fc:	00452583          	lw	a1,4(a0)
    2500:	00d506b3          	add	a3,a0,a3
    2504:	0006a603          	lw	a2,0(a3)
    2508:	0057d813          	srl	a6,a5,0x5
    250c:	00100793          	li	a5,1
    2510:	010797b3          	sll	a5,a5,a6
    2514:	00b7e7b3          	or	a5,a5,a1
    2518:	ff868593          	add	a1,a3,-8
    251c:	00b72623          	sw	a1,12(a4)
    2520:	00c72423          	sw	a2,8(a4)
    2524:	00f52223          	sw	a5,4(a0)
    2528:	00e6a023          	sw	a4,0(a3)
    252c:	00e62623          	sw	a4,12(a2)
    2530:	00812403          	lw	s0,8(sp)
    2534:	00c12083          	lw	ra,12(sp)
    2538:	00048513          	mv	a0,s1
    253c:	00412483          	lw	s1,4(sp)
    2540:	01010113          	add	sp,sp,16
    2544:	2090006f          	j	2f4c <__malloc_unlock>
    2548:	00482583          	lw	a1,4(a6)
    254c:	0015f593          	and	a1,a1,1
    2550:	08058663          	beqz	a1,25dc <_free_r+0x188>
    2554:	0017e693          	or	a3,a5,1
    2558:	fed42e23          	sw	a3,-4(s0)
    255c:	00f62023          	sw	a5,0(a2)
    2560:	1ff00693          	li	a3,511
    2564:	f8f6f8e3          	bgeu	a3,a5,24f4 <_free_r+0xa0>
    2568:	0097d693          	srl	a3,a5,0x9
    256c:	00400613          	li	a2,4
    2570:	12d66463          	bltu	a2,a3,2698 <_free_r+0x244>
    2574:	0067d693          	srl	a3,a5,0x6
    2578:	03968593          	add	a1,a3,57
    257c:	03868613          	add	a2,a3,56
    2580:	00359593          	sll	a1,a1,0x3
    2584:	00b505b3          	add	a1,a0,a1
    2588:	0005a683          	lw	a3,0(a1)
    258c:	ff858593          	add	a1,a1,-8
    2590:	00d59863          	bne	a1,a3,25a0 <_free_r+0x14c>
    2594:	15c0006f          	j	26f0 <_free_r+0x29c>
    2598:	0086a683          	lw	a3,8(a3)
    259c:	00d58863          	beq	a1,a3,25ac <_free_r+0x158>
    25a0:	0046a603          	lw	a2,4(a3)
    25a4:	ffc67613          	and	a2,a2,-4
    25a8:	fec7e8e3          	bltu	a5,a2,2598 <_free_r+0x144>
    25ac:	00c6a583          	lw	a1,12(a3)
    25b0:	00b72623          	sw	a1,12(a4)
    25b4:	00d72423          	sw	a3,8(a4)
    25b8:	00812403          	lw	s0,8(sp)
    25bc:	00c12083          	lw	ra,12(sp)
    25c0:	00e5a423          	sw	a4,8(a1)
    25c4:	00048513          	mv	a0,s1
    25c8:	00412483          	lw	s1,4(sp)
    25cc:	00e6a623          	sw	a4,12(a3)
    25d0:	01010113          	add	sp,sp,16
    25d4:	1790006f          	j	2f4c <__malloc_unlock>
    25d8:	00008067          	ret
    25dc:	00d787b3          	add	a5,a5,a3
    25e0:	7fffe897          	auipc	a7,0x7fffe
    25e4:	b4888893          	add	a7,a7,-1208 # 80000128 <__malloc_av_+0x8>
    25e8:	00862683          	lw	a3,8(a2)
    25ec:	0f168063          	beq	a3,a7,26cc <_free_r+0x278>
    25f0:	00c62803          	lw	a6,12(a2)
    25f4:	0017e593          	or	a1,a5,1
    25f8:	00f70633          	add	a2,a4,a5
    25fc:	0106a623          	sw	a6,12(a3)
    2600:	00d82423          	sw	a3,8(a6)
    2604:	00b72223          	sw	a1,4(a4)
    2608:	00f62023          	sw	a5,0(a2)
    260c:	ee1ff06f          	j	24ec <_free_r+0x98>
    2610:	14059063          	bnez	a1,2750 <_free_r+0x2fc>
    2614:	00862583          	lw	a1,8(a2)
    2618:	00c62603          	lw	a2,12(a2)
    261c:	00f686b3          	add	a3,a3,a5
    2620:	0016e793          	or	a5,a3,1
    2624:	00c5a623          	sw	a2,12(a1)
    2628:	00b62423          	sw	a1,8(a2)
    262c:	00f72223          	sw	a5,4(a4)
    2630:	00d70733          	add	a4,a4,a3
    2634:	00d72023          	sw	a3,0(a4)
    2638:	ef9ff06f          	j	2530 <_free_r+0xdc>
    263c:	0015f593          	and	a1,a1,1
    2640:	00d786b3          	add	a3,a5,a3
    2644:	02059063          	bnez	a1,2664 <_free_r+0x210>
    2648:	ff842583          	lw	a1,-8(s0)
    264c:	40b70733          	sub	a4,a4,a1
    2650:	00c72783          	lw	a5,12(a4)
    2654:	00872603          	lw	a2,8(a4)
    2658:	00b686b3          	add	a3,a3,a1
    265c:	00f62623          	sw	a5,12(a2)
    2660:	00c7a423          	sw	a2,8(a5)
    2664:	0016e793          	or	a5,a3,1
    2668:	00f72223          	sw	a5,4(a4)
    266c:	00e52423          	sw	a4,8(a0)
    2670:	7fffe797          	auipc	a5,0x7fffe
    2674:	0a07a783          	lw	a5,160(a5) # 80000710 <__malloc_trim_threshold>
    2678:	eaf6ece3          	bltu	a3,a5,2530 <_free_r+0xdc>
    267c:	7fffe597          	auipc	a1,0x7fffe
    2680:	0b45a583          	lw	a1,180(a1) # 80000730 <__malloc_top_pad>
    2684:	00048513          	mv	a0,s1
    2688:	c89ff0ef          	jal	2310 <_malloc_trim_r>
    268c:	ea5ff06f          	j	2530 <_free_r+0xdc>
    2690:	00d787b3          	add	a5,a5,a3
    2694:	f55ff06f          	j	25e8 <_free_r+0x194>
    2698:	01400613          	li	a2,20
    269c:	02d67063          	bgeu	a2,a3,26bc <_free_r+0x268>
    26a0:	05400613          	li	a2,84
    26a4:	06d66463          	bltu	a2,a3,270c <_free_r+0x2b8>
    26a8:	00c7d693          	srl	a3,a5,0xc
    26ac:	06f68593          	add	a1,a3,111
    26b0:	06e68613          	add	a2,a3,110
    26b4:	00359593          	sll	a1,a1,0x3
    26b8:	ecdff06f          	j	2584 <_free_r+0x130>
    26bc:	05c68593          	add	a1,a3,92
    26c0:	05b68613          	add	a2,a3,91
    26c4:	00359593          	sll	a1,a1,0x3
    26c8:	ebdff06f          	j	2584 <_free_r+0x130>
    26cc:	00e52a23          	sw	a4,20(a0)
    26d0:	00e52823          	sw	a4,16(a0)
    26d4:	0017e693          	or	a3,a5,1
    26d8:	01172623          	sw	a7,12(a4)
    26dc:	01172423          	sw	a7,8(a4)
    26e0:	00d72223          	sw	a3,4(a4)
    26e4:	00f70733          	add	a4,a4,a5
    26e8:	00f72023          	sw	a5,0(a4)
    26ec:	e45ff06f          	j	2530 <_free_r+0xdc>
    26f0:	00452803          	lw	a6,4(a0)
    26f4:	40265613          	sra	a2,a2,0x2
    26f8:	00100793          	li	a5,1
    26fc:	00c797b3          	sll	a5,a5,a2
    2700:	0107e7b3          	or	a5,a5,a6
    2704:	00f52223          	sw	a5,4(a0)
    2708:	ea9ff06f          	j	25b0 <_free_r+0x15c>
    270c:	15400613          	li	a2,340
    2710:	00d66c63          	bltu	a2,a3,2728 <_free_r+0x2d4>
    2714:	00f7d693          	srl	a3,a5,0xf
    2718:	07868593          	add	a1,a3,120
    271c:	07768613          	add	a2,a3,119
    2720:	00359593          	sll	a1,a1,0x3
    2724:	e61ff06f          	j	2584 <_free_r+0x130>
    2728:	55400613          	li	a2,1364
    272c:	00d66c63          	bltu	a2,a3,2744 <_free_r+0x2f0>
    2730:	0127d693          	srl	a3,a5,0x12
    2734:	07d68593          	add	a1,a3,125
    2738:	07c68613          	add	a2,a3,124
    273c:	00359593          	sll	a1,a1,0x3
    2740:	e45ff06f          	j	2584 <_free_r+0x130>
    2744:	3f800593          	li	a1,1016
    2748:	07e00613          	li	a2,126
    274c:	e39ff06f          	j	2584 <_free_r+0x130>
    2750:	0017e693          	or	a3,a5,1
    2754:	00d72223          	sw	a3,4(a4)
    2758:	00f62023          	sw	a5,0(a2)
    275c:	dd5ff06f          	j	2530 <_free_r+0xdc>

00002760 <_malloc_r>:
    2760:	fd010113          	add	sp,sp,-48
    2764:	03212023          	sw	s2,32(sp)
    2768:	02112623          	sw	ra,44(sp)
    276c:	02812423          	sw	s0,40(sp)
    2770:	02912223          	sw	s1,36(sp)
    2774:	01312e23          	sw	s3,28(sp)
    2778:	00b58793          	add	a5,a1,11
    277c:	01600713          	li	a4,22
    2780:	00050913          	mv	s2,a0
    2784:	08f76263          	bltu	a4,a5,2808 <_malloc_r+0xa8>
    2788:	01000793          	li	a5,16
    278c:	20b7e663          	bltu	a5,a1,2998 <_malloc_r+0x238>
    2790:	7b0000ef          	jal	2f40 <__malloc_lock>
    2794:	01800793          	li	a5,24
    2798:	00200593          	li	a1,2
    279c:	01000493          	li	s1,16
    27a0:	7fffe997          	auipc	s3,0x7fffe
    27a4:	98098993          	add	s3,s3,-1664 # 80000120 <__malloc_av_>
    27a8:	00f987b3          	add	a5,s3,a5
    27ac:	0047a403          	lw	s0,4(a5)
    27b0:	ff878713          	add	a4,a5,-8
    27b4:	36e40463          	beq	s0,a4,2b1c <_malloc_r+0x3bc>
    27b8:	00442783          	lw	a5,4(s0)
    27bc:	00c42683          	lw	a3,12(s0)
    27c0:	00842603          	lw	a2,8(s0)
    27c4:	ffc7f793          	and	a5,a5,-4
    27c8:	00f407b3          	add	a5,s0,a5
    27cc:	0047a703          	lw	a4,4(a5)
    27d0:	00d62623          	sw	a3,12(a2)
    27d4:	00c6a423          	sw	a2,8(a3)
    27d8:	00176713          	or	a4,a4,1
    27dc:	00090513          	mv	a0,s2
    27e0:	00e7a223          	sw	a4,4(a5)
    27e4:	768000ef          	jal	2f4c <__malloc_unlock>
    27e8:	00840513          	add	a0,s0,8
    27ec:	02c12083          	lw	ra,44(sp)
    27f0:	02812403          	lw	s0,40(sp)
    27f4:	02412483          	lw	s1,36(sp)
    27f8:	02012903          	lw	s2,32(sp)
    27fc:	01c12983          	lw	s3,28(sp)
    2800:	03010113          	add	sp,sp,48
    2804:	00008067          	ret
    2808:	ff87f493          	and	s1,a5,-8
    280c:	1807c663          	bltz	a5,2998 <_malloc_r+0x238>
    2810:	18b4e463          	bltu	s1,a1,2998 <_malloc_r+0x238>
    2814:	72c000ef          	jal	2f40 <__malloc_lock>
    2818:	1f700793          	li	a5,503
    281c:	4097fa63          	bgeu	a5,s1,2c30 <_malloc_r+0x4d0>
    2820:	0094d793          	srl	a5,s1,0x9
    2824:	18078263          	beqz	a5,29a8 <_malloc_r+0x248>
    2828:	00400713          	li	a4,4
    282c:	36f76063          	bltu	a4,a5,2b8c <_malloc_r+0x42c>
    2830:	0064d793          	srl	a5,s1,0x6
    2834:	03978593          	add	a1,a5,57
    2838:	03878813          	add	a6,a5,56
    283c:	00359613          	sll	a2,a1,0x3
    2840:	7fffe997          	auipc	s3,0x7fffe
    2844:	8e098993          	add	s3,s3,-1824 # 80000120 <__malloc_av_>
    2848:	00c98633          	add	a2,s3,a2
    284c:	00462403          	lw	s0,4(a2)
    2850:	ff860613          	add	a2,a2,-8
    2854:	02860863          	beq	a2,s0,2884 <_malloc_r+0x124>
    2858:	00f00513          	li	a0,15
    285c:	0140006f          	j	2870 <_malloc_r+0x110>
    2860:	00c42683          	lw	a3,12(s0)
    2864:	2a075863          	bgez	a4,2b14 <_malloc_r+0x3b4>
    2868:	00d60e63          	beq	a2,a3,2884 <_malloc_r+0x124>
    286c:	00068413          	mv	s0,a3
    2870:	00442783          	lw	a5,4(s0)
    2874:	ffc7f793          	and	a5,a5,-4
    2878:	40978733          	sub	a4,a5,s1
    287c:	fee552e3          	bge	a0,a4,2860 <_malloc_r+0x100>
    2880:	00080593          	mv	a1,a6
    2884:	0109a403          	lw	s0,16(s3)
    2888:	7fffe897          	auipc	a7,0x7fffe
    288c:	8a088893          	add	a7,a7,-1888 # 80000128 <__malloc_av_+0x8>
    2890:	27140e63          	beq	s0,a7,2b0c <_malloc_r+0x3ac>
    2894:	00442783          	lw	a5,4(s0)
    2898:	00f00693          	li	a3,15
    289c:	ffc7f793          	and	a5,a5,-4
    28a0:	40978733          	sub	a4,a5,s1
    28a4:	38e6cc63          	blt	a3,a4,2c3c <_malloc_r+0x4dc>
    28a8:	0119aa23          	sw	a7,20(s3)
    28ac:	0119a823          	sw	a7,16(s3)
    28b0:	36075063          	bgez	a4,2c10 <_malloc_r+0x4b0>
    28b4:	1ff00713          	li	a4,511
    28b8:	0049a503          	lw	a0,4(s3)
    28bc:	26f76863          	bltu	a4,a5,2b2c <_malloc_r+0x3cc>
    28c0:	ff87f713          	and	a4,a5,-8
    28c4:	00870713          	add	a4,a4,8
    28c8:	00e98733          	add	a4,s3,a4
    28cc:	00072683          	lw	a3,0(a4)
    28d0:	0057d613          	srl	a2,a5,0x5
    28d4:	00100793          	li	a5,1
    28d8:	00c797b3          	sll	a5,a5,a2
    28dc:	00f56533          	or	a0,a0,a5
    28e0:	ff870793          	add	a5,a4,-8
    28e4:	00f42623          	sw	a5,12(s0)
    28e8:	00d42423          	sw	a3,8(s0)
    28ec:	00a9a223          	sw	a0,4(s3)
    28f0:	00872023          	sw	s0,0(a4)
    28f4:	0086a623          	sw	s0,12(a3)
    28f8:	4025d793          	sra	a5,a1,0x2
    28fc:	00100613          	li	a2,1
    2900:	00f61633          	sll	a2,a2,a5
    2904:	0ac56a63          	bltu	a0,a2,29b8 <_malloc_r+0x258>
    2908:	00a677b3          	and	a5,a2,a0
    290c:	02079463          	bnez	a5,2934 <_malloc_r+0x1d4>
    2910:	00161613          	sll	a2,a2,0x1
    2914:	ffc5f593          	and	a1,a1,-4
    2918:	00a677b3          	and	a5,a2,a0
    291c:	00458593          	add	a1,a1,4
    2920:	00079a63          	bnez	a5,2934 <_malloc_r+0x1d4>
    2924:	00161613          	sll	a2,a2,0x1
    2928:	00a677b3          	and	a5,a2,a0
    292c:	00458593          	add	a1,a1,4
    2930:	fe078ae3          	beqz	a5,2924 <_malloc_r+0x1c4>
    2934:	00f00813          	li	a6,15
    2938:	00359313          	sll	t1,a1,0x3
    293c:	00698333          	add	t1,s3,t1
    2940:	00030513          	mv	a0,t1
    2944:	00c52783          	lw	a5,12(a0)
    2948:	00058e13          	mv	t3,a1
    294c:	26f50263          	beq	a0,a5,2bb0 <_malloc_r+0x450>
    2950:	0047a703          	lw	a4,4(a5)
    2954:	00078413          	mv	s0,a5
    2958:	00c7a783          	lw	a5,12(a5)
    295c:	ffc77713          	and	a4,a4,-4
    2960:	409706b3          	sub	a3,a4,s1
    2964:	26d84263          	blt	a6,a3,2bc8 <_malloc_r+0x468>
    2968:	fe06c2e3          	bltz	a3,294c <_malloc_r+0x1ec>
    296c:	00e40733          	add	a4,s0,a4
    2970:	00472683          	lw	a3,4(a4)
    2974:	00842603          	lw	a2,8(s0)
    2978:	00090513          	mv	a0,s2
    297c:	0016e693          	or	a3,a3,1
    2980:	00d72223          	sw	a3,4(a4)
    2984:	00f62623          	sw	a5,12(a2)
    2988:	00c7a423          	sw	a2,8(a5)
    298c:	5c0000ef          	jal	2f4c <__malloc_unlock>
    2990:	00840513          	add	a0,s0,8
    2994:	e59ff06f          	j	27ec <_malloc_r+0x8c>
    2998:	00c00793          	li	a5,12
    299c:	00f92023          	sw	a5,0(s2)
    29a0:	00000513          	li	a0,0
    29a4:	e49ff06f          	j	27ec <_malloc_r+0x8c>
    29a8:	20000613          	li	a2,512
    29ac:	04000593          	li	a1,64
    29b0:	03f00813          	li	a6,63
    29b4:	e8dff06f          	j	2840 <_malloc_r+0xe0>
    29b8:	0089a403          	lw	s0,8(s3)
    29bc:	01612823          	sw	s6,16(sp)
    29c0:	00442783          	lw	a5,4(s0)
    29c4:	ffc7fb13          	and	s6,a5,-4
    29c8:	009b6863          	bltu	s6,s1,29d8 <_malloc_r+0x278>
    29cc:	409b0733          	sub	a4,s6,s1
    29d0:	00f00793          	li	a5,15
    29d4:	0ee7ca63          	blt	a5,a4,2ac8 <_malloc_r+0x368>
    29d8:	01912223          	sw	s9,4(sp)
    29dc:	7fffec97          	auipc	s9,0x7fffe
    29e0:	d30c8c93          	add	s9,s9,-720 # 8000070c <__malloc_sbrk_base>
    29e4:	000ca703          	lw	a4,0(s9)
    29e8:	01412c23          	sw	s4,24(sp)
    29ec:	01512a23          	sw	s5,20(sp)
    29f0:	01712623          	sw	s7,12(sp)
    29f4:	7fffea97          	auipc	s5,0x7fffe
    29f8:	d3caaa83          	lw	s5,-708(s5) # 80000730 <__malloc_top_pad>
    29fc:	fff00793          	li	a5,-1
    2a00:	01640a33          	add	s4,s0,s6
    2a04:	01548ab3          	add	s5,s1,s5
    2a08:	3ef70263          	beq	a4,a5,2dec <_malloc_r+0x68c>
    2a0c:	000017b7          	lui	a5,0x1
    2a10:	00f78793          	add	a5,a5,15 # 100f <dump_first_mismatch.isra.0+0xcf>
    2a14:	00fa8ab3          	add	s5,s5,a5
    2a18:	fffff7b7          	lui	a5,0xfffff
    2a1c:	00fafab3          	and	s5,s5,a5
    2a20:	000a8593          	mv	a1,s5
    2a24:	00090513          	mv	a0,s2
    2a28:	254060ef          	jal	8c7c <_sbrk_r>
    2a2c:	fff00793          	li	a5,-1
    2a30:	00050b93          	mv	s7,a0
    2a34:	46f50663          	beq	a0,a5,2ea0 <_malloc_r+0x740>
    2a38:	01812423          	sw	s8,8(sp)
    2a3c:	25456863          	bltu	a0,s4,2c8c <_malloc_r+0x52c>
    2a40:	80067c17          	auipc	s8,0x80067
    2a44:	b10c0c13          	add	s8,s8,-1264 # 80069550 <__malloc_current_mallinfo>
    2a48:	000c2583          	lw	a1,0(s8)
    2a4c:	00ba85b3          	add	a1,s5,a1
    2a50:	00bc2023          	sw	a1,0(s8)
    2a54:	00058713          	mv	a4,a1
    2a58:	2caa1063          	bne	s4,a0,2d18 <_malloc_r+0x5b8>
    2a5c:	01451793          	sll	a5,a0,0x14
    2a60:	2a079c63          	bnez	a5,2d18 <_malloc_r+0x5b8>
    2a64:	0089ab83          	lw	s7,8(s3)
    2a68:	015b07b3          	add	a5,s6,s5
    2a6c:	0017e793          	or	a5,a5,1
    2a70:	00fba223          	sw	a5,4(s7)
    2a74:	7fffe717          	auipc	a4,0x7fffe
    2a78:	cb870713          	add	a4,a4,-840 # 8000072c <__malloc_max_sbrked_mem>
    2a7c:	00072683          	lw	a3,0(a4)
    2a80:	00b6f463          	bgeu	a3,a1,2a88 <_malloc_r+0x328>
    2a84:	00b72023          	sw	a1,0(a4)
    2a88:	7fffe717          	auipc	a4,0x7fffe
    2a8c:	ca070713          	add	a4,a4,-864 # 80000728 <__malloc_max_total_mem>
    2a90:	00072683          	lw	a3,0(a4)
    2a94:	00b6f463          	bgeu	a3,a1,2a9c <_malloc_r+0x33c>
    2a98:	00b72023          	sw	a1,0(a4)
    2a9c:	00812c03          	lw	s8,8(sp)
    2aa0:	000b8413          	mv	s0,s7
    2aa4:	ffc7f793          	and	a5,a5,-4
    2aa8:	40978733          	sub	a4,a5,s1
    2aac:	3897ec63          	bltu	a5,s1,2e44 <_malloc_r+0x6e4>
    2ab0:	00f00793          	li	a5,15
    2ab4:	38e7d863          	bge	a5,a4,2e44 <_malloc_r+0x6e4>
    2ab8:	01812a03          	lw	s4,24(sp)
    2abc:	01412a83          	lw	s5,20(sp)
    2ac0:	00c12b83          	lw	s7,12(sp)
    2ac4:	00412c83          	lw	s9,4(sp)
    2ac8:	0014e793          	or	a5,s1,1
    2acc:	00f42223          	sw	a5,4(s0)
    2ad0:	009404b3          	add	s1,s0,s1
    2ad4:	0099a423          	sw	s1,8(s3)
    2ad8:	00176713          	or	a4,a4,1
    2adc:	00090513          	mv	a0,s2
    2ae0:	00e4a223          	sw	a4,4(s1)
    2ae4:	468000ef          	jal	2f4c <__malloc_unlock>
    2ae8:	02c12083          	lw	ra,44(sp)
    2aec:	00840513          	add	a0,s0,8
    2af0:	02812403          	lw	s0,40(sp)
    2af4:	01012b03          	lw	s6,16(sp)
    2af8:	02412483          	lw	s1,36(sp)
    2afc:	02012903          	lw	s2,32(sp)
    2b00:	01c12983          	lw	s3,28(sp)
    2b04:	03010113          	add	sp,sp,48
    2b08:	00008067          	ret
    2b0c:	0049a503          	lw	a0,4(s3)
    2b10:	de9ff06f          	j	28f8 <_malloc_r+0x198>
    2b14:	00842603          	lw	a2,8(s0)
    2b18:	cb1ff06f          	j	27c8 <_malloc_r+0x68>
    2b1c:	00c7a403          	lw	s0,12(a5) # fffff00c <__crt0_ram_last+0x7ff7f00d>
    2b20:	00258593          	add	a1,a1,2
    2b24:	d68780e3          	beq	a5,s0,2884 <_malloc_r+0x124>
    2b28:	c91ff06f          	j	27b8 <_malloc_r+0x58>
    2b2c:	0097d713          	srl	a4,a5,0x9
    2b30:	00400693          	li	a3,4
    2b34:	14e6f263          	bgeu	a3,a4,2c78 <_malloc_r+0x518>
    2b38:	01400693          	li	a3,20
    2b3c:	32e6e663          	bltu	a3,a4,2e68 <_malloc_r+0x708>
    2b40:	05c70613          	add	a2,a4,92
    2b44:	05b70693          	add	a3,a4,91
    2b48:	00361613          	sll	a2,a2,0x3
    2b4c:	00c98633          	add	a2,s3,a2
    2b50:	00062703          	lw	a4,0(a2)
    2b54:	ff860613          	add	a2,a2,-8
    2b58:	00e61863          	bne	a2,a4,2b68 <_malloc_r+0x408>
    2b5c:	2980006f          	j	2df4 <_malloc_r+0x694>
    2b60:	00872703          	lw	a4,8(a4)
    2b64:	00e60863          	beq	a2,a4,2b74 <_malloc_r+0x414>
    2b68:	00472683          	lw	a3,4(a4)
    2b6c:	ffc6f693          	and	a3,a3,-4
    2b70:	fed7e8e3          	bltu	a5,a3,2b60 <_malloc_r+0x400>
    2b74:	00c72603          	lw	a2,12(a4)
    2b78:	00c42623          	sw	a2,12(s0)
    2b7c:	00e42423          	sw	a4,8(s0)
    2b80:	00862423          	sw	s0,8(a2)
    2b84:	00872623          	sw	s0,12(a4)
    2b88:	d71ff06f          	j	28f8 <_malloc_r+0x198>
    2b8c:	01400713          	li	a4,20
    2b90:	10f77863          	bgeu	a4,a5,2ca0 <_malloc_r+0x540>
    2b94:	05400713          	li	a4,84
    2b98:	2ef76663          	bltu	a4,a5,2e84 <_malloc_r+0x724>
    2b9c:	00c4d793          	srl	a5,s1,0xc
    2ba0:	06f78593          	add	a1,a5,111
    2ba4:	06e78813          	add	a6,a5,110
    2ba8:	00359613          	sll	a2,a1,0x3
    2bac:	c95ff06f          	j	2840 <_malloc_r+0xe0>
    2bb0:	001e0e13          	add	t3,t3,1
    2bb4:	003e7793          	and	a5,t3,3
    2bb8:	00850513          	add	a0,a0,8
    2bbc:	10078063          	beqz	a5,2cbc <_malloc_r+0x55c>
    2bc0:	00c52783          	lw	a5,12(a0)
    2bc4:	d89ff06f          	j	294c <_malloc_r+0x1ec>
    2bc8:	00842603          	lw	a2,8(s0)
    2bcc:	0014e593          	or	a1,s1,1
    2bd0:	00b42223          	sw	a1,4(s0)
    2bd4:	00f62623          	sw	a5,12(a2)
    2bd8:	00c7a423          	sw	a2,8(a5)
    2bdc:	009404b3          	add	s1,s0,s1
    2be0:	0099aa23          	sw	s1,20(s3)
    2be4:	0099a823          	sw	s1,16(s3)
    2be8:	0016e793          	or	a5,a3,1
    2bec:	0114a623          	sw	a7,12(s1)
    2bf0:	0114a423          	sw	a7,8(s1)
    2bf4:	00f4a223          	sw	a5,4(s1)
    2bf8:	00e40733          	add	a4,s0,a4
    2bfc:	00090513          	mv	a0,s2
    2c00:	00d72023          	sw	a3,0(a4)
    2c04:	348000ef          	jal	2f4c <__malloc_unlock>
    2c08:	00840513          	add	a0,s0,8
    2c0c:	be1ff06f          	j	27ec <_malloc_r+0x8c>
    2c10:	00f407b3          	add	a5,s0,a5
    2c14:	0047a703          	lw	a4,4(a5)
    2c18:	00090513          	mv	a0,s2
    2c1c:	00176713          	or	a4,a4,1
    2c20:	00e7a223          	sw	a4,4(a5)
    2c24:	328000ef          	jal	2f4c <__malloc_unlock>
    2c28:	00840513          	add	a0,s0,8
    2c2c:	bc1ff06f          	j	27ec <_malloc_r+0x8c>
    2c30:	0034d593          	srl	a1,s1,0x3
    2c34:	00848793          	add	a5,s1,8
    2c38:	b69ff06f          	j	27a0 <_malloc_r+0x40>
    2c3c:	0014e693          	or	a3,s1,1
    2c40:	00d42223          	sw	a3,4(s0)
    2c44:	009404b3          	add	s1,s0,s1
    2c48:	0099aa23          	sw	s1,20(s3)
    2c4c:	0099a823          	sw	s1,16(s3)
    2c50:	00176693          	or	a3,a4,1
    2c54:	0114a623          	sw	a7,12(s1)
    2c58:	0114a423          	sw	a7,8(s1)
    2c5c:	00d4a223          	sw	a3,4(s1)
    2c60:	00f407b3          	add	a5,s0,a5
    2c64:	00090513          	mv	a0,s2
    2c68:	00e7a023          	sw	a4,0(a5)
    2c6c:	2e0000ef          	jal	2f4c <__malloc_unlock>
    2c70:	00840513          	add	a0,s0,8
    2c74:	b79ff06f          	j	27ec <_malloc_r+0x8c>
    2c78:	0067d713          	srl	a4,a5,0x6
    2c7c:	03970613          	add	a2,a4,57
    2c80:	03870693          	add	a3,a4,56
    2c84:	00361613          	sll	a2,a2,0x3
    2c88:	ec5ff06f          	j	2b4c <_malloc_r+0x3ec>
    2c8c:	07340c63          	beq	s0,s3,2d04 <_malloc_r+0x5a4>
    2c90:	0089a403          	lw	s0,8(s3)
    2c94:	00812c03          	lw	s8,8(sp)
    2c98:	00442783          	lw	a5,4(s0)
    2c9c:	e09ff06f          	j	2aa4 <_malloc_r+0x344>
    2ca0:	05c78593          	add	a1,a5,92
    2ca4:	05b78813          	add	a6,a5,91
    2ca8:	00359613          	sll	a2,a1,0x3
    2cac:	b95ff06f          	j	2840 <_malloc_r+0xe0>
    2cb0:	00832783          	lw	a5,8(t1)
    2cb4:	fff58593          	add	a1,a1,-1
    2cb8:	28679063          	bne	a5,t1,2f38 <_malloc_r+0x7d8>
    2cbc:	0035f793          	and	a5,a1,3
    2cc0:	ff830313          	add	t1,t1,-8
    2cc4:	fe0796e3          	bnez	a5,2cb0 <_malloc_r+0x550>
    2cc8:	0049a703          	lw	a4,4(s3)
    2ccc:	fff64793          	not	a5,a2
    2cd0:	00e7f7b3          	and	a5,a5,a4
    2cd4:	00f9a223          	sw	a5,4(s3)
    2cd8:	00161613          	sll	a2,a2,0x1
    2cdc:	ccc7eee3          	bltu	a5,a2,29b8 <_malloc_r+0x258>
    2ce0:	cc060ce3          	beqz	a2,29b8 <_malloc_r+0x258>
    2ce4:	00f67733          	and	a4,a2,a5
    2ce8:	00071a63          	bnez	a4,2cfc <_malloc_r+0x59c>
    2cec:	00161613          	sll	a2,a2,0x1
    2cf0:	00f67733          	and	a4,a2,a5
    2cf4:	004e0e13          	add	t3,t3,4
    2cf8:	fe070ae3          	beqz	a4,2cec <_malloc_r+0x58c>
    2cfc:	000e0593          	mv	a1,t3
    2d00:	c39ff06f          	j	2938 <_malloc_r+0x1d8>
    2d04:	80067c17          	auipc	s8,0x80067
    2d08:	84cc0c13          	add	s8,s8,-1972 # 80069550 <__malloc_current_mallinfo>
    2d0c:	000c2703          	lw	a4,0(s8)
    2d10:	00ea8733          	add	a4,s5,a4
    2d14:	00ec2023          	sw	a4,0(s8)
    2d18:	000ca683          	lw	a3,0(s9)
    2d1c:	fff00793          	li	a5,-1
    2d20:	18f68663          	beq	a3,a5,2eac <_malloc_r+0x74c>
    2d24:	414b87b3          	sub	a5,s7,s4
    2d28:	00e787b3          	add	a5,a5,a4
    2d2c:	00fc2023          	sw	a5,0(s8)
    2d30:	007bfc93          	and	s9,s7,7
    2d34:	0c0c8c63          	beqz	s9,2e0c <_malloc_r+0x6ac>
    2d38:	419b8bb3          	sub	s7,s7,s9
    2d3c:	000017b7          	lui	a5,0x1
    2d40:	00878793          	add	a5,a5,8 # 1008 <dump_first_mismatch.isra.0+0xc8>
    2d44:	008b8b93          	add	s7,s7,8
    2d48:	419785b3          	sub	a1,a5,s9
    2d4c:	015b8ab3          	add	s5,s7,s5
    2d50:	415585b3          	sub	a1,a1,s5
    2d54:	01459593          	sll	a1,a1,0x14
    2d58:	0145da13          	srl	s4,a1,0x14
    2d5c:	000a0593          	mv	a1,s4
    2d60:	00090513          	mv	a0,s2
    2d64:	719050ef          	jal	8c7c <_sbrk_r>
    2d68:	fff00793          	li	a5,-1
    2d6c:	18f50063          	beq	a0,a5,2eec <_malloc_r+0x78c>
    2d70:	41750533          	sub	a0,a0,s7
    2d74:	01450ab3          	add	s5,a0,s4
    2d78:	000c2703          	lw	a4,0(s8)
    2d7c:	0179a423          	sw	s7,8(s3)
    2d80:	001ae793          	or	a5,s5,1
    2d84:	00ea05b3          	add	a1,s4,a4
    2d88:	00bc2023          	sw	a1,0(s8)
    2d8c:	00fba223          	sw	a5,4(s7)
    2d90:	cf3402e3          	beq	s0,s3,2a74 <_malloc_r+0x314>
    2d94:	00f00693          	li	a3,15
    2d98:	0b66f063          	bgeu	a3,s6,2e38 <_malloc_r+0x6d8>
    2d9c:	00442703          	lw	a4,4(s0)
    2da0:	ff4b0793          	add	a5,s6,-12
    2da4:	ff87f793          	and	a5,a5,-8
    2da8:	00177713          	and	a4,a4,1
    2dac:	00f76733          	or	a4,a4,a5
    2db0:	00e42223          	sw	a4,4(s0)
    2db4:	00500613          	li	a2,5
    2db8:	00f40733          	add	a4,s0,a5
    2dbc:	00c72223          	sw	a2,4(a4)
    2dc0:	00c72423          	sw	a2,8(a4)
    2dc4:	00f6e663          	bltu	a3,a5,2dd0 <_malloc_r+0x670>
    2dc8:	004ba783          	lw	a5,4(s7)
    2dcc:	ca9ff06f          	j	2a74 <_malloc_r+0x314>
    2dd0:	00840593          	add	a1,s0,8
    2dd4:	00090513          	mv	a0,s2
    2dd8:	e7cff0ef          	jal	2454 <_free_r>
    2ddc:	0089ab83          	lw	s7,8(s3)
    2de0:	000c2583          	lw	a1,0(s8)
    2de4:	004ba783          	lw	a5,4(s7)
    2de8:	c8dff06f          	j	2a74 <_malloc_r+0x314>
    2dec:	010a8a93          	add	s5,s5,16
    2df0:	c31ff06f          	j	2a20 <_malloc_r+0x2c0>
    2df4:	4026d693          	sra	a3,a3,0x2
    2df8:	00100793          	li	a5,1
    2dfc:	00d797b3          	sll	a5,a5,a3
    2e00:	00f56533          	or	a0,a0,a5
    2e04:	00a9a223          	sw	a0,4(s3)
    2e08:	d71ff06f          	j	2b78 <_malloc_r+0x418>
    2e0c:	015b85b3          	add	a1,s7,s5
    2e10:	40b005b3          	neg	a1,a1
    2e14:	01459593          	sll	a1,a1,0x14
    2e18:	0145da13          	srl	s4,a1,0x14
    2e1c:	000a0593          	mv	a1,s4
    2e20:	00090513          	mv	a0,s2
    2e24:	659050ef          	jal	8c7c <_sbrk_r>
    2e28:	fff00793          	li	a5,-1
    2e2c:	f4f512e3          	bne	a0,a5,2d70 <_malloc_r+0x610>
    2e30:	00000a13          	li	s4,0
    2e34:	f45ff06f          	j	2d78 <_malloc_r+0x618>
    2e38:	00812c03          	lw	s8,8(sp)
    2e3c:	00100793          	li	a5,1
    2e40:	00fba223          	sw	a5,4(s7)
    2e44:	00090513          	mv	a0,s2
    2e48:	104000ef          	jal	2f4c <__malloc_unlock>
    2e4c:	00000513          	li	a0,0
    2e50:	01812a03          	lw	s4,24(sp)
    2e54:	01412a83          	lw	s5,20(sp)
    2e58:	01012b03          	lw	s6,16(sp)
    2e5c:	00c12b83          	lw	s7,12(sp)
    2e60:	00412c83          	lw	s9,4(sp)
    2e64:	989ff06f          	j	27ec <_malloc_r+0x8c>
    2e68:	05400693          	li	a3,84
    2e6c:	04e6e463          	bltu	a3,a4,2eb4 <_malloc_r+0x754>
    2e70:	00c7d713          	srl	a4,a5,0xc
    2e74:	06f70613          	add	a2,a4,111
    2e78:	06e70693          	add	a3,a4,110
    2e7c:	00361613          	sll	a2,a2,0x3
    2e80:	ccdff06f          	j	2b4c <_malloc_r+0x3ec>
    2e84:	15400713          	li	a4,340
    2e88:	04f76463          	bltu	a4,a5,2ed0 <_malloc_r+0x770>
    2e8c:	00f4d793          	srl	a5,s1,0xf
    2e90:	07878593          	add	a1,a5,120
    2e94:	07778813          	add	a6,a5,119
    2e98:	00359613          	sll	a2,a1,0x3
    2e9c:	9a5ff06f          	j	2840 <_malloc_r+0xe0>
    2ea0:	0089a403          	lw	s0,8(s3)
    2ea4:	00442783          	lw	a5,4(s0)
    2ea8:	bfdff06f          	j	2aa4 <_malloc_r+0x344>
    2eac:	017ca023          	sw	s7,0(s9)
    2eb0:	e81ff06f          	j	2d30 <_malloc_r+0x5d0>
    2eb4:	15400693          	li	a3,340
    2eb8:	04e6e463          	bltu	a3,a4,2f00 <_malloc_r+0x7a0>
    2ebc:	00f7d713          	srl	a4,a5,0xf
    2ec0:	07870613          	add	a2,a4,120
    2ec4:	07770693          	add	a3,a4,119
    2ec8:	00361613          	sll	a2,a2,0x3
    2ecc:	c81ff06f          	j	2b4c <_malloc_r+0x3ec>
    2ed0:	55400713          	li	a4,1364
    2ed4:	04f76463          	bltu	a4,a5,2f1c <_malloc_r+0x7bc>
    2ed8:	0124d793          	srl	a5,s1,0x12
    2edc:	07d78593          	add	a1,a5,125
    2ee0:	07c78813          	add	a6,a5,124
    2ee4:	00359613          	sll	a2,a1,0x3
    2ee8:	959ff06f          	j	2840 <_malloc_r+0xe0>
    2eec:	ff8c8c93          	add	s9,s9,-8
    2ef0:	019a8ab3          	add	s5,s5,s9
    2ef4:	417a8ab3          	sub	s5,s5,s7
    2ef8:	00000a13          	li	s4,0
    2efc:	e7dff06f          	j	2d78 <_malloc_r+0x618>
    2f00:	55400693          	li	a3,1364
    2f04:	02e6e463          	bltu	a3,a4,2f2c <_malloc_r+0x7cc>
    2f08:	0127d713          	srl	a4,a5,0x12
    2f0c:	07d70613          	add	a2,a4,125
    2f10:	07c70693          	add	a3,a4,124
    2f14:	00361613          	sll	a2,a2,0x3
    2f18:	c35ff06f          	j	2b4c <_malloc_r+0x3ec>
    2f1c:	3f800613          	li	a2,1016
    2f20:	07f00593          	li	a1,127
    2f24:	07e00813          	li	a6,126
    2f28:	919ff06f          	j	2840 <_malloc_r+0xe0>
    2f2c:	3f800613          	li	a2,1016
    2f30:	07e00693          	li	a3,126
    2f34:	c19ff06f          	j	2b4c <_malloc_r+0x3ec>
    2f38:	0049a783          	lw	a5,4(s3)
    2f3c:	d9dff06f          	j	2cd8 <_malloc_r+0x578>

00002f40 <__malloc_lock>:
    2f40:	7fffd517          	auipc	a0,0x7fffd
    2f44:	7e050513          	add	a0,a0,2016 # 80000720 <__lock___malloc_recursive_mutex>
    2f48:	8b4ff06f          	j	1ffc <__retarget_lock_acquire_recursive>

00002f4c <__malloc_unlock>:
    2f4c:	7fffd517          	auipc	a0,0x7fffd
    2f50:	7d450513          	add	a0,a0,2004 # 80000720 <__lock___malloc_recursive_mutex>
    2f54:	8acff06f          	j	2000 <__retarget_lock_release_recursive>

00002f58 <_vfprintf_r>:
    2f58:	e7010113          	add	sp,sp,-400
    2f5c:	18112623          	sw	ra,396(sp)
    2f60:	00b12423          	sw	a1,8(sp)
    2f64:	00c12623          	sw	a2,12(sp)
    2f68:	00d12a23          	sw	a3,20(sp)
    2f6c:	17312e23          	sw	s3,380(sp)
    2f70:	18812423          	sw	s0,392(sp)
    2f74:	00050993          	mv	s3,a0
    2f78:	3d9050ef          	jal	8b50 <_localeconv_r>
    2f7c:	00052783          	lw	a5,0(a0)
    2f80:	00078513          	mv	a0,a5
    2f84:	02f12a23          	sw	a5,52(sp)
    2f88:	afcff0ef          	jal	2284 <strlen>
    2f8c:	00050713          	mv	a4,a0
    2f90:	00800613          	li	a2,8
    2f94:	00000593          	li	a1,0
    2f98:	09010513          	add	a0,sp,144
    2f9c:	02e12823          	sw	a4,48(sp)
    2fa0:	864ff0ef          	jal	2004 <memset>
    2fa4:	00c12783          	lw	a5,12(sp)
    2fa8:	00098863          	beqz	s3,2fb8 <_vfprintf_r+0x60>
    2fac:	0349a703          	lw	a4,52(s3)
    2fb0:	00071463          	bnez	a4,2fb8 <_vfprintf_r+0x60>
    2fb4:	29d0106f          	j	4a50 <_vfprintf_r+0x1af8>
    2fb8:	00812703          	lw	a4,8(sp)
    2fbc:	06472683          	lw	a3,100(a4)
    2fc0:	00c71703          	lh	a4,12(a4)
    2fc4:	0016f693          	and	a3,a3,1
    2fc8:	00069863          	bnez	a3,2fd8 <_vfprintf_r+0x80>
    2fcc:	20077693          	and	a3,a4,512
    2fd0:	00069463          	bnez	a3,2fd8 <_vfprintf_r+0x80>
    2fd4:	3ec0106f          	j	43c0 <_vfprintf_r+0x1468>
    2fd8:	01271693          	sll	a3,a4,0x12
    2fdc:	0206c863          	bltz	a3,300c <_vfprintf_r+0xb4>
    2fe0:	00812503          	lw	a0,8(sp)
    2fe4:	000025b7          	lui	a1,0x2
    2fe8:	ffffe637          	lui	a2,0xffffe
    2fec:	06452683          	lw	a3,100(a0)
    2ff0:	00b76733          	or	a4,a4,a1
    2ff4:	fff60613          	add	a2,a2,-1 # ffffdfff <__crt0_ram_last+0x7ff7e000>
    2ff8:	01071713          	sll	a4,a4,0x10
    2ffc:	41075713          	sra	a4,a4,0x10
    3000:	00c6f6b3          	and	a3,a3,a2
    3004:	00e51623          	sh	a4,12(a0)
    3008:	06d52223          	sw	a3,100(a0)
    300c:	00877693          	and	a3,a4,8
    3010:	2a068063          	beqz	a3,32b0 <_vfprintf_r+0x358>
    3014:	00812683          	lw	a3,8(sp)
    3018:	0106a683          	lw	a3,16(a3)
    301c:	28068a63          	beqz	a3,32b0 <_vfprintf_r+0x358>
    3020:	01a77693          	and	a3,a4,26
    3024:	00a00613          	li	a2,10
    3028:	2ac68c63          	beq	a3,a2,32e0 <_vfprintf_r+0x388>
    302c:	0ac10713          	add	a4,sp,172
    3030:	17512a23          	sw	s5,372(sp)
    3034:	17812423          	sw	s8,360(sp)
    3038:	15b12e23          	sw	s11,348(sp)
    303c:	18912223          	sw	s1,388(sp)
    3040:	19212023          	sw	s2,384(sp)
    3044:	17412c23          	sw	s4,376(sp)
    3048:	17612823          	sw	s6,368(sp)
    304c:	17712623          	sw	s7,364(sp)
    3050:	17912223          	sw	s9,356(sp)
    3054:	17a12023          	sw	s10,352(sp)
    3058:	0ae12023          	sw	a4,160(sp)
    305c:	0a012423          	sw	zero,168(sp)
    3060:	0a012223          	sw	zero,164(sp)
    3064:	00012c23          	sw	zero,24(sp)
    3068:	02012423          	sw	zero,40(sp)
    306c:	02012623          	sw	zero,44(sp)
    3070:	00070413          	mv	s0,a4
    3074:	02012c23          	sw	zero,56(sp)
    3078:	04012023          	sw	zero,64(sp)
    307c:	02012e23          	sw	zero,60(sp)
    3080:	04012623          	sw	zero,76(sp)
    3084:	04012423          	sw	zero,72(sp)
    3088:	00012623          	sw	zero,12(sp)
    308c:	7fffda97          	auipc	s5,0x7fffd
    3090:	4a8a8a93          	add	s5,s5,1192 # 80000534 <__global_locale>
    3094:	02500d93          	li	s11,37
    3098:	00078c13          	mv	s8,a5
    309c:	000c0913          	mv	s2,s8
    30a0:	0e4aa483          	lw	s1,228(s5)
    30a4:	2a1050ef          	jal	8b44 <__locale_mb_cur_max>
    30a8:	00050693          	mv	a3,a0
    30ac:	09010713          	add	a4,sp,144
    30b0:	00090613          	mv	a2,s2
    30b4:	08010593          	add	a1,sp,128
    30b8:	00098513          	mv	a0,s3
    30bc:	000480e7          	jalr	s1
    30c0:	2c050a63          	beqz	a0,3394 <_vfprintf_r+0x43c>
    30c4:	2a054a63          	bltz	a0,3378 <_vfprintf_r+0x420>
    30c8:	08012783          	lw	a5,128(sp)
    30cc:	01b78663          	beq	a5,s11,30d8 <_vfprintf_r+0x180>
    30d0:	00a90933          	add	s2,s2,a0
    30d4:	fcdff06f          	j	30a0 <_vfprintf_r+0x148>
    30d8:	00050493          	mv	s1,a0
    30dc:	41890cb3          	sub	s9,s2,s8
    30e0:	2d891063          	bne	s2,s8,33a0 <_vfprintf_r+0x448>
    30e4:	fff00313          	li	t1,-1
    30e8:	00000e93          	li	t4,0
    30ec:	00194e03          	lbu	t3,1(s2)
    30f0:	06010ba3          	sb	zero,119(sp)
    30f4:	00190913          	add	s2,s2,1
    30f8:	00000b93          	li	s7,0
    30fc:	05a00493          	li	s1,90
    3100:	000e8a13          	mv	s4,t4
    3104:	00030b13          	mv	s6,t1
    3108:	00190913          	add	s2,s2,1
    310c:	fe0e0793          	add	a5,t3,-32
    3110:	04f4ea63          	bltu	s1,a5,3164 <_vfprintf_r+0x20c>
    3114:	0000d717          	auipc	a4,0xd
    3118:	45c70713          	add	a4,a4,1116 # 10570 <_ctype_+0x104>
    311c:	00279793          	sll	a5,a5,0x2
    3120:	00e787b3          	add	a5,a5,a4
    3124:	0007a783          	lw	a5,0(a5)
    3128:	00e787b3          	add	a5,a5,a4
    312c:	00078067          	jr	a5
    3130:	00000b93          	li	s7,0
    3134:	fd0e0713          	add	a4,t3,-48
    3138:	00900693          	li	a3,9
    313c:	00094e03          	lbu	t3,0(s2)
    3140:	002b9793          	sll	a5,s7,0x2
    3144:	017787b3          	add	a5,a5,s7
    3148:	00179793          	sll	a5,a5,0x1
    314c:	00f70bb3          	add	s7,a4,a5
    3150:	fd0e0713          	add	a4,t3,-48
    3154:	00190913          	add	s2,s2,1
    3158:	fee6f2e3          	bgeu	a3,a4,313c <_vfprintf_r+0x1e4>
    315c:	fe0e0793          	add	a5,t3,-32
    3160:	faf4fae3          	bgeu	s1,a5,3114 <_vfprintf_r+0x1bc>
    3164:	000a0e93          	mv	t4,s4
    3168:	260e0a63          	beqz	t3,33dc <_vfprintf_r+0x484>
    316c:	0fc10623          	sb	t3,236(sp)
    3170:	06010ba3          	sb	zero,119(sp)
    3174:	00100c93          	li	s9,1
    3178:	00000613          	li	a2,0
    317c:	00012823          	sw	zero,16(sp)
    3180:	00100d13          	li	s10,1
    3184:	00000313          	li	t1,0
    3188:	02012223          	sw	zero,36(sp)
    318c:	02012023          	sw	zero,32(sp)
    3190:	00000a13          	li	s4,0
    3194:	0ec10c13          	add	s8,sp,236
    3198:	002ef293          	and	t0,t4,2
    319c:	00028463          	beqz	t0,31a4 <_vfprintf_r+0x24c>
    31a0:	002c8c93          	add	s9,s9,2
    31a4:	084eff93          	and	t6,t4,132
    31a8:	0a812483          	lw	s1,168(sp)
    31ac:	000f9663          	bnez	t6,31b8 <_vfprintf_r+0x260>
    31b0:	419b8733          	sub	a4,s7,s9
    31b4:	40e04663          	bgtz	a4,35c0 <_vfprintf_r+0x668>
    31b8:	02060a63          	beqz	a2,31ec <_vfprintf_r+0x294>
    31bc:	0a412703          	lw	a4,164(sp)
    31c0:	07710613          	add	a2,sp,119
    31c4:	00148493          	add	s1,s1,1
    31c8:	00170713          	add	a4,a4,1
    31cc:	00100793          	li	a5,1
    31d0:	00c42023          	sw	a2,0(s0)
    31d4:	00f42223          	sw	a5,4(s0)
    31d8:	0a912423          	sw	s1,168(sp)
    31dc:	0ae12223          	sw	a4,164(sp)
    31e0:	00700613          	li	a2,7
    31e4:	00840413          	add	s0,s0,8
    31e8:	4ce64863          	blt	a2,a4,36b8 <_vfprintf_r+0x760>
    31ec:	02028a63          	beqz	t0,3220 <_vfprintf_r+0x2c8>
    31f0:	0a412703          	lw	a4,164(sp)
    31f4:	07810613          	add	a2,sp,120
    31f8:	00c42023          	sw	a2,0(s0)
    31fc:	00248493          	add	s1,s1,2
    3200:	00200613          	li	a2,2
    3204:	00170713          	add	a4,a4,1
    3208:	00c42223          	sw	a2,4(s0)
    320c:	0a912423          	sw	s1,168(sp)
    3210:	0ae12223          	sw	a4,164(sp)
    3214:	00700613          	li	a2,7
    3218:	00840413          	add	s0,s0,8
    321c:	5ce644e3          	blt	a2,a4,3fe4 <_vfprintf_r+0x108c>
    3220:	08000713          	li	a4,128
    3224:	3aef80e3          	beq	t6,a4,3dc4 <_vfprintf_r+0xe6c>
    3228:	41a30b33          	sub	s6,t1,s10
    322c:	4b604ae3          	bgtz	s6,3ee0 <_vfprintf_r+0xf88>
    3230:	100ef713          	and	a4,t4,256
    3234:	1a0710e3          	bnez	a4,3bd4 <_vfprintf_r+0xc7c>
    3238:	0a412783          	lw	a5,164(sp)
    323c:	01a484b3          	add	s1,s1,s10
    3240:	01842023          	sw	s8,0(s0)
    3244:	00178793          	add	a5,a5,1
    3248:	01a42223          	sw	s10,4(s0)
    324c:	0a912423          	sw	s1,168(sp)
    3250:	0af12223          	sw	a5,164(sp)
    3254:	00700713          	li	a4,7
    3258:	58f74c63          	blt	a4,a5,37f0 <_vfprintf_r+0x898>
    325c:	00840413          	add	s0,s0,8
    3260:	004eff13          	and	t5,t4,4
    3264:	000f0663          	beqz	t5,3270 <_vfprintf_r+0x318>
    3268:	419b8d33          	sub	s10,s7,s9
    326c:	5ba04ce3          	bgtz	s10,4024 <_vfprintf_r+0x10cc>
    3270:	000b8e93          	mv	t4,s7
    3274:	019bd463          	bge	s7,s9,327c <_vfprintf_r+0x324>
    3278:	000c8e93          	mv	t4,s9
    327c:	00c12783          	lw	a5,12(sp)
    3280:	01d787b3          	add	a5,a5,t4
    3284:	00f12623          	sw	a5,12(sp)
    3288:	18049663          	bnez	s1,3414 <_vfprintf_r+0x4bc>
    328c:	01012783          	lw	a5,16(sp)
    3290:	0a012223          	sw	zero,164(sp)
    3294:	00078863          	beqz	a5,32a4 <_vfprintf_r+0x34c>
    3298:	01012583          	lw	a1,16(sp)
    329c:	00098513          	mv	a0,s3
    32a0:	9b4ff0ef          	jal	2454 <_free_r>
    32a4:	0ac10413          	add	s0,sp,172
    32a8:	00090c13          	mv	s8,s2
    32ac:	df1ff06f          	j	309c <_vfprintf_r+0x144>
    32b0:	00812403          	lw	s0,8(sp)
    32b4:	00098513          	mv	a0,s3
    32b8:	00f12623          	sw	a5,12(sp)
    32bc:	00040593          	mv	a1,s0
    32c0:	3a4050ef          	jal	8664 <__swsetup_r>
    32c4:	00050463          	beqz	a0,32cc <_vfprintf_r+0x374>
    32c8:	5600206f          	j	5828 <_vfprintf_r+0x28d0>
    32cc:	00c41703          	lh	a4,12(s0)
    32d0:	00a00613          	li	a2,10
    32d4:	00c12783          	lw	a5,12(sp)
    32d8:	01a77693          	and	a3,a4,26
    32dc:	d4c698e3          	bne	a3,a2,302c <_vfprintf_r+0xd4>
    32e0:	00812603          	lw	a2,8(sp)
    32e4:	00e61683          	lh	a3,14(a2)
    32e8:	d406c2e3          	bltz	a3,302c <_vfprintf_r+0xd4>
    32ec:	06462683          	lw	a3,100(a2)
    32f0:	0016f693          	and	a3,a3,1
    32f4:	00069863          	bnez	a3,3304 <_vfprintf_r+0x3ac>
    32f8:	20077713          	and	a4,a4,512
    32fc:	00071463          	bnez	a4,3304 <_vfprintf_r+0x3ac>
    3300:	53d0106f          	j	503c <_vfprintf_r+0x20e4>
    3304:	01412683          	lw	a3,20(sp)
    3308:	00812583          	lw	a1,8(sp)
    330c:	00098513          	mv	a0,s3
    3310:	00078613          	mv	a2,a5
    3314:	0e5020ef          	jal	5bf8 <__sbprintf>
    3318:	18c12083          	lw	ra,396(sp)
    331c:	18812403          	lw	s0,392(sp)
    3320:	00a12623          	sw	a0,12(sp)
    3324:	00c12503          	lw	a0,12(sp)
    3328:	17c12983          	lw	s3,380(sp)
    332c:	19010113          	add	sp,sp,400
    3330:	00008067          	ret
    3334:	00098513          	mv	a0,s3
    3338:	019050ef          	jal	8b50 <_localeconv_r>
    333c:	00452783          	lw	a5,4(a0)
    3340:	00078513          	mv	a0,a5
    3344:	04f12423          	sw	a5,72(sp)
    3348:	f3dfe0ef          	jal	2284 <strlen>
    334c:	00050793          	mv	a5,a0
    3350:	00098513          	mv	a0,s3
    3354:	00078c93          	mv	s9,a5
    3358:	04f12623          	sw	a5,76(sp)
    335c:	7f4050ef          	jal	8b50 <_localeconv_r>
    3360:	00852703          	lw	a4,8(a0)
    3364:	02e12e23          	sw	a4,60(sp)
    3368:	000c8463          	beqz	s9,3370 <_vfprintf_r+0x418>
    336c:	1ec0106f          	j	4558 <_vfprintf_r+0x1600>
    3370:	00094e03          	lbu	t3,0(s2)
    3374:	d95ff06f          	j	3108 <_vfprintf_r+0x1b0>
    3378:	00800613          	li	a2,8
    337c:	00000593          	li	a1,0
    3380:	09010513          	add	a0,sp,144
    3384:	c81fe0ef          	jal	2004 <memset>
    3388:	00100513          	li	a0,1
    338c:	00a90933          	add	s2,s2,a0
    3390:	d11ff06f          	j	30a0 <_vfprintf_r+0x148>
    3394:	00050493          	mv	s1,a0
    3398:	41890cb3          	sub	s9,s2,s8
    339c:	05890063          	beq	s2,s8,33dc <_vfprintf_r+0x484>
    33a0:	0a812683          	lw	a3,168(sp)
    33a4:	0a412703          	lw	a4,164(sp)
    33a8:	01842023          	sw	s8,0(s0)
    33ac:	019686b3          	add	a3,a3,s9
    33b0:	00170713          	add	a4,a4,1
    33b4:	01942223          	sw	s9,4(s0)
    33b8:	0ad12423          	sw	a3,168(sp)
    33bc:	0ae12223          	sw	a4,164(sp)
    33c0:	00700693          	li	a3,7
    33c4:	00840413          	add	s0,s0,8
    33c8:	02e6c863          	blt	a3,a4,33f8 <_vfprintf_r+0x4a0>
    33cc:	00c12783          	lw	a5,12(sp)
    33d0:	019787b3          	add	a5,a5,s9
    33d4:	00f12623          	sw	a5,12(sp)
    33d8:	d00496e3          	bnez	s1,30e4 <_vfprintf_r+0x18c>
    33dc:	0a812783          	lw	a5,168(sp)
    33e0:	00078463          	beqz	a5,33e8 <_vfprintf_r+0x490>
    33e4:	4090106f          	j	4fec <_vfprintf_r+0x2094>
    33e8:	00812783          	lw	a5,8(sp)
    33ec:	0a012223          	sw	zero,164(sp)
    33f0:	00c79783          	lh	a5,12(a5)
    33f4:	0500006f          	j	3444 <_vfprintf_r+0x4ec>
    33f8:	00812583          	lw	a1,8(sp)
    33fc:	0a010613          	add	a2,sp,160
    3400:	00098513          	mv	a0,s3
    3404:	211020ef          	jal	5e14 <__sprint_r>
    3408:	02051a63          	bnez	a0,343c <_vfprintf_r+0x4e4>
    340c:	0ac10413          	add	s0,sp,172
    3410:	fbdff06f          	j	33cc <_vfprintf_r+0x474>
    3414:	00812583          	lw	a1,8(sp)
    3418:	0a010613          	add	a2,sp,160
    341c:	00098513          	mv	a0,s3
    3420:	1f5020ef          	jal	5e14 <__sprint_r>
    3424:	e60504e3          	beqz	a0,328c <_vfprintf_r+0x334>
    3428:	01012283          	lw	t0,16(sp)
    342c:	00028863          	beqz	t0,343c <_vfprintf_r+0x4e4>
    3430:	00028593          	mv	a1,t0
    3434:	00098513          	mv	a0,s3
    3438:	81cff0ef          	jal	2454 <_free_r>
    343c:	00812783          	lw	a5,8(sp)
    3440:	00c79783          	lh	a5,12(a5)
    3444:	00812703          	lw	a4,8(sp)
    3448:	06472703          	lw	a4,100(a4)
    344c:	00177713          	and	a4,a4,1
    3450:	3c070463          	beqz	a4,3818 <_vfprintf_r+0x8c0>
    3454:	0407f793          	and	a5,a5,64
    3458:	18412483          	lw	s1,388(sp)
    345c:	18012903          	lw	s2,384(sp)
    3460:	17812a03          	lw	s4,376(sp)
    3464:	17412a83          	lw	s5,372(sp)
    3468:	17012b03          	lw	s6,368(sp)
    346c:	16c12b83          	lw	s7,364(sp)
    3470:	16812c03          	lw	s8,360(sp)
    3474:	16412c83          	lw	s9,356(sp)
    3478:	16012d03          	lw	s10,352(sp)
    347c:	15c12d83          	lw	s11,348(sp)
    3480:	00078463          	beqz	a5,3488 <_vfprintf_r+0x530>
    3484:	3d00206f          	j	5854 <_vfprintf_r+0x28fc>
    3488:	18c12083          	lw	ra,396(sp)
    348c:	18812403          	lw	s0,392(sp)
    3490:	00c12503          	lw	a0,12(sp)
    3494:	17c12983          	lw	s3,380(sp)
    3498:	19010113          	add	sp,sp,400
    349c:	00008067          	ret
    34a0:	008a7713          	and	a4,s4,8
    34a4:	000a0e93          	mv	t4,s4
    34a8:	000b0313          	mv	t1,s6
    34ac:	00070463          	beqz	a4,34b4 <_vfprintf_r+0x55c>
    34b0:	0200106f          	j	44d0 <_vfprintf_r+0x1578>
    34b4:	01412783          	lw	a5,20(sp)
    34b8:	00778b13          	add	s6,a5,7
    34bc:	ff8b7b13          	and	s6,s6,-8
    34c0:	000b2783          	lw	a5,0(s6)
    34c4:	02f12423          	sw	a5,40(sp)
    34c8:	004b2783          	lw	a5,4(s6)
    34cc:	02f12623          	sw	a5,44(sp)
    34d0:	008b0793          	add	a5,s6,8
    34d4:	00f12a23          	sw	a5,20(sp)
    34d8:	02c12a03          	lw	s4,44(sp)
    34dc:	7fffd717          	auipc	a4,0x7fffd
    34e0:	1c470713          	add	a4,a4,452 # 800006a0 <__global_locale+0x16c>
    34e4:	00072c83          	lw	s9,0(a4)
    34e8:	00472d03          	lw	s10,4(a4)
    34ec:	02812b03          	lw	s6,40(sp)
    34f0:	001a1493          	sll	s1,s4,0x1
    34f4:	0014d493          	srl	s1,s1,0x1
    34f8:	000b0513          	mv	a0,s6
    34fc:	00048593          	mv	a1,s1
    3500:	000c8613          	mv	a2,s9
    3504:	000d0693          	mv	a3,s10
    3508:	02612223          	sw	t1,36(sp)
    350c:	03c12023          	sw	t3,32(sp)
    3510:	01d12823          	sw	t4,16(sp)
    3514:	26c0c0ef          	jal	f780 <__unorddf2>
    3518:	01012e83          	lw	t4,16(sp)
    351c:	02012e03          	lw	t3,32(sp)
    3520:	02412303          	lw	t1,36(sp)
    3524:	00050463          	beqz	a0,352c <_vfprintf_r+0x5d4>
    3528:	4080106f          	j	4930 <_vfprintf_r+0x19d8>
    352c:	000b0513          	mv	a0,s6
    3530:	00048593          	mv	a1,s1
    3534:	000c8613          	mv	a2,s9
    3538:	000d0693          	mv	a3,s10
    353c:	0a40b0ef          	jal	e5e0 <__ledf2>
    3540:	01012e83          	lw	t4,16(sp)
    3544:	02012e03          	lw	t3,32(sp)
    3548:	02412303          	lw	t1,36(sp)
    354c:	00a04463          	bgtz	a0,3554 <_vfprintf_r+0x5fc>
    3550:	3e00106f          	j	4930 <_vfprintf_r+0x19d8>
    3554:	000b0513          	mv	a0,s6
    3558:	000a0593          	mv	a1,s4
    355c:	00000613          	li	a2,0
    3560:	00000693          	li	a3,0
    3564:	07c0b0ef          	jal	e5e0 <__ledf2>
    3568:	01012e83          	lw	t4,16(sp)
    356c:	02012e03          	lw	t3,32(sp)
    3570:	00055463          	bgez	a0,3578 <_vfprintf_r+0x620>
    3574:	6650106f          	j	53d8 <_vfprintf_r+0x2480>
    3578:	07714603          	lbu	a2,119(sp)
    357c:	04700713          	li	a4,71
    3580:	0000dc17          	auipc	s8,0xd
    3584:	d00c0c13          	add	s8,s8,-768 # 10280 <__fini_array_end+0x2d8>
    3588:	01c74663          	blt	a4,t3,3594 <_vfprintf_r+0x63c>
    358c:	0000dc17          	auipc	s8,0xd
    3590:	cf0c0c13          	add	s8,s8,-784 # 1027c <__fini_array_end+0x2d4>
    3594:	00012823          	sw	zero,16(sp)
    3598:	02012223          	sw	zero,36(sp)
    359c:	02012023          	sw	zero,32(sp)
    35a0:	f7fefe93          	and	t4,t4,-129
    35a4:	00300c93          	li	s9,3
    35a8:	00300d13          	li	s10,3
    35ac:	00000313          	li	t1,0
    35b0:	00000a13          	li	s4,0
    35b4:	be0602e3          	beqz	a2,3198 <_vfprintf_r+0x240>
    35b8:	001c8c93          	add	s9,s9,1
    35bc:	bddff06f          	j	3198 <_vfprintf_r+0x240>
    35c0:	01000593          	li	a1,16
    35c4:	0a412603          	lw	a2,164(sp)
    35c8:	0000db17          	auipc	s6,0xd
    35cc:	1bcb0b13          	add	s6,s6,444 # 10784 <blanks.1>
    35d0:	0ae5dc63          	bge	a1,a4,3688 <_vfprintf_r+0x730>
    35d4:	00040793          	mv	a5,s0
    35d8:	00048693          	mv	a3,s1
    35dc:	01000893          	li	a7,16
    35e0:	000b0493          	mv	s1,s6
    35e4:	00700393          	li	t2,7
    35e8:	000a0b13          	mv	s6,s4
    35ec:	04512223          	sw	t0,68(sp)
    35f0:	05f12823          	sw	t6,80(sp)
    35f4:	05d12a23          	sw	t4,84(sp)
    35f8:	05c12c23          	sw	t3,88(sp)
    35fc:	00070413          	mv	s0,a4
    3600:	00030a13          	mv	s4,t1
    3604:	00c0006f          	j	3610 <_vfprintf_r+0x6b8>
    3608:	ff040413          	add	s0,s0,-16
    360c:	0488da63          	bge	a7,s0,3660 <_vfprintf_r+0x708>
    3610:	01068693          	add	a3,a3,16
    3614:	00160613          	add	a2,a2,1
    3618:	0097a023          	sw	s1,0(a5)
    361c:	0117a223          	sw	a7,4(a5)
    3620:	0ad12423          	sw	a3,168(sp)
    3624:	0ac12223          	sw	a2,164(sp)
    3628:	00878793          	add	a5,a5,8
    362c:	fcc3dee3          	bge	t2,a2,3608 <_vfprintf_r+0x6b0>
    3630:	00812583          	lw	a1,8(sp)
    3634:	0a010613          	add	a2,sp,160
    3638:	00098513          	mv	a0,s3
    363c:	7d8020ef          	jal	5e14 <__sprint_r>
    3640:	de0514e3          	bnez	a0,3428 <_vfprintf_r+0x4d0>
    3644:	01000893          	li	a7,16
    3648:	ff040413          	add	s0,s0,-16
    364c:	0a812683          	lw	a3,168(sp)
    3650:	0a412603          	lw	a2,164(sp)
    3654:	0ac10793          	add	a5,sp,172
    3658:	00700393          	li	t2,7
    365c:	fa88cae3          	blt	a7,s0,3610 <_vfprintf_r+0x6b8>
    3660:	04412283          	lw	t0,68(sp)
    3664:	05012f83          	lw	t6,80(sp)
    3668:	05412e83          	lw	t4,84(sp)
    366c:	05812e03          	lw	t3,88(sp)
    3670:	000a0313          	mv	t1,s4
    3674:	00040713          	mv	a4,s0
    3678:	000b0a13          	mv	s4,s6
    367c:	00078413          	mv	s0,a5
    3680:	00048b13          	mv	s6,s1
    3684:	00068493          	mv	s1,a3
    3688:	00e484b3          	add	s1,s1,a4
    368c:	00160613          	add	a2,a2,1
    3690:	00e42223          	sw	a4,4(s0)
    3694:	01642023          	sw	s6,0(s0)
    3698:	0a912423          	sw	s1,168(sp)
    369c:	0ac12223          	sw	a2,164(sp)
    36a0:	00700713          	li	a4,7
    36a4:	00c75463          	bge	a4,a2,36ac <_vfprintf_r+0x754>
    36a8:	2380106f          	j	48e0 <_vfprintf_r+0x1988>
    36ac:	07714603          	lbu	a2,119(sp)
    36b0:	00840413          	add	s0,s0,8
    36b4:	b05ff06f          	j	31b8 <_vfprintf_r+0x260>
    36b8:	00812583          	lw	a1,8(sp)
    36bc:	0a010613          	add	a2,sp,160
    36c0:	00098513          	mv	a0,s3
    36c4:	04612e23          	sw	t1,92(sp)
    36c8:	05c12c23          	sw	t3,88(sp)
    36cc:	05d12a23          	sw	t4,84(sp)
    36d0:	05f12823          	sw	t6,80(sp)
    36d4:	04512223          	sw	t0,68(sp)
    36d8:	73c020ef          	jal	5e14 <__sprint_r>
    36dc:	d40516e3          	bnez	a0,3428 <_vfprintf_r+0x4d0>
    36e0:	0a812483          	lw	s1,168(sp)
    36e4:	05c12303          	lw	t1,92(sp)
    36e8:	05812e03          	lw	t3,88(sp)
    36ec:	05412e83          	lw	t4,84(sp)
    36f0:	05012f83          	lw	t6,80(sp)
    36f4:	04412283          	lw	t0,68(sp)
    36f8:	0ac10413          	add	s0,sp,172
    36fc:	af1ff06f          	j	31ec <_vfprintf_r+0x294>
    3700:	0a412d03          	lw	s10,164(sp)
    3704:	01812783          	lw	a5,24(sp)
    3708:	00100693          	li	a3,1
    370c:	01842023          	sw	s8,0(s0)
    3710:	00148493          	add	s1,s1,1
    3714:	001d0d13          	add	s10,s10,1
    3718:	00840b13          	add	s6,s0,8
    371c:	32f6d0e3          	bge	a3,a5,423c <_vfprintf_r+0x12e4>
    3720:	00100693          	li	a3,1
    3724:	00d42223          	sw	a3,4(s0)
    3728:	0a912423          	sw	s1,168(sp)
    372c:	0ba12223          	sw	s10,164(sp)
    3730:	00700693          	li	a3,7
    3734:	01a6d463          	bge	a3,s10,373c <_vfprintf_r+0x7e4>
    3738:	0680106f          	j	47a0 <_vfprintf_r+0x1848>
    373c:	03012783          	lw	a5,48(sp)
    3740:	03412703          	lw	a4,52(sp)
    3744:	001d0d13          	add	s10,s10,1
    3748:	00f484b3          	add	s1,s1,a5
    374c:	00eb2023          	sw	a4,0(s6)
    3750:	00fb2223          	sw	a5,4(s6)
    3754:	0a912423          	sw	s1,168(sp)
    3758:	0ba12223          	sw	s10,164(sp)
    375c:	00700693          	li	a3,7
    3760:	008b0b13          	add	s6,s6,8
    3764:	01a6d463          	bge	a3,s10,376c <_vfprintf_r+0x814>
    3768:	0680106f          	j	47d0 <_vfprintf_r+0x1878>
    376c:	02812603          	lw	a2,40(sp)
    3770:	02c12683          	lw	a3,44(sp)
    3774:	01812783          	lw	a5,24(sp)
    3778:	00060513          	mv	a0,a2
    377c:	00068593          	mv	a1,a3
    3780:	00000613          	li	a2,0
    3784:	00000693          	li	a3,0
    3788:	03d12023          	sw	t4,32(sp)
    378c:	fff78413          	add	s0,a5,-1
    3790:	4c50a0ef          	jal	e454 <__eqdf2>
    3794:	02012e83          	lw	t4,32(sp)
    3798:	2e0506e3          	beqz	a0,4284 <_vfprintf_r+0x132c>
    379c:	001c0793          	add	a5,s8,1
    37a0:	001d0d13          	add	s10,s10,1
    37a4:	008484b3          	add	s1,s1,s0
    37a8:	00fb2023          	sw	a5,0(s6)
    37ac:	008b2223          	sw	s0,4(s6)
    37b0:	0a912423          	sw	s1,168(sp)
    37b4:	0ba12223          	sw	s10,164(sp)
    37b8:	00700793          	li	a5,7
    37bc:	008b0b13          	add	s6,s6,8
    37c0:	29a7cce3          	blt	a5,s10,4258 <_vfprintf_r+0x1300>
    37c4:	04012703          	lw	a4,64(sp)
    37c8:	08810793          	add	a5,sp,136
    37cc:	001d0d13          	add	s10,s10,1
    37d0:	009704b3          	add	s1,a4,s1
    37d4:	00fb2023          	sw	a5,0(s6)
    37d8:	00eb2223          	sw	a4,4(s6)
    37dc:	0a912423          	sw	s1,168(sp)
    37e0:	0ba12223          	sw	s10,164(sp)
    37e4:	00700793          	li	a5,7
    37e8:	008b0413          	add	s0,s6,8
    37ec:	a7a7dae3          	bge	a5,s10,3260 <_vfprintf_r+0x308>
    37f0:	00812583          	lw	a1,8(sp)
    37f4:	0a010613          	add	a2,sp,160
    37f8:	00098513          	mv	a0,s3
    37fc:	03d12023          	sw	t4,32(sp)
    3800:	614020ef          	jal	5e14 <__sprint_r>
    3804:	c20512e3          	bnez	a0,3428 <_vfprintf_r+0x4d0>
    3808:	0a812483          	lw	s1,168(sp)
    380c:	02012e83          	lw	t4,32(sp)
    3810:	0ac10413          	add	s0,sp,172
    3814:	a4dff06f          	j	3260 <_vfprintf_r+0x308>
    3818:	2007f713          	and	a4,a5,512
    381c:	c2071ce3          	bnez	a4,3454 <_vfprintf_r+0x4fc>
    3820:	00812403          	lw	s0,8(sp)
    3824:	05842503          	lw	a0,88(s0)
    3828:	fd8fe0ef          	jal	2000 <__retarget_lock_release_recursive>
    382c:	00c41783          	lh	a5,12(s0)
    3830:	c25ff06f          	j	3454 <_vfprintf_r+0x4fc>
    3834:	00094e03          	lbu	t3,0(s2)
    3838:	020a6a13          	or	s4,s4,32
    383c:	8cdff06f          	j	3108 <_vfprintf_r+0x1b0>
    3840:	01412703          	lw	a4,20(sp)
    3844:	04300793          	li	a5,67
    3848:	000a0e93          	mv	t4,s4
    384c:	00470493          	add	s1,a4,4
    3850:	64fe08e3          	beq	t3,a5,46a0 <_vfprintf_r+0x1748>
    3854:	010a7793          	and	a5,s4,16
    3858:	640794e3          	bnez	a5,46a0 <_vfprintf_r+0x1748>
    385c:	01412783          	lw	a5,20(sp)
    3860:	00100c93          	li	s9,1
    3864:	00100d13          	li	s10,1
    3868:	0007a783          	lw	a5,0(a5)
    386c:	0ec10c13          	add	s8,sp,236
    3870:	0ef10623          	sb	a5,236(sp)
    3874:	06010ba3          	sb	zero,119(sp)
    3878:	00912a23          	sw	s1,20(sp)
    387c:	00000613          	li	a2,0
    3880:	00012823          	sw	zero,16(sp)
    3884:	00000313          	li	t1,0
    3888:	02012223          	sw	zero,36(sp)
    388c:	02012023          	sw	zero,32(sp)
    3890:	00000a13          	li	s4,0
    3894:	905ff06f          	j	3198 <_vfprintf_r+0x240>
    3898:	01412783          	lw	a5,20(sp)
    389c:	06010ba3          	sb	zero,119(sp)
    38a0:	000b0313          	mv	t1,s6
    38a4:	0007ac03          	lw	s8,0(a5)
    38a8:	000a0e93          	mv	t4,s4
    38ac:	00478b13          	add	s6,a5,4
    38b0:	5a0c0ce3          	beqz	s8,4668 <_vfprintf_r+0x1710>
    38b4:	05300713          	li	a4,83
    38b8:	00ee1463          	bne	t3,a4,38c0 <_vfprintf_r+0x968>
    38bc:	1d00106f          	j	4a8c <_vfprintf_r+0x1b34>
    38c0:	010a7a13          	and	s4,s4,16
    38c4:	000a0463          	beqz	s4,38cc <_vfprintf_r+0x974>
    38c8:	1c40106f          	j	4a8c <_vfprintf_r+0x1b34>
    38cc:	00035463          	bgez	t1,38d4 <_vfprintf_r+0x97c>
    38d0:	6d40106f          	j	4fa4 <_vfprintf_r+0x204c>
    38d4:	00030613          	mv	a2,t1
    38d8:	00000593          	li	a1,0
    38dc:	000c0513          	mv	a0,s8
    38e0:	03d12023          	sw	t4,32(sp)
    38e4:	00612a23          	sw	t1,20(sp)
    38e8:	0ec050ef          	jal	89d4 <memchr>
    38ec:	00a12823          	sw	a0,16(sp)
    38f0:	01412303          	lw	t1,20(sp)
    38f4:	02012e83          	lw	t4,32(sp)
    38f8:	00051463          	bnez	a0,3900 <_vfprintf_r+0x9a8>
    38fc:	1780206f          	j	5a74 <_vfprintf_r+0x2b1c>
    3900:	01012783          	lw	a5,16(sp)
    3904:	07714603          	lbu	a2,119(sp)
    3908:	01612a23          	sw	s6,20(sp)
    390c:	41878d33          	sub	s10,a5,s8
    3910:	fffd4813          	not	a6,s10
    3914:	41f85813          	sra	a6,a6,0x1f
    3918:	02012223          	sw	zero,36(sp)
    391c:	02012023          	sw	zero,32(sp)
    3920:	00012823          	sw	zero,16(sp)
    3924:	010d7cb3          	and	s9,s10,a6
    3928:	00000313          	li	t1,0
    392c:	07300e13          	li	t3,115
    3930:	860604e3          	beqz	a2,3198 <_vfprintf_r+0x240>
    3934:	c85ff06f          	j	35b8 <_vfprintf_r+0x660>
    3938:	01412783          	lw	a5,20(sp)
    393c:	0007ab83          	lw	s7,0(a5)
    3940:	00478793          	add	a5,a5,4
    3944:	2a0bdae3          	bgez	s7,43f8 <_vfprintf_r+0x14a0>
    3948:	41700bb3          	neg	s7,s7
    394c:	00f12a23          	sw	a5,20(sp)
    3950:	00094e03          	lbu	t3,0(s2)
    3954:	004a6a13          	or	s4,s4,4
    3958:	fb0ff06f          	j	3108 <_vfprintf_r+0x1b0>
    395c:	02b00793          	li	a5,43
    3960:	00094e03          	lbu	t3,0(s2)
    3964:	06f10ba3          	sb	a5,119(sp)
    3968:	fa0ff06f          	j	3108 <_vfprintf_r+0x1b0>
    396c:	000b0313          	mv	t1,s6
    3970:	010a6613          	or	a2,s4,16
    3974:	02067793          	and	a5,a2,32
    3978:	1c0780e3          	beqz	a5,4338 <_vfprintf_r+0x13e0>
    397c:	01412783          	lw	a5,20(sp)
    3980:	00778b13          	add	s6,a5,7
    3984:	ff8b7b13          	and	s6,s6,-8
    3988:	000b2d03          	lw	s10,0(s6)
    398c:	004b2c83          	lw	s9,4(s6)
    3990:	008b0793          	add	a5,s6,8
    3994:	00f12a23          	sw	a5,20(sp)
    3998:	00100793          	li	a5,1
    399c:	00000713          	li	a4,0
    39a0:	06e10ba3          	sb	a4,119(sp)
    39a4:	34034c63          	bltz	t1,3cfc <_vfprintf_r+0xda4>
    39a8:	019d6733          	or	a4,s10,s9
    39ac:	f7f67e93          	and	t4,a2,-129
    39b0:	34071463          	bnez	a4,3cf8 <_vfprintf_r+0xda0>
    39b4:	3a031a63          	bnez	t1,3d68 <_vfprintf_r+0xe10>
    39b8:	5c079ee3          	bnez	a5,4794 <_vfprintf_r+0x183c>
    39bc:	00167d13          	and	s10,a2,1
    39c0:	15010c13          	add	s8,sp,336
    39c4:	2c0d10e3          	bnez	s10,4484 <_vfprintf_r+0x152c>
    39c8:	07714603          	lbu	a2,119(sp)
    39cc:	00030c93          	mv	s9,t1
    39d0:	01a35463          	bge	t1,s10,39d8 <_vfprintf_r+0xa80>
    39d4:	000d0c93          	mv	s9,s10
    39d8:	00012823          	sw	zero,16(sp)
    39dc:	02012223          	sw	zero,36(sp)
    39e0:	02012023          	sw	zero,32(sp)
    39e4:	00000a13          	li	s4,0
    39e8:	fa060863          	beqz	a2,3198 <_vfprintf_r+0x240>
    39ec:	bcdff06f          	j	35b8 <_vfprintf_r+0x660>
    39f0:	00094e03          	lbu	t3,0(s2)
    39f4:	080a6a13          	or	s4,s4,128
    39f8:	f10ff06f          	j	3108 <_vfprintf_r+0x1b0>
    39fc:	00094e03          	lbu	t3,0(s2)
    3a00:	02a00793          	li	a5,42
    3a04:	00190693          	add	a3,s2,1
    3a08:	00fe1463          	bne	t3,a5,3a10 <_vfprintf_r+0xab8>
    3a0c:	1100206f          	j	5b1c <_vfprintf_r+0x2bc4>
    3a10:	fd0e0713          	add	a4,t3,-48
    3a14:	00900793          	li	a5,9
    3a18:	00000b13          	li	s6,0
    3a1c:	00900613          	li	a2,9
    3a20:	02e7e463          	bltu	a5,a4,3a48 <_vfprintf_r+0xaf0>
    3a24:	0006ce03          	lbu	t3,0(a3)
    3a28:	002b1793          	sll	a5,s6,0x2
    3a2c:	016787b3          	add	a5,a5,s6
    3a30:	00179793          	sll	a5,a5,0x1
    3a34:	00e78b33          	add	s6,a5,a4
    3a38:	fd0e0713          	add	a4,t3,-48
    3a3c:	00168693          	add	a3,a3,1
    3a40:	fee672e3          	bgeu	a2,a4,3a24 <_vfprintf_r+0xacc>
    3a44:	320b4ce3          	bltz	s6,457c <_vfprintf_r+0x1624>
    3a48:	00068913          	mv	s2,a3
    3a4c:	ec0ff06f          	j	310c <_vfprintf_r+0x1b4>
    3a50:	00094e03          	lbu	t3,0(s2)
    3a54:	001a6a13          	or	s4,s4,1
    3a58:	eb0ff06f          	j	3108 <_vfprintf_r+0x1b0>
    3a5c:	07714783          	lbu	a5,119(sp)
    3a60:	00094e03          	lbu	t3,0(s2)
    3a64:	ea079263          	bnez	a5,3108 <_vfprintf_r+0x1b0>
    3a68:	02000793          	li	a5,32
    3a6c:	06f10ba3          	sb	a5,119(sp)
    3a70:	e98ff06f          	j	3108 <_vfprintf_r+0x1b0>
    3a74:	00094e03          	lbu	t3,0(s2)
    3a78:	06c00793          	li	a5,108
    3a7c:	3afe00e3          	beq	t3,a5,461c <_vfprintf_r+0x16c4>
    3a80:	010a6a13          	or	s4,s4,16
    3a84:	e84ff06f          	j	3108 <_vfprintf_r+0x1b0>
    3a88:	00094e03          	lbu	t3,0(s2)
    3a8c:	008a6a13          	or	s4,s4,8
    3a90:	e78ff06f          	j	3108 <_vfprintf_r+0x1b0>
    3a94:	000b0313          	mv	t1,s6
    3a98:	010a6e93          	or	t4,s4,16
    3a9c:	020ef793          	and	a5,t4,32
    3aa0:	0c0786e3          	beqz	a5,436c <_vfprintf_r+0x1414>
    3aa4:	01412783          	lw	a5,20(sp)
    3aa8:	00778b13          	add	s6,a5,7
    3aac:	ff8b7b13          	and	s6,s6,-8
    3ab0:	004b2783          	lw	a5,4(s6)
    3ab4:	000b2d03          	lw	s10,0(s6)
    3ab8:	008b0713          	add	a4,s6,8
    3abc:	00e12a23          	sw	a4,20(sp)
    3ac0:	00078c93          	mv	s9,a5
    3ac4:	0c07cee3          	bltz	a5,43a0 <_vfprintf_r+0x1448>
    3ac8:	000e8613          	mv	a2,t4
    3acc:	02034263          	bltz	t1,3af0 <_vfprintf_r+0xb98>
    3ad0:	019d67b3          	or	a5,s10,s9
    3ad4:	f7fef613          	and	a2,t4,-129
    3ad8:	00079c63          	bnez	a5,3af0 <_vfprintf_r+0xb98>
    3adc:	02031063          	bnez	t1,3afc <_vfprintf_r+0xba4>
    3ae0:	00000d13          	li	s10,0
    3ae4:	00060e93          	mv	t4,a2
    3ae8:	15010c13          	add	s8,sp,336
    3aec:	eddff06f          	j	39c8 <_vfprintf_r+0xa70>
    3af0:	520c90e3          	bnez	s9,4810 <_vfprintf_r+0x18b8>
    3af4:	00900793          	li	a5,9
    3af8:	51a7ece3          	bltu	a5,s10,4810 <_vfprintf_r+0x18b8>
    3afc:	030d0d13          	add	s10,s10,48
    3b00:	15a107a3          	sb	s10,335(sp)
    3b04:	00060e93          	mv	t4,a2
    3b08:	00100d13          	li	s10,1
    3b0c:	14f10c13          	add	s8,sp,335
    3b10:	eb9ff06f          	j	39c8 <_vfprintf_r+0xa70>
    3b14:	000b0313          	mv	t1,s6
    3b18:	010a6e93          	or	t4,s4,16
    3b1c:	020ef793          	and	a5,t4,32
    3b20:	7e078463          	beqz	a5,4308 <_vfprintf_r+0x13b0>
    3b24:	01412783          	lw	a5,20(sp)
    3b28:	00778b13          	add	s6,a5,7
    3b2c:	ff8b7b13          	and	s6,s6,-8
    3b30:	000b2d03          	lw	s10,0(s6)
    3b34:	004b2c83          	lw	s9,4(s6)
    3b38:	008b0793          	add	a5,s6,8
    3b3c:	00f12a23          	sw	a5,20(sp)
    3b40:	bffef613          	and	a2,t4,-1025
    3b44:	00000793          	li	a5,0
    3b48:	e55ff06f          	j	399c <_vfprintf_r+0xa44>
    3b4c:	00094e03          	lbu	t3,0(s2)
    3b50:	06800793          	li	a5,104
    3b54:	2cfe0ce3          	beq	t3,a5,462c <_vfprintf_r+0x16d4>
    3b58:	040a6a13          	or	s4,s4,64
    3b5c:	dacff06f          	j	3108 <_vfprintf_r+0x1b0>
    3b60:	01412703          	lw	a4,20(sp)
    3b64:	000087b7          	lui	a5,0x8
    3b68:	83078793          	add	a5,a5,-2000 # 7830 <__sflush_r+0x154>
    3b6c:	06f11c23          	sh	a5,120(sp)
    3b70:	00470793          	add	a5,a4,4
    3b74:	00f12a23          	sw	a5,20(sp)
    3b78:	0000c797          	auipc	a5,0xc
    3b7c:	71478793          	add	a5,a5,1812 # 1028c <__fini_array_end+0x2e4>
    3b80:	02f12c23          	sw	a5,56(sp)
    3b84:	00072d03          	lw	s10,0(a4)
    3b88:	000b0313          	mv	t1,s6
    3b8c:	00000c93          	li	s9,0
    3b90:	002a6613          	or	a2,s4,2
    3b94:	00200793          	li	a5,2
    3b98:	07800e13          	li	t3,120
    3b9c:	e01ff06f          	j	399c <_vfprintf_r+0xa44>
    3ba0:	020a7793          	and	a5,s4,32
    3ba4:	180784e3          	beqz	a5,452c <_vfprintf_r+0x15d4>
    3ba8:	01412783          	lw	a5,20(sp)
    3bac:	00c12683          	lw	a3,12(sp)
    3bb0:	0007a783          	lw	a5,0(a5)
    3bb4:	41f6d713          	sra	a4,a3,0x1f
    3bb8:	00d7a023          	sw	a3,0(a5)
    3bbc:	00e7a223          	sw	a4,4(a5)
    3bc0:	01412783          	lw	a5,20(sp)
    3bc4:	00090c13          	mv	s8,s2
    3bc8:	00478793          	add	a5,a5,4
    3bcc:	00f12a23          	sw	a5,20(sp)
    3bd0:	cccff06f          	j	309c <_vfprintf_r+0x144>
    3bd4:	06500713          	li	a4,101
    3bd8:	b3c754e3          	bge	a4,t3,3700 <_vfprintf_r+0x7a8>
    3bdc:	02812683          	lw	a3,40(sp)
    3be0:	02c12703          	lw	a4,44(sp)
    3be4:	00000613          	li	a2,0
    3be8:	00068513          	mv	a0,a3
    3bec:	00070593          	mv	a1,a4
    3bf0:	00000693          	li	a3,0
    3bf4:	05d12223          	sw	t4,68(sp)
    3bf8:	05d0a0ef          	jal	e454 <__eqdf2>
    3bfc:	04412e83          	lw	t4,68(sp)
    3c00:	4e051463          	bnez	a0,40e8 <_vfprintf_r+0x1190>
    3c04:	0a412783          	lw	a5,164(sp)
    3c08:	0000c717          	auipc	a4,0xc
    3c0c:	6b470713          	add	a4,a4,1716 # 102bc <__fini_array_end+0x314>
    3c10:	00e42023          	sw	a4,0(s0)
    3c14:	00148493          	add	s1,s1,1
    3c18:	00100713          	li	a4,1
    3c1c:	00178793          	add	a5,a5,1
    3c20:	00e42223          	sw	a4,4(s0)
    3c24:	0a912423          	sw	s1,168(sp)
    3c28:	0af12223          	sw	a5,164(sp)
    3c2c:	00700713          	li	a4,7
    3c30:	00840413          	add	s0,s0,8
    3c34:	62f746e3          	blt	a4,a5,4a60 <_vfprintf_r+0x1b08>
    3c38:	07c12783          	lw	a5,124(sp)
    3c3c:	01812703          	lw	a4,24(sp)
    3c40:	78e7de63          	bge	a5,a4,43dc <_vfprintf_r+0x1484>
    3c44:	03412783          	lw	a5,52(sp)
    3c48:	03012703          	lw	a4,48(sp)
    3c4c:	00840413          	add	s0,s0,8
    3c50:	fef42c23          	sw	a5,-8(s0)
    3c54:	0a412783          	lw	a5,164(sp)
    3c58:	00e484b3          	add	s1,s1,a4
    3c5c:	fee42e23          	sw	a4,-4(s0)
    3c60:	00178793          	add	a5,a5,1
    3c64:	0a912423          	sw	s1,168(sp)
    3c68:	0af12223          	sw	a5,164(sp)
    3c6c:	00700713          	li	a4,7
    3c70:	1cf746e3          	blt	a4,a5,463c <_vfprintf_r+0x16e4>
    3c74:	01812783          	lw	a5,24(sp)
    3c78:	fff78d13          	add	s10,a5,-1
    3c7c:	dfa05263          	blez	s10,3260 <_vfprintf_r+0x308>
    3c80:	01000713          	li	a4,16
    3c84:	0a412783          	lw	a5,164(sp)
    3c88:	0000d297          	auipc	t0,0xd
    3c8c:	aec28293          	add	t0,t0,-1300 # 10774 <zeroes.0>
    3c90:	77a752e3          	bge	a4,s10,4bf4 <_vfprintf_r+0x1c9c>
    3c94:	00048713          	mv	a4,s1
    3c98:	01000c13          	li	s8,16
    3c9c:	00700b13          	li	s6,7
    3ca0:	000e8493          	mv	s1,t4
    3ca4:	00028a13          	mv	s4,t0
    3ca8:	00c0006f          	j	3cb4 <_vfprintf_r+0xd5c>
    3cac:	ff0d0d13          	add	s10,s10,-16
    3cb0:	73ac5ce3          	bge	s8,s10,4be8 <_vfprintf_r+0x1c90>
    3cb4:	01070713          	add	a4,a4,16
    3cb8:	00178793          	add	a5,a5,1
    3cbc:	01442023          	sw	s4,0(s0)
    3cc0:	01842223          	sw	s8,4(s0)
    3cc4:	0ae12423          	sw	a4,168(sp)
    3cc8:	0af12223          	sw	a5,164(sp)
    3ccc:	00840413          	add	s0,s0,8
    3cd0:	fcfb5ee3          	bge	s6,a5,3cac <_vfprintf_r+0xd54>
    3cd4:	00812583          	lw	a1,8(sp)
    3cd8:	0a010613          	add	a2,sp,160
    3cdc:	00098513          	mv	a0,s3
    3ce0:	134020ef          	jal	5e14 <__sprint_r>
    3ce4:	f4051263          	bnez	a0,3428 <_vfprintf_r+0x4d0>
    3ce8:	0a812703          	lw	a4,168(sp)
    3cec:	0a412783          	lw	a5,164(sp)
    3cf0:	0ac10413          	add	s0,sp,172
    3cf4:	fb9ff06f          	j	3cac <_vfprintf_r+0xd54>
    3cf8:	000e8613          	mv	a2,t4
    3cfc:	00100713          	li	a4,1
    3d00:	dee788e3          	beq	a5,a4,3af0 <_vfprintf_r+0xb98>
    3d04:	00200713          	li	a4,2
    3d08:	06e78c63          	beq	a5,a4,3d80 <_vfprintf_r+0xe28>
    3d0c:	15010c13          	add	s8,sp,336
    3d10:	01dc9793          	sll	a5,s9,0x1d
    3d14:	007d7713          	and	a4,s10,7
    3d18:	003d5d13          	srl	s10,s10,0x3
    3d1c:	03070713          	add	a4,a4,48
    3d20:	01a7ed33          	or	s10,a5,s10
    3d24:	003cdc93          	srl	s9,s9,0x3
    3d28:	feec0fa3          	sb	a4,-1(s8)
    3d2c:	019d67b3          	or	a5,s10,s9
    3d30:	000c0593          	mv	a1,s8
    3d34:	fffc0c13          	add	s8,s8,-1
    3d38:	fc079ce3          	bnez	a5,3d10 <_vfprintf_r+0xdb8>
    3d3c:	00167693          	and	a3,a2,1
    3d40:	06068a63          	beqz	a3,3db4 <_vfprintf_r+0xe5c>
    3d44:	03000693          	li	a3,48
    3d48:	06d70663          	beq	a4,a3,3db4 <_vfprintf_r+0xe5c>
    3d4c:	ffe58593          	add	a1,a1,-2 # 1ffe <__retarget_lock_acquire_recursive+0x2>
    3d50:	15010793          	add	a5,sp,336
    3d54:	fedc0fa3          	sb	a3,-1(s8)
    3d58:	40b78d33          	sub	s10,a5,a1
    3d5c:	00060e93          	mv	t4,a2
    3d60:	00058c13          	mv	s8,a1
    3d64:	c65ff06f          	j	39c8 <_vfprintf_r+0xa70>
    3d68:	00100713          	li	a4,1
    3d6c:	00e79463          	bne	a5,a4,3d74 <_vfprintf_r+0xe1c>
    3d70:	2b10106f          	j	5820 <_vfprintf_r+0x28c8>
    3d74:	00200713          	li	a4,2
    3d78:	000e8613          	mv	a2,t4
    3d7c:	f8e798e3          	bne	a5,a4,3d0c <_vfprintf_r+0xdb4>
    3d80:	03812683          	lw	a3,56(sp)
    3d84:	15010c13          	add	s8,sp,336
    3d88:	00fd7793          	and	a5,s10,15
    3d8c:	00f687b3          	add	a5,a3,a5
    3d90:	0007c703          	lbu	a4,0(a5)
    3d94:	004d5d13          	srl	s10,s10,0x4
    3d98:	01cc9793          	sll	a5,s9,0x1c
    3d9c:	01a7ed33          	or	s10,a5,s10
    3da0:	004cdc93          	srl	s9,s9,0x4
    3da4:	feec0fa3          	sb	a4,-1(s8)
    3da8:	019d67b3          	or	a5,s10,s9
    3dac:	fffc0c13          	add	s8,s8,-1
    3db0:	fc079ce3          	bnez	a5,3d88 <_vfprintf_r+0xe30>
    3db4:	15010793          	add	a5,sp,336
    3db8:	41878d33          	sub	s10,a5,s8
    3dbc:	00060e93          	mv	t4,a2
    3dc0:	c09ff06f          	j	39c8 <_vfprintf_r+0xa70>
    3dc4:	419b8b33          	sub	s6,s7,s9
    3dc8:	c7605063          	blez	s6,3228 <_vfprintf_r+0x2d0>
    3dcc:	01000593          	li	a1,16
    3dd0:	0a412603          	lw	a2,164(sp)
    3dd4:	0000d297          	auipc	t0,0xd
    3dd8:	9a028293          	add	t0,t0,-1632 # 10774 <zeroes.0>
    3ddc:	0b65d463          	bge	a1,s6,3e84 <_vfprintf_r+0xf2c>
    3de0:	00040793          	mv	a5,s0
    3de4:	00048713          	mv	a4,s1
    3de8:	000b0413          	mv	s0,s6
    3dec:	01000893          	li	a7,16
    3df0:	000a0b13          	mv	s6,s4
    3df4:	00700f93          	li	t6,7
    3df8:	05d12223          	sw	t4,68(sp)
    3dfc:	05c12823          	sw	t3,80(sp)
    3e00:	00030a13          	mv	s4,t1
    3e04:	00028493          	mv	s1,t0
    3e08:	00c0006f          	j	3e14 <_vfprintf_r+0xebc>
    3e0c:	ff040413          	add	s0,s0,-16
    3e10:	0488da63          	bge	a7,s0,3e64 <_vfprintf_r+0xf0c>
    3e14:	01070713          	add	a4,a4,16
    3e18:	00160613          	add	a2,a2,1
    3e1c:	0097a023          	sw	s1,0(a5)
    3e20:	0117a223          	sw	a7,4(a5)
    3e24:	0ae12423          	sw	a4,168(sp)
    3e28:	0ac12223          	sw	a2,164(sp)
    3e2c:	00878793          	add	a5,a5,8
    3e30:	fccfdee3          	bge	t6,a2,3e0c <_vfprintf_r+0xeb4>
    3e34:	00812583          	lw	a1,8(sp)
    3e38:	0a010613          	add	a2,sp,160
    3e3c:	00098513          	mv	a0,s3
    3e40:	7d5010ef          	jal	5e14 <__sprint_r>
    3e44:	de051263          	bnez	a0,3428 <_vfprintf_r+0x4d0>
    3e48:	01000893          	li	a7,16
    3e4c:	ff040413          	add	s0,s0,-16
    3e50:	0a812703          	lw	a4,168(sp)
    3e54:	0a412603          	lw	a2,164(sp)
    3e58:	0ac10793          	add	a5,sp,172
    3e5c:	00700f93          	li	t6,7
    3e60:	fa88cae3          	blt	a7,s0,3e14 <_vfprintf_r+0xebc>
    3e64:	04412e83          	lw	t4,68(sp)
    3e68:	05012e03          	lw	t3,80(sp)
    3e6c:	000a0313          	mv	t1,s4
    3e70:	00048293          	mv	t0,s1
    3e74:	000b0a13          	mv	s4,s6
    3e78:	00070493          	mv	s1,a4
    3e7c:	00040b13          	mv	s6,s0
    3e80:	00078413          	mv	s0,a5
    3e84:	016484b3          	add	s1,s1,s6
    3e88:	00160613          	add	a2,a2,1
    3e8c:	00542023          	sw	t0,0(s0)
    3e90:	01642223          	sw	s6,4(s0)
    3e94:	0a912423          	sw	s1,168(sp)
    3e98:	0ac12223          	sw	a2,164(sp)
    3e9c:	00700713          	li	a4,7
    3ea0:	00840413          	add	s0,s0,8
    3ea4:	b8c75263          	bge	a4,a2,3228 <_vfprintf_r+0x2d0>
    3ea8:	00812583          	lw	a1,8(sp)
    3eac:	0a010613          	add	a2,sp,160
    3eb0:	00098513          	mv	a0,s3
    3eb4:	04612a23          	sw	t1,84(sp)
    3eb8:	05c12823          	sw	t3,80(sp)
    3ebc:	05d12223          	sw	t4,68(sp)
    3ec0:	755010ef          	jal	5e14 <__sprint_r>
    3ec4:	d6051263          	bnez	a0,3428 <_vfprintf_r+0x4d0>
    3ec8:	0a812483          	lw	s1,168(sp)
    3ecc:	05412303          	lw	t1,84(sp)
    3ed0:	05012e03          	lw	t3,80(sp)
    3ed4:	04412e83          	lw	t4,68(sp)
    3ed8:	0ac10413          	add	s0,sp,172
    3edc:	b4cff06f          	j	3228 <_vfprintf_r+0x2d0>
    3ee0:	01000713          	li	a4,16
    3ee4:	0a412603          	lw	a2,164(sp)
    3ee8:	0000d297          	auipc	t0,0xd
    3eec:	88c28293          	add	t0,t0,-1908 # 10774 <zeroes.0>
    3ef0:	0b675063          	bge	a4,s6,3f90 <_vfprintf_r+0x1038>
    3ef4:	00040793          	mv	a5,s0
    3ef8:	00048693          	mv	a3,s1
    3efc:	000b0413          	mv	s0,s6
    3f00:	01000713          	li	a4,16
    3f04:	00700893          	li	a7,7
    3f08:	05d12223          	sw	t4,68(sp)
    3f0c:	000e0493          	mv	s1,t3
    3f10:	00028b13          	mv	s6,t0
    3f14:	00c0006f          	j	3f20 <_vfprintf_r+0xfc8>
    3f18:	ff040413          	add	s0,s0,-16
    3f1c:	04875e63          	bge	a4,s0,3f78 <_vfprintf_r+0x1020>
    3f20:	01068693          	add	a3,a3,16
    3f24:	00160613          	add	a2,a2,1
    3f28:	0000d597          	auipc	a1,0xd
    3f2c:	84c58593          	add	a1,a1,-1972 # 10774 <zeroes.0>
    3f30:	00b7a023          	sw	a1,0(a5)
    3f34:	00e7a223          	sw	a4,4(a5)
    3f38:	0ad12423          	sw	a3,168(sp)
    3f3c:	0ac12223          	sw	a2,164(sp)
    3f40:	00878793          	add	a5,a5,8
    3f44:	fcc8dae3          	bge	a7,a2,3f18 <_vfprintf_r+0xfc0>
    3f48:	00812583          	lw	a1,8(sp)
    3f4c:	0a010613          	add	a2,sp,160
    3f50:	00098513          	mv	a0,s3
    3f54:	6c1010ef          	jal	5e14 <__sprint_r>
    3f58:	cc051863          	bnez	a0,3428 <_vfprintf_r+0x4d0>
    3f5c:	01000713          	li	a4,16
    3f60:	ff040413          	add	s0,s0,-16
    3f64:	0a812683          	lw	a3,168(sp)
    3f68:	0a412603          	lw	a2,164(sp)
    3f6c:	0ac10793          	add	a5,sp,172
    3f70:	00700893          	li	a7,7
    3f74:	fa8746e3          	blt	a4,s0,3f20 <_vfprintf_r+0xfc8>
    3f78:	04412e83          	lw	t4,68(sp)
    3f7c:	00048e13          	mv	t3,s1
    3f80:	000b0293          	mv	t0,s6
    3f84:	00068493          	mv	s1,a3
    3f88:	00040b13          	mv	s6,s0
    3f8c:	00078413          	mv	s0,a5
    3f90:	016484b3          	add	s1,s1,s6
    3f94:	00160613          	add	a2,a2,1
    3f98:	00542023          	sw	t0,0(s0)
    3f9c:	01642223          	sw	s6,4(s0)
    3fa0:	0a912423          	sw	s1,168(sp)
    3fa4:	0ac12223          	sw	a2,164(sp)
    3fa8:	00700713          	li	a4,7
    3fac:	00840413          	add	s0,s0,8
    3fb0:	a8c75063          	bge	a4,a2,3230 <_vfprintf_r+0x2d8>
    3fb4:	00812583          	lw	a1,8(sp)
    3fb8:	0a010613          	add	a2,sp,160
    3fbc:	00098513          	mv	a0,s3
    3fc0:	05c12823          	sw	t3,80(sp)
    3fc4:	05d12223          	sw	t4,68(sp)
    3fc8:	64d010ef          	jal	5e14 <__sprint_r>
    3fcc:	c4051e63          	bnez	a0,3428 <_vfprintf_r+0x4d0>
    3fd0:	0a812483          	lw	s1,168(sp)
    3fd4:	05012e03          	lw	t3,80(sp)
    3fd8:	04412e83          	lw	t4,68(sp)
    3fdc:	0ac10413          	add	s0,sp,172
    3fe0:	a50ff06f          	j	3230 <_vfprintf_r+0x2d8>
    3fe4:	00812583          	lw	a1,8(sp)
    3fe8:	0a010613          	add	a2,sp,160
    3fec:	00098513          	mv	a0,s3
    3ff0:	04612c23          	sw	t1,88(sp)
    3ff4:	05c12a23          	sw	t3,84(sp)
    3ff8:	05d12823          	sw	t4,80(sp)
    3ffc:	05f12223          	sw	t6,68(sp)
    4000:	615010ef          	jal	5e14 <__sprint_r>
    4004:	c2051263          	bnez	a0,3428 <_vfprintf_r+0x4d0>
    4008:	0a812483          	lw	s1,168(sp)
    400c:	05812303          	lw	t1,88(sp)
    4010:	05412e03          	lw	t3,84(sp)
    4014:	05012e83          	lw	t4,80(sp)
    4018:	04412f83          	lw	t6,68(sp)
    401c:	0ac10413          	add	s0,sp,172
    4020:	a00ff06f          	j	3220 <_vfprintf_r+0x2c8>
    4024:	01000713          	li	a4,16
    4028:	0a412783          	lw	a5,164(sp)
    402c:	0000cb17          	auipc	s6,0xc
    4030:	758b0b13          	add	s6,s6,1880 # 10784 <blanks.1>
    4034:	07a75c63          	bge	a4,s10,40ac <_vfprintf_r+0x1154>
    4038:	000b0713          	mv	a4,s6
    403c:	01000c13          	li	s8,16
    4040:	00090b13          	mv	s6,s2
    4044:	00700a13          	li	s4,7
    4048:	00070913          	mv	s2,a4
    404c:	00c0006f          	j	4058 <_vfprintf_r+0x1100>
    4050:	ff0d0d13          	add	s10,s10,-16
    4054:	05ac5663          	bge	s8,s10,40a0 <_vfprintf_r+0x1148>
    4058:	01048493          	add	s1,s1,16
    405c:	00178793          	add	a5,a5,1
    4060:	01242023          	sw	s2,0(s0)
    4064:	01842223          	sw	s8,4(s0)
    4068:	0a912423          	sw	s1,168(sp)
    406c:	0af12223          	sw	a5,164(sp)
    4070:	00840413          	add	s0,s0,8
    4074:	fcfa5ee3          	bge	s4,a5,4050 <_vfprintf_r+0x10f8>
    4078:	00812583          	lw	a1,8(sp)
    407c:	0a010613          	add	a2,sp,160
    4080:	00098513          	mv	a0,s3
    4084:	591010ef          	jal	5e14 <__sprint_r>
    4088:	ba051063          	bnez	a0,3428 <_vfprintf_r+0x4d0>
    408c:	ff0d0d13          	add	s10,s10,-16
    4090:	0a812483          	lw	s1,168(sp)
    4094:	0a412783          	lw	a5,164(sp)
    4098:	0ac10413          	add	s0,sp,172
    409c:	fbac4ee3          	blt	s8,s10,4058 <_vfprintf_r+0x1100>
    40a0:	00090713          	mv	a4,s2
    40a4:	000b0913          	mv	s2,s6
    40a8:	00070b13          	mv	s6,a4
    40ac:	01a484b3          	add	s1,s1,s10
    40b0:	00178793          	add	a5,a5,1
    40b4:	01642023          	sw	s6,0(s0)
    40b8:	01a42223          	sw	s10,4(s0)
    40bc:	0a912423          	sw	s1,168(sp)
    40c0:	0af12223          	sw	a5,164(sp)
    40c4:	00700713          	li	a4,7
    40c8:	9af75463          	bge	a4,a5,3270 <_vfprintf_r+0x318>
    40cc:	00812583          	lw	a1,8(sp)
    40d0:	0a010613          	add	a2,sp,160
    40d4:	00098513          	mv	a0,s3
    40d8:	53d010ef          	jal	5e14 <__sprint_r>
    40dc:	b4051663          	bnez	a0,3428 <_vfprintf_r+0x4d0>
    40e0:	0a812483          	lw	s1,168(sp)
    40e4:	98cff06f          	j	3270 <_vfprintf_r+0x318>
    40e8:	07c12683          	lw	a3,124(sp)
    40ec:	30d05c63          	blez	a3,4404 <_vfprintf_r+0x14ac>
    40f0:	01812783          	lw	a5,24(sp)
    40f4:	000a0b13          	mv	s6,s4
    40f8:	0147d463          	bge	a5,s4,4100 <_vfprintf_r+0x11a8>
    40fc:	00078b13          	mv	s6,a5
    4100:	03605863          	blez	s6,4130 <_vfprintf_r+0x11d8>
    4104:	0a412683          	lw	a3,164(sp)
    4108:	016484b3          	add	s1,s1,s6
    410c:	01842023          	sw	s8,0(s0)
    4110:	00168693          	add	a3,a3,1
    4114:	01642223          	sw	s6,4(s0)
    4118:	0a912423          	sw	s1,168(sp)
    411c:	0ad12223          	sw	a3,164(sp)
    4120:	00700613          	li	a2,7
    4124:	00840413          	add	s0,s0,8
    4128:	00d65463          	bge	a2,a3,4130 <_vfprintf_r+0x11d8>
    412c:	5c40106f          	j	56f0 <_vfprintf_r+0x2798>
    4130:	fffb4693          	not	a3,s6
    4134:	41f6d693          	sra	a3,a3,0x1f
    4138:	00db7733          	and	a4,s6,a3
    413c:	40ea0b33          	sub	s6,s4,a4
    4140:	35604ae3          	bgtz	s6,4c94 <_vfprintf_r+0x1d3c>
    4144:	400ef713          	and	a4,t4,1024
    4148:	014c0333          	add	t1,s8,s4
    414c:	00070463          	beqz	a4,4154 <_vfprintf_r+0x11fc>
    4150:	2980106f          	j	53e8 <_vfprintf_r+0x2490>
    4154:	07c12d03          	lw	s10,124(sp)
    4158:	01812783          	lw	a5,24(sp)
    415c:	5afd4063          	blt	s10,a5,46fc <_vfprintf_r+0x17a4>
    4160:	001ef713          	and	a4,t4,1
    4164:	58071c63          	bnez	a4,46fc <_vfprintf_r+0x17a4>
    4168:	01812703          	lw	a4,24(sp)
    416c:	00ec07b3          	add	a5,s8,a4
    4170:	41a70d33          	sub	s10,a4,s10
    4174:	40678b33          	sub	s6,a5,t1
    4178:	016d5463          	bge	s10,s6,4180 <_vfprintf_r+0x1228>
    417c:	000d0b13          	mv	s6,s10
    4180:	03605863          	blez	s6,41b0 <_vfprintf_r+0x1258>
    4184:	0a412703          	lw	a4,164(sp)
    4188:	016484b3          	add	s1,s1,s6
    418c:	00642023          	sw	t1,0(s0)
    4190:	00170713          	add	a4,a4,1
    4194:	01642223          	sw	s6,4(s0)
    4198:	0a912423          	sw	s1,168(sp)
    419c:	0ae12223          	sw	a4,164(sp)
    41a0:	00700693          	li	a3,7
    41a4:	00840413          	add	s0,s0,8
    41a8:	00e6d463          	bge	a3,a4,41b0 <_vfprintf_r+0x1258>
    41ac:	5880106f          	j	5734 <_vfprintf_r+0x27dc>
    41b0:	fffb4713          	not	a4,s6
    41b4:	41f75713          	sra	a4,a4,0x1f
    41b8:	00eb77b3          	and	a5,s6,a4
    41bc:	40fd0d33          	sub	s10,s10,a5
    41c0:	8ba05063          	blez	s10,3260 <_vfprintf_r+0x308>
    41c4:	01000713          	li	a4,16
    41c8:	0a412783          	lw	a5,164(sp)
    41cc:	0000c297          	auipc	t0,0xc
    41d0:	5a828293          	add	t0,t0,1448 # 10774 <zeroes.0>
    41d4:	23a750e3          	bge	a4,s10,4bf4 <_vfprintf_r+0x1c9c>
    41d8:	00048713          	mv	a4,s1
    41dc:	01000c13          	li	s8,16
    41e0:	00700b13          	li	s6,7
    41e4:	000e8493          	mv	s1,t4
    41e8:	00028a13          	mv	s4,t0
    41ec:	00c0006f          	j	41f8 <_vfprintf_r+0x12a0>
    41f0:	ff0d0d13          	add	s10,s10,-16
    41f4:	1fac5ae3          	bge	s8,s10,4be8 <_vfprintf_r+0x1c90>
    41f8:	01070713          	add	a4,a4,16
    41fc:	00178793          	add	a5,a5,1
    4200:	01442023          	sw	s4,0(s0)
    4204:	01842223          	sw	s8,4(s0)
    4208:	0ae12423          	sw	a4,168(sp)
    420c:	0af12223          	sw	a5,164(sp)
    4210:	00840413          	add	s0,s0,8
    4214:	fcfb5ee3          	bge	s6,a5,41f0 <_vfprintf_r+0x1298>
    4218:	00812583          	lw	a1,8(sp)
    421c:	0a010613          	add	a2,sp,160
    4220:	00098513          	mv	a0,s3
    4224:	3f1010ef          	jal	5e14 <__sprint_r>
    4228:	a0051063          	bnez	a0,3428 <_vfprintf_r+0x4d0>
    422c:	0a812703          	lw	a4,168(sp)
    4230:	0a412783          	lw	a5,164(sp)
    4234:	0ac10413          	add	s0,sp,172
    4238:	fb9ff06f          	j	41f0 <_vfprintf_r+0x1298>
    423c:	001ef613          	and	a2,t4,1
    4240:	ce061063          	bnez	a2,3720 <_vfprintf_r+0x7c8>
    4244:	00d42223          	sw	a3,4(s0)
    4248:	0a912423          	sw	s1,168(sp)
    424c:	0ba12223          	sw	s10,164(sp)
    4250:	00700793          	li	a5,7
    4254:	d7a7d863          	bge	a5,s10,37c4 <_vfprintf_r+0x86c>
    4258:	00812583          	lw	a1,8(sp)
    425c:	0a010613          	add	a2,sp,160
    4260:	00098513          	mv	a0,s3
    4264:	03d12023          	sw	t4,32(sp)
    4268:	3ad010ef          	jal	5e14 <__sprint_r>
    426c:	9a051e63          	bnez	a0,3428 <_vfprintf_r+0x4d0>
    4270:	0a812483          	lw	s1,168(sp)
    4274:	0a412d03          	lw	s10,164(sp)
    4278:	02012e83          	lw	t4,32(sp)
    427c:	0ac10b13          	add	s6,sp,172
    4280:	d44ff06f          	j	37c4 <_vfprintf_r+0x86c>
    4284:	01812703          	lw	a4,24(sp)
    4288:	00100793          	li	a5,1
    428c:	d2e7dc63          	bge	a5,a4,37c4 <_vfprintf_r+0x86c>
    4290:	01100793          	li	a5,17
    4294:	0000c297          	auipc	t0,0xc
    4298:	4e028293          	add	t0,t0,1248 # 10774 <zeroes.0>
    429c:	18e7d4e3          	bge	a5,a4,4c24 <_vfprintf_r+0x1ccc>
    42a0:	00040a13          	mv	s4,s0
    42a4:	01000793          	li	a5,16
    42a8:	00700c13          	li	s8,7
    42ac:	03d12023          	sw	t4,32(sp)
    42b0:	00028413          	mv	s0,t0
    42b4:	00c0006f          	j	42c0 <_vfprintf_r+0x1368>
    42b8:	ff0a0a13          	add	s4,s4,-16
    42bc:	1547dee3          	bge	a5,s4,4c18 <_vfprintf_r+0x1cc0>
    42c0:	01048493          	add	s1,s1,16
    42c4:	001d0d13          	add	s10,s10,1
    42c8:	008b2023          	sw	s0,0(s6)
    42cc:	00fb2223          	sw	a5,4(s6)
    42d0:	0a912423          	sw	s1,168(sp)
    42d4:	0ba12223          	sw	s10,164(sp)
    42d8:	008b0b13          	add	s6,s6,8
    42dc:	fdac5ee3          	bge	s8,s10,42b8 <_vfprintf_r+0x1360>
    42e0:	00812583          	lw	a1,8(sp)
    42e4:	0a010613          	add	a2,sp,160
    42e8:	00098513          	mv	a0,s3
    42ec:	329010ef          	jal	5e14 <__sprint_r>
    42f0:	92051c63          	bnez	a0,3428 <_vfprintf_r+0x4d0>
    42f4:	0a812483          	lw	s1,168(sp)
    42f8:	0a412d03          	lw	s10,164(sp)
    42fc:	0ac10b13          	add	s6,sp,172
    4300:	01000793          	li	a5,16
    4304:	fb5ff06f          	j	42b8 <_vfprintf_r+0x1360>
    4308:	01412703          	lw	a4,20(sp)
    430c:	010ef793          	and	a5,t4,16
    4310:	00072d03          	lw	s10,0(a4)
    4314:	00470713          	add	a4,a4,4
    4318:	00e12a23          	sw	a4,20(sp)
    431c:	1a079663          	bnez	a5,44c8 <_vfprintf_r+0x1570>
    4320:	040ef793          	and	a5,t4,64
    4324:	18078e63          	beqz	a5,44c0 <_vfprintf_r+0x1568>
    4328:	010d1d13          	sll	s10,s10,0x10
    432c:	010d5d13          	srl	s10,s10,0x10
    4330:	00000c93          	li	s9,0
    4334:	80dff06f          	j	3b40 <_vfprintf_r+0xbe8>
    4338:	01412703          	lw	a4,20(sp)
    433c:	01067793          	and	a5,a2,16
    4340:	00072d03          	lw	s10,0(a4)
    4344:	00470713          	add	a4,a4,4
    4348:	00e12a23          	sw	a4,20(sp)
    434c:	14079a63          	bnez	a5,44a0 <_vfprintf_r+0x1548>
    4350:	04067793          	and	a5,a2,64
    4354:	14078063          	beqz	a5,4494 <_vfprintf_r+0x153c>
    4358:	010d1d13          	sll	s10,s10,0x10
    435c:	010d5d13          	srl	s10,s10,0x10
    4360:	00000c93          	li	s9,0
    4364:	00100793          	li	a5,1
    4368:	e34ff06f          	j	399c <_vfprintf_r+0xa44>
    436c:	01412703          	lw	a4,20(sp)
    4370:	010ef793          	and	a5,t4,16
    4374:	00072d03          	lw	s10,0(a4)
    4378:	00470713          	add	a4,a4,4
    437c:	00e12a23          	sw	a4,20(sp)
    4380:	12079a63          	bnez	a5,44b4 <_vfprintf_r+0x155c>
    4384:	040ef793          	and	a5,t4,64
    4388:	12078263          	beqz	a5,44ac <_vfprintf_r+0x1554>
    438c:	010d1d13          	sll	s10,s10,0x10
    4390:	410d5d13          	sra	s10,s10,0x10
    4394:	41fd5c93          	sra	s9,s10,0x1f
    4398:	000c8793          	mv	a5,s9
    439c:	f207d663          	bgez	a5,3ac8 <_vfprintf_r+0xb70>
    43a0:	01a037b3          	snez	a5,s10
    43a4:	419000b3          	neg	ra,s9
    43a8:	40f08cb3          	sub	s9,ra,a5
    43ac:	41a00d33          	neg	s10,s10
    43b0:	000e8613          	mv	a2,t4
    43b4:	02d00713          	li	a4,45
    43b8:	00100793          	li	a5,1
    43bc:	de4ff06f          	j	39a0 <_vfprintf_r+0xa48>
    43c0:	00812403          	lw	s0,8(sp)
    43c4:	00f12623          	sw	a5,12(sp)
    43c8:	05842503          	lw	a0,88(s0)
    43cc:	c31fd0ef          	jal	1ffc <__retarget_lock_acquire_recursive>
    43d0:	00c41703          	lh	a4,12(s0)
    43d4:	00c12783          	lw	a5,12(sp)
    43d8:	c01fe06f          	j	2fd8 <_vfprintf_r+0x80>
    43dc:	001ef793          	and	a5,t4,1
    43e0:	00079463          	bnez	a5,43e8 <_vfprintf_r+0x1490>
    43e4:	e7dfe06f          	j	3260 <_vfprintf_r+0x308>
    43e8:	85dff06f          	j	3c44 <_vfprintf_r+0xcec>
    43ec:	000a0e93          	mv	t4,s4
    43f0:	000b0313          	mv	t1,s6
    43f4:	ea8ff06f          	j	3a9c <_vfprintf_r+0xb44>
    43f8:	00094e03          	lbu	t3,0(s2)
    43fc:	00f12a23          	sw	a5,20(sp)
    4400:	d09fe06f          	j	3108 <_vfprintf_r+0x1b0>
    4404:	0a412703          	lw	a4,164(sp)
    4408:	0000c617          	auipc	a2,0xc
    440c:	eb460613          	add	a2,a2,-332 # 102bc <__fini_array_end+0x314>
    4410:	00c42023          	sw	a2,0(s0)
    4414:	00148493          	add	s1,s1,1
    4418:	00100613          	li	a2,1
    441c:	00170713          	add	a4,a4,1
    4420:	00c42223          	sw	a2,4(s0)
    4424:	0a912423          	sw	s1,168(sp)
    4428:	0ae12223          	sw	a4,164(sp)
    442c:	00700613          	li	a2,7
    4430:	00840413          	add	s0,s0,8
    4434:	2ee64ce3          	blt	a2,a4,4f2c <_vfprintf_r+0x1fd4>
    4438:	7e069e63          	bnez	a3,4c34 <_vfprintf_r+0x1cdc>
    443c:	01812783          	lw	a5,24(sp)
    4440:	001ef713          	and	a4,t4,1
    4444:	00f76733          	or	a4,a4,a5
    4448:	00071463          	bnez	a4,4450 <_vfprintf_r+0x14f8>
    444c:	e15fe06f          	j	3260 <_vfprintf_r+0x308>
    4450:	03412703          	lw	a4,52(sp)
    4454:	03012783          	lw	a5,48(sp)
    4458:	00700693          	li	a3,7
    445c:	00e42023          	sw	a4,0(s0)
    4460:	0a412703          	lw	a4,164(sp)
    4464:	009784b3          	add	s1,a5,s1
    4468:	00f42223          	sw	a5,4(s0)
    446c:	00170713          	add	a4,a4,1
    4470:	0a912423          	sw	s1,168(sp)
    4474:	0ae12223          	sw	a4,164(sp)
    4478:	38e6c8e3          	blt	a3,a4,5008 <_vfprintf_r+0x20b0>
    447c:	00840413          	add	s0,s0,8
    4480:	7e80006f          	j	4c68 <_vfprintf_r+0x1d10>
    4484:	03000793          	li	a5,48
    4488:	14f107a3          	sb	a5,335(sp)
    448c:	14f10c13          	add	s8,sp,335
    4490:	d38ff06f          	j	39c8 <_vfprintf_r+0xa70>
    4494:	20067793          	and	a5,a2,512
    4498:	00078463          	beqz	a5,44a0 <_vfprintf_r+0x1548>
    449c:	0ffd7d13          	zext.b	s10,s10
    44a0:	00000c93          	li	s9,0
    44a4:	00100793          	li	a5,1
    44a8:	cf4ff06f          	j	399c <_vfprintf_r+0xa44>
    44ac:	200ef793          	and	a5,t4,512
    44b0:	2c0796e3          	bnez	a5,4f7c <_vfprintf_r+0x2024>
    44b4:	41fd5c93          	sra	s9,s10,0x1f
    44b8:	000c8793          	mv	a5,s9
    44bc:	e08ff06f          	j	3ac4 <_vfprintf_r+0xb6c>
    44c0:	200ef793          	and	a5,t4,512
    44c4:	2a0790e3          	bnez	a5,4f64 <_vfprintf_r+0x200c>
    44c8:	00000c93          	li	s9,0
    44cc:	e74ff06f          	j	3b40 <_vfprintf_r+0xbe8>
    44d0:	01412783          	lw	a5,20(sp)
    44d4:	06010513          	add	a0,sp,96
    44d8:	03612223          	sw	s6,36(sp)
    44dc:	0007a703          	lw	a4,0(a5)
    44e0:	03c12023          	sw	t3,32(sp)
    44e4:	00478b13          	add	s6,a5,4
    44e8:	00072683          	lw	a3,0(a4)
    44ec:	01412823          	sw	s4,16(sp)
    44f0:	06d12023          	sw	a3,96(sp)
    44f4:	00472683          	lw	a3,4(a4)
    44f8:	06d12223          	sw	a3,100(sp)
    44fc:	00872683          	lw	a3,8(a4)
    4500:	06d12423          	sw	a3,104(sp)
    4504:	00c72703          	lw	a4,12(a4)
    4508:	06e12623          	sw	a4,108(sp)
    450c:	4c80b0ef          	jal	f9d4 <__trunctfdf2>
    4510:	02012e03          	lw	t3,32(sp)
    4514:	02412303          	lw	t1,36(sp)
    4518:	02a12423          	sw	a0,40(sp)
    451c:	02b12623          	sw	a1,44(sp)
    4520:	01612a23          	sw	s6,20(sp)
    4524:	000a0e93          	mv	t4,s4
    4528:	fb1fe06f          	j	34d8 <_vfprintf_r+0x580>
    452c:	010a7793          	and	a5,s4,16
    4530:	6c079a63          	bnez	a5,4c04 <_vfprintf_r+0x1cac>
    4534:	040a7793          	and	a5,s4,64
    4538:	24079ce3          	bnez	a5,4f90 <_vfprintf_r+0x2038>
    453c:	200a7f13          	and	t5,s4,512
    4540:	6c0f0263          	beqz	t5,4c04 <_vfprintf_r+0x1cac>
    4544:	01412783          	lw	a5,20(sp)
    4548:	00c12703          	lw	a4,12(sp)
    454c:	0007a783          	lw	a5,0(a5)
    4550:	00e78023          	sb	a4,0(a5)
    4554:	e6cff06f          	j	3bc0 <_vfprintf_r+0xc68>
    4558:	03c12783          	lw	a5,60(sp)
    455c:	00094e03          	lbu	t3,0(s2)
    4560:	00079463          	bnez	a5,4568 <_vfprintf_r+0x1610>
    4564:	ba5fe06f          	j	3108 <_vfprintf_r+0x1b0>
    4568:	0007c783          	lbu	a5,0(a5)
    456c:	00079463          	bnez	a5,4574 <_vfprintf_r+0x161c>
    4570:	b99fe06f          	j	3108 <_vfprintf_r+0x1b0>
    4574:	400a6a13          	or	s4,s4,1024
    4578:	b91fe06f          	j	3108 <_vfprintf_r+0x1b0>
    457c:	fff00b13          	li	s6,-1
    4580:	00068913          	mv	s2,a3
    4584:	b89fe06f          	j	310c <_vfprintf_r+0x1b4>
    4588:	0000c797          	auipc	a5,0xc
    458c:	d1878793          	add	a5,a5,-744 # 102a0 <__fini_array_end+0x2f8>
    4590:	000a0e93          	mv	t4,s4
    4594:	000b0313          	mv	t1,s6
    4598:	02f12c23          	sw	a5,56(sp)
    459c:	020ef793          	and	a5,t4,32
    45a0:	1c078263          	beqz	a5,4764 <_vfprintf_r+0x180c>
    45a4:	01412783          	lw	a5,20(sp)
    45a8:	00778b13          	add	s6,a5,7
    45ac:	ff8b7b13          	and	s6,s6,-8
    45b0:	000b2d03          	lw	s10,0(s6)
    45b4:	004b2c83          	lw	s9,4(s6)
    45b8:	008b0793          	add	a5,s6,8
    45bc:	00f12a23          	sw	a5,20(sp)
    45c0:	001ef793          	and	a5,t4,1
    45c4:	00078e63          	beqz	a5,45e0 <_vfprintf_r+0x1688>
    45c8:	019d67b3          	or	a5,s10,s9
    45cc:	00078a63          	beqz	a5,45e0 <_vfprintf_r+0x1688>
    45d0:	03000793          	li	a5,48
    45d4:	06f10c23          	sb	a5,120(sp)
    45d8:	07c10ca3          	sb	t3,121(sp)
    45dc:	002eee93          	or	t4,t4,2
    45e0:	bffef613          	and	a2,t4,-1025
    45e4:	00200793          	li	a5,2
    45e8:	bb4ff06f          	j	399c <_vfprintf_r+0xa44>
    45ec:	000b0313          	mv	t1,s6
    45f0:	000a0613          	mv	a2,s4
    45f4:	b80ff06f          	j	3974 <_vfprintf_r+0xa1c>
    45f8:	000a0e93          	mv	t4,s4
    45fc:	000b0313          	mv	t1,s6
    4600:	d1cff06f          	j	3b1c <_vfprintf_r+0xbc4>
    4604:	0000c797          	auipc	a5,0xc
    4608:	c8878793          	add	a5,a5,-888 # 1028c <__fini_array_end+0x2e4>
    460c:	000a0e93          	mv	t4,s4
    4610:	000b0313          	mv	t1,s6
    4614:	02f12c23          	sw	a5,56(sp)
    4618:	f85ff06f          	j	459c <_vfprintf_r+0x1644>
    461c:	00194e03          	lbu	t3,1(s2)
    4620:	020a6a13          	or	s4,s4,32
    4624:	00190913          	add	s2,s2,1
    4628:	ae1fe06f          	j	3108 <_vfprintf_r+0x1b0>
    462c:	00194e03          	lbu	t3,1(s2)
    4630:	200a6a13          	or	s4,s4,512
    4634:	00190913          	add	s2,s2,1
    4638:	ad1fe06f          	j	3108 <_vfprintf_r+0x1b0>
    463c:	00812583          	lw	a1,8(sp)
    4640:	0a010613          	add	a2,sp,160
    4644:	00098513          	mv	a0,s3
    4648:	03d12023          	sw	t4,32(sp)
    464c:	7c8010ef          	jal	5e14 <__sprint_r>
    4650:	00050463          	beqz	a0,4658 <_vfprintf_r+0x1700>
    4654:	dd5fe06f          	j	3428 <_vfprintf_r+0x4d0>
    4658:	0a812483          	lw	s1,168(sp)
    465c:	02012e83          	lw	t4,32(sp)
    4660:	0ac10413          	add	s0,sp,172
    4664:	e10ff06f          	j	3c74 <_vfprintf_r+0xd1c>
    4668:	00600793          	li	a5,6
    466c:	00030c93          	mv	s9,t1
    4670:	0e67e6e3          	bltu	a5,t1,4f5c <_vfprintf_r+0x2004>
    4674:	01612a23          	sw	s6,20(sp)
    4678:	00012823          	sw	zero,16(sp)
    467c:	000c8d13          	mv	s10,s9
    4680:	00000613          	li	a2,0
    4684:	00000313          	li	t1,0
    4688:	02012223          	sw	zero,36(sp)
    468c:	02012023          	sw	zero,32(sp)
    4690:	00000a13          	li	s4,0
    4694:	0000cc17          	auipc	s8,0xc
    4698:	c20c0c13          	add	s8,s8,-992 # 102b4 <__fini_array_end+0x30c>
    469c:	afdfe06f          	j	3198 <_vfprintf_r+0x240>
    46a0:	00800613          	li	a2,8
    46a4:	00000593          	li	a1,0
    46a8:	09810513          	add	a0,sp,152
    46ac:	03c12023          	sw	t3,32(sp)
    46b0:	01d12823          	sw	t4,16(sp)
    46b4:	951fd0ef          	jal	2004 <memset>
    46b8:	01412783          	lw	a5,20(sp)
    46bc:	0ec10c13          	add	s8,sp,236
    46c0:	09810693          	add	a3,sp,152
    46c4:	0007a603          	lw	a2,0(a5)
    46c8:	000c0593          	mv	a1,s8
    46cc:	00098513          	mv	a0,s3
    46d0:	530070ef          	jal	bc00 <_wcrtomb_r>
    46d4:	fff00793          	li	a5,-1
    46d8:	01012e83          	lw	t4,16(sp)
    46dc:	02012e03          	lw	t3,32(sp)
    46e0:	00050d13          	mv	s10,a0
    46e4:	00f51463          	bne	a0,a5,46ec <_vfprintf_r+0x1794>
    46e8:	4980106f          	j	5b80 <_vfprintf_r+0x2c28>
    46ec:	fff54813          	not	a6,a0
    46f0:	41f85813          	sra	a6,a6,0x1f
    46f4:	01057cb3          	and	s9,a0,a6
    46f8:	97cff06f          	j	3874 <_vfprintf_r+0x91c>
    46fc:	03412703          	lw	a4,52(sp)
    4700:	03012783          	lw	a5,48(sp)
    4704:	00700693          	li	a3,7
    4708:	00e42023          	sw	a4,0(s0)
    470c:	0a412703          	lw	a4,164(sp)
    4710:	00f484b3          	add	s1,s1,a5
    4714:	00f42223          	sw	a5,4(s0)
    4718:	00170713          	add	a4,a4,1
    471c:	0a912423          	sw	s1,168(sp)
    4720:	0ae12223          	sw	a4,164(sp)
    4724:	00840413          	add	s0,s0,8
    4728:	a4e6d0e3          	bge	a3,a4,4168 <_vfprintf_r+0x1210>
    472c:	00812583          	lw	a1,8(sp)
    4730:	0a010613          	add	a2,sp,160
    4734:	00098513          	mv	a0,s3
    4738:	02612223          	sw	t1,36(sp)
    473c:	03d12023          	sw	t4,32(sp)
    4740:	6d4010ef          	jal	5e14 <__sprint_r>
    4744:	00050463          	beqz	a0,474c <_vfprintf_r+0x17f4>
    4748:	ce1fe06f          	j	3428 <_vfprintf_r+0x4d0>
    474c:	07c12d03          	lw	s10,124(sp)
    4750:	0a812483          	lw	s1,168(sp)
    4754:	02412303          	lw	t1,36(sp)
    4758:	02012e83          	lw	t4,32(sp)
    475c:	0ac10413          	add	s0,sp,172
    4760:	a09ff06f          	j	4168 <_vfprintf_r+0x1210>
    4764:	01412703          	lw	a4,20(sp)
    4768:	010ef793          	and	a5,t4,16
    476c:	00072d03          	lw	s10,0(a4)
    4770:	00470713          	add	a4,a4,4
    4774:	00e12a23          	sw	a4,20(sp)
    4778:	08079863          	bnez	a5,4808 <_vfprintf_r+0x18b0>
    477c:	040ef793          	and	a5,t4,64
    4780:	08078063          	beqz	a5,4800 <_vfprintf_r+0x18a8>
    4784:	010d1d13          	sll	s10,s10,0x10
    4788:	010d5d13          	srl	s10,s10,0x10
    478c:	00000c93          	li	s9,0
    4790:	e31ff06f          	j	45c0 <_vfprintf_r+0x1668>
    4794:	00000d13          	li	s10,0
    4798:	15010c13          	add	s8,sp,336
    479c:	a2cff06f          	j	39c8 <_vfprintf_r+0xa70>
    47a0:	00812583          	lw	a1,8(sp)
    47a4:	0a010613          	add	a2,sp,160
    47a8:	00098513          	mv	a0,s3
    47ac:	03d12023          	sw	t4,32(sp)
    47b0:	664010ef          	jal	5e14 <__sprint_r>
    47b4:	00050463          	beqz	a0,47bc <_vfprintf_r+0x1864>
    47b8:	c71fe06f          	j	3428 <_vfprintf_r+0x4d0>
    47bc:	0a812483          	lw	s1,168(sp)
    47c0:	0a412d03          	lw	s10,164(sp)
    47c4:	02012e83          	lw	t4,32(sp)
    47c8:	0ac10b13          	add	s6,sp,172
    47cc:	f71fe06f          	j	373c <_vfprintf_r+0x7e4>
    47d0:	00812583          	lw	a1,8(sp)
    47d4:	0a010613          	add	a2,sp,160
    47d8:	00098513          	mv	a0,s3
    47dc:	03d12023          	sw	t4,32(sp)
    47e0:	634010ef          	jal	5e14 <__sprint_r>
    47e4:	00050463          	beqz	a0,47ec <_vfprintf_r+0x1894>
    47e8:	c41fe06f          	j	3428 <_vfprintf_r+0x4d0>
    47ec:	0a812483          	lw	s1,168(sp)
    47f0:	0a412d03          	lw	s10,164(sp)
    47f4:	02012e83          	lw	t4,32(sp)
    47f8:	0ac10b13          	add	s6,sp,172
    47fc:	f71fe06f          	j	376c <_vfprintf_r+0x814>
    4800:	200ef793          	and	a5,t4,512
    4804:	76079663          	bnez	a5,4f70 <_vfprintf_r+0x2018>
    4808:	00000c93          	li	s9,0
    480c:	db5ff06f          	j	45c0 <_vfprintf_r+0x1668>
    4810:	00000793          	li	a5,0
    4814:	15010b13          	add	s6,sp,336
    4818:	01212823          	sw	s2,16(sp)
    481c:	00078913          	mv	s2,a5
    4820:	00098793          	mv	a5,s3
    4824:	04812823          	sw	s0,80(sp)
    4828:	000b0993          	mv	s3,s6
