
main.elf:     file format elf32-littleriscv


Disassembly of section .text:

00000000 <__crt0_entry>:
       0:	f14020f3          	csrr	ra,mhartid
       4:	80080217          	auipc	tp,0x80080
       8:	ffb20213          	add	tp,tp,-5 # 8007ffff <__crt0_ram_last>
       c:	ff027113          	and	sp,tp,-16
      10:	80000197          	auipc	gp,0x80000
      14:	7f018193          	add	gp,gp,2032 # 80000800 <__global_pointer>
      18:	000022b7          	lui	t0,0x2
      1c:	80028293          	add	t0,t0,-2048 # 1800 <_malloc_r+0x250>
      20:	30029073          	csrw	mstatus,t0
      24:	00000317          	auipc	t1,0x0
      28:	18030313          	add	t1,t1,384 # 1a4 <__crt0_trap>
      2c:	30531073          	csrw	mtvec,t1
      30:	30401073          	csrw	mie,zero
      34:	00010397          	auipc	t2,0x10
      38:	83c38393          	add	t2,t2,-1988 # f870 <__crt0_copy_data_src_begin>
      3c:	80000417          	auipc	s0,0x80000
      40:	fc440413          	add	s0,s0,-60 # 80000000 <_impure_data>
      44:	80000497          	auipc	s1,0x80000
      48:	6d048493          	add	s1,s1,1744 # 80000714 <curr_heap.0>
      4c:	80000517          	auipc	a0,0x80000
      50:	6c850513          	add	a0,a0,1736 # 80000714 <curr_heap.0>
      54:	80001597          	auipc	a1,0x80001
      58:	88058593          	add	a1,a1,-1920 # 800008d4 <__crt0_bss_end>
      5c:	00000613          	li	a2,0
      60:	00000693          	li	a3,0
      64:	00000713          	li	a4,0
      68:	00000793          	li	a5,0
      6c:	00000813          	li	a6,0
      70:	00000893          	li	a7,0
      74:	00000913          	li	s2,0
      78:	00000993          	li	s3,0
      7c:	00000a13          	li	s4,0
      80:	00000a93          	li	s5,0
      84:	00000b13          	li	s6,0
      88:	00000b93          	li	s7,0
      8c:	00000c13          	li	s8,0
      90:	00000c93          	li	s9,0
      94:	00000d13          	li	s10,0
      98:	00000d93          	li	s11,0
      9c:	00000e13          	li	t3,0
      a0:	00000e93          	li	t4,0
      a4:	00000f13          	li	t5,0
      a8:	00000f93          	li	t6,0

000000ac <__crt0_smp_check>:
      ac:	02008a63          	beqz	ra,e0 <__crt0_smp_primary>
      b0:	00000797          	auipc	a5,0x0
      b4:	01878793          	add	a5,a5,24 # c8 <__crt0_smp_wakeup>
      b8:	30579073          	csrw	mtvec,a5
      bc:	30446073          	csrs	mie,8
      c0:	30046073          	csrs	mstatus,8
      c4:	0d80006f          	j	19c <__crt0_sleep>

000000c8 <__crt0_smp_wakeup>:
      c8:	fff44737          	lui	a4,0xfff44
      cc:	00872103          	lw	sp,8(a4) # fff44008 <__crt0_ram_last+0x7fec4009>
      d0:	00c72603          	lw	a2,12(a4)
      d4:	fff40737          	lui	a4,0xfff40
      d8:	00072223          	sw	zero,4(a4) # fff40004 <__crt0_ram_last+0x7fec0005>
      dc:	05c0006f          	j	138 <__crt0_main_entry>

000000e0 <__crt0_smp_primary>:
      e0:	00838e63          	beq	t2,s0,fc <__crt0_bss_clear>

000000e4 <__crt0_data_copy>:
      e4:	00945c63          	bge	s0,s1,fc <__crt0_bss_clear>
      e8:	0003a783          	lw	a5,0(t2)
      ec:	00f42023          	sw	a5,0(s0)
      f0:	00438393          	add	t2,t2,4
      f4:	00440413          	add	s0,s0,4
      f8:	fedff06f          	j	e4 <__crt0_data_copy>

000000fc <__crt0_bss_clear>:
      fc:	00b55863          	bge	a0,a1,10c <__crt0_bss_clear_end>
     100:	00052023          	sw	zero,0(a0)
     104:	00450513          	add	a0,a0,4
     108:	ff5ff06f          	j	fc <__crt0_bss_clear>

0000010c <__crt0_bss_clear_end>:
     10c:	0000f417          	auipc	s0,0xf
     110:	cec40413          	add	s0,s0,-788 # edf8 <__fini_array_end>
     114:	0000f497          	auipc	s1,0xf
     118:	ce448493          	add	s1,s1,-796 # edf8 <__fini_array_end>

0000011c <__crt0_constructors>:
     11c:	00945a63          	bge	s0,s1,130 <__crt0_constructors_end>
     120:	00042083          	lw	ra,0(s0)
     124:	000080e7          	jalr	ra
     128:	00440413          	add	s0,s0,4
     12c:	ff1ff06f          	j	11c <__crt0_constructors>

00000130 <__crt0_constructors_end>:
     130:	00000617          	auipc	a2,0x0
     134:	1a060613          	add	a2,a2,416 # 2d0 <main>

00000138 <__crt0_main_entry>:
     138:	80000197          	auipc	gp,0x80000
     13c:	6c818193          	add	gp,gp,1736 # 80000800 <__global_pointer>
     140:	0ff0000f          	fence
     144:	0000100f          	fence.i
     148:	30029073          	csrw	mstatus,t0
     14c:	00000513          	li	a0,0
     150:	00000593          	li	a1,0
     154:	000600e7          	jalr	a2

00000158 <__crt0_main_exit>:
     158:	30401073          	csrw	mie,zero
     15c:	34051073          	csrw	mscratch,a0
     160:	00000517          	auipc	a0,0x0
     164:	04450513          	add	a0,a0,68 # 1a4 <__crt0_trap>
     168:	30551073          	csrw	mtvec,a0
     16c:	f1402473          	csrr	s0,mhartid
     170:	02041463          	bnez	s0,198 <__crt0_destructors_end>
     174:	0000f417          	auipc	s0,0xf
     178:	c8440413          	add	s0,s0,-892 # edf8 <__fini_array_end>
     17c:	0000f497          	auipc	s1,0xf
     180:	c7c48493          	add	s1,s1,-900 # edf8 <__fini_array_end>

00000184 <__crt0_destructors>:
     184:	00945a63          	bge	s0,s1,198 <__crt0_destructors_end>
     188:	00042083          	lw	ra,0(s0)
     18c:	000080e7          	jalr	ra
     190:	00440413          	add	s0,s0,4
     194:	ff1ff06f          	j	184 <__crt0_destructors>

00000198 <__crt0_destructors_end>:
     198:	00100073          	ebreak

0000019c <__crt0_sleep>:
     19c:	10500073          	wfi
     1a0:	ffdff06f          	j	19c <__crt0_sleep>

000001a4 <__crt0_trap>:
     1a4:	34041073          	csrw	mscratch,s0
     1a8:	34202473          	csrr	s0,mcause
     1ac:	01f45413          	srl	s0,s0,0x1f
     1b0:	02041663          	bnez	s0,1dc <__crt0_trap_end>
     1b4:	34102473          	csrr	s0,mepc
     1b8:	00440413          	add	s0,s0,4
     1bc:	34141073          	csrw	mepc,s0
     1c0:	34a02473          	csrr	s0,0x34a
     1c4:	00347413          	and	s0,s0,3
     1c8:	ffd40413          	add	s0,s0,-3
     1cc:	00040863          	beqz	s0,1dc <__crt0_trap_end>
     1d0:	34102473          	csrr	s0,mepc
     1d4:	ffe40413          	add	s0,s0,-2
     1d8:	34141073          	csrw	mepc,s0

000001dc <__crt0_trap_end>:
     1dc:	34002473          	csrr	s0,mscratch
     1e0:	30200073          	mret

000001e4 <rdcycle>:

/* -------------- CSRs -------------- */
static inline uint64_t rdcycle(void){
#if __riscv_xlen == 32 || !defined(__riscv_xlen)
  uint32_t hi1, lo, hi2;
  do { __asm__ volatile("csrr %0,mcycleh":"=r"(hi1));
     1e4:	b80025f3          	csrr	a1,mcycleh
       __asm__ volatile("csrr %0,mcycle" :"=r"(lo));
     1e8:	b0002573          	csrr	a0,mcycle
       __asm__ volatile("csrr %0,mcycleh":"=r"(hi2)); } while (hi1!=hi2);
     1ec:	b80027f3          	csrr	a5,mcycleh
     1f0:	fef59ae3          	bne	a1,a5,1e4 <rdcycle>
  return ((uint64_t)hi1<<32)|lo;
#else
  uint64_t v; __asm__ volatile("csrr %0,mcycle":"=r"(v)); return v;
#endif
}
     1f4:	00008067          	ret

000001f8 <rdinstret>:
static inline uint64_t rdinstret(void){
#if __riscv_xlen == 32 || !defined(__riscv_xlen)
  uint32_t hi1, lo, hi2;
  do { __asm__ volatile("csrr %0,minstreth":"=r"(hi1));
     1f8:	b82025f3          	csrr	a1,minstreth
       __asm__ volatile("csrr %0,minstret" :"=r"(lo));
     1fc:	b0202573          	csrr	a0,minstret
       __asm__ volatile("csrr %0,minstreth":"=r"(hi2)); } while (hi1!=hi2);
     200:	b82027f3          	csrr	a5,minstreth
     204:	fef59ae3          	bne	a1,a5,1f8 <rdinstret>
  return ((uint64_t)hi1<<32)|lo;
#else
  uint64_t v; __asm__ volatile("csrr %0,minstret":"=r"(v)); return v;
#endif
}
     208:	00008067          	ret

0000020c <print_speedup_fixed>:
  return (int32_t)r;
}
static inline int8_t pattA(int i, int k){ return (int8_t)(((i+1)*(k-3)) & 0x0F) - 8; }
static inline int8_t pattB(int k, int j){ return (int8_t)(((j-2)*(5-k)) & 0x0F) - 8; }
static void print_speedup_fixed(uint64_t num, uint64_t den){
  if(!den){ printf("  n/a   "); return; }
     20c:	00d667b3          	or	a5,a2,a3
     210:	00079863          	bnez	a5,220 <print_speedup_fixed+0x14>
     214:	0000f537          	lui	a0,0xf
     218:	df850513          	add	a0,a0,-520 # edf8 <__fini_array_end>
     21c:	2850006f          	j	ca0 <printf>
static void print_speedup_fixed(uint64_t num, uint64_t den){
     220:	fe010113          	add	sp,sp,-32
     224:	00812c23          	sw	s0,24(sp)
     228:	00912a23          	sw	s1,20(sp)
     22c:	00068413          	mv	s0,a3
  uint64_t s=(num*1000ull+den/2)/den; printf("%4" PRIu64 ".%03" PRIu64 "x",s/1000,s%1000);
     230:	00060493          	mv	s1,a2
     234:	00000693          	li	a3,0
     238:	3e800613          	li	a2,1000
static void print_speedup_fixed(uint64_t num, uint64_t den){
     23c:	00112e23          	sw	ra,28(sp)
  uint64_t s=(num*1000ull+den/2)/den; printf("%4" PRIu64 ".%03" PRIu64 "x",s/1000,s%1000);
     240:	1e50e0ef          	jal	ec24 <__muldi3>
     244:	00050793          	mv	a5,a0
     248:	01f41713          	sll	a4,s0,0x1f
     24c:	0014d513          	srl	a0,s1,0x1
     250:	00a76533          	or	a0,a4,a0
     254:	00a78533          	add	a0,a5,a0
     258:	00145713          	srl	a4,s0,0x1
     25c:	00f537b3          	sltu	a5,a0,a5
     260:	00e585b3          	add	a1,a1,a4
     264:	00b785b3          	add	a1,a5,a1
     268:	00048613          	mv	a2,s1
     26c:	00040693          	mv	a3,s0
     270:	1bc0b0ef          	jal	b42c <__udivdi3>
     274:	3e800613          	li	a2,1000
     278:	00000693          	li	a3,0
     27c:	00050493          	mv	s1,a0
     280:	00058413          	mv	s0,a1
     284:	0550b0ef          	jal	bad8 <__umoddi3>
     288:	00a12623          	sw	a0,12(sp)
     28c:	00b12423          	sw	a1,8(sp)
     290:	3e800613          	li	a2,1000
     294:	00000693          	li	a3,0
     298:	00048513          	mv	a0,s1
     29c:	00040593          	mv	a1,s0
     2a0:	18c0b0ef          	jal	b42c <__udivdi3>
}
     2a4:	01812403          	lw	s0,24(sp)
  uint64_t s=(num*1000ull+den/2)/den; printf("%4" PRIu64 ".%03" PRIu64 "x",s/1000,s%1000);
     2a8:	00c12703          	lw	a4,12(sp)
     2ac:	00812783          	lw	a5,8(sp)
}
     2b0:	01c12083          	lw	ra,28(sp)
     2b4:	01412483          	lw	s1,20(sp)
  uint64_t s=(num*1000ull+den/2)/den; printf("%4" PRIu64 ".%03" PRIu64 "x",s/1000,s%1000);
     2b8:	00050613          	mv	a2,a0
     2bc:	0000f537          	lui	a0,0xf
     2c0:	00058693          	mv	a3,a1
     2c4:	e0450513          	add	a0,a0,-508 # ee04 <__fini_array_end+0xc>
}
     2c8:	02010113          	add	sp,sp,32
  uint64_t s=(num*1000ull+den/2)/den; printf("%4" PRIu64 ".%03" PRIu64 "x",s/1000,s%1000);
     2cc:	1d50006f          	j	ca0 <printf>

000002d0 <main>:
}
static int cmp(const int32_t *A,const int32_t *B){ for(int i=0;i<N*N;++i) if(A[i]!=B[i]) return 0; return 1; }

/* -------------- Main -------------- */
int main(void){
  printf("== %dx%d GEMM: SW vs CFU vs CFS ==\n", N, N);
     2d0:	0000f537          	lui	a0,0xf
int main(void){
     2d4:	ba010113          	add	sp,sp,-1120
  printf("== %dx%d GEMM: SW vs CFU vs CFS ==\n", N, N);
     2d8:	00800613          	li	a2,8
     2dc:	00800593          	li	a1,8
     2e0:	e2450513          	add	a0,a0,-476 # ee24 <__fini_array_end+0x2c>
int main(void){
     2e4:	44112e23          	sw	ra,1116(sp)
     2e8:	45612023          	sw	s6,1088(sp)
     2ec:	44812c23          	sw	s0,1112(sp)
     2f0:	44912a23          	sw	s1,1108(sp)
     2f4:	45212823          	sw	s2,1104(sp)
     2f8:	45312623          	sw	s3,1100(sp)
     2fc:	45412423          	sw	s4,1096(sp)
     300:	45512223          	sw	s5,1092(sp)
     304:	43712e23          	sw	s7,1084(sp)
     308:	43812c23          	sw	s8,1080(sp)
     30c:	43912a23          	sw	s9,1076(sp)
     310:	43a12823          	sw	s10,1072(sp)
     314:	43b12623          	sw	s11,1068(sp)
  printf("== %dx%d GEMM: SW vs CFU vs CFS ==\n", N, N);
     318:	189000ef          	jal	ca0 <printf>
static inline uint32_t cfs_read (uint32_t off)             { return CFS_REG(off); }
     31c:	ffeb07b7          	lui	a5,0xffeb0
     320:	0007a583          	lw	a1,0(a5) # ffeb0000 <__crt0_ram_last+0x7fe30001>
  printf("CFS ID: 0x%08" PRIX32 "\n", cfs_read(CFS_CTL));
     324:	0000f537          	lui	a0,0xf
     328:	e4850513          	add	a0,a0,-440 # ee48 <__fini_array_end+0x50>
     32c:	175000ef          	jal	ca0 <printf>

  int8_t  A[N][N], B[N][N];
  int32_t Csw[N][N], Ccfu[N][N], Ccfs[N][N];

  for(int i=0;i<N;++i) for(int k=0;k<N;++k) A[i][k]=pattA(i,k);
     330:	06010b13          	add	s6,sp,96
  printf("CFS ID: 0x%08" PRIX32 "\n", cfs_read(CFS_CTL));
     334:	000b0593          	mv	a1,s6
     338:	00100693          	li	a3,1
  for(int i=0;i<N;++i) for(int k=0;k<N;++k) A[i][k]=pattA(i,k);
     33c:	00800813          	li	a6,8
     340:	00900893          	li	a7,9
     344:	0ff6f613          	zext.b	a2,a3
     348:	00261793          	sll	a5,a2,0x2
     34c:	40f607b3          	sub	a5,a2,a5
     350:	0ff7f793          	zext.b	a5,a5
     354:	00000713          	li	a4,0
static inline int8_t pattA(int i, int k){ return (int8_t)(((i+1)*(k-3)) & 0x0F) - 8; }
     358:	00f7f513          	and	a0,a5,15
  for(int i=0;i<N;++i) for(int k=0;k<N;++k) A[i][k]=pattA(i,k);
     35c:	00e58333          	add	t1,a1,a4
static inline int8_t pattA(int i, int k){ return (int8_t)(((i+1)*(k-3)) & 0x0F) - 8; }
     360:	ff850513          	add	a0,a0,-8
  for(int i=0;i<N;++i) for(int k=0;k<N;++k) A[i][k]=pattA(i,k);
     364:	00f607b3          	add	a5,a2,a5
     368:	00a30023          	sb	a0,0(t1)
     36c:	00170713          	add	a4,a4,1
     370:	0ff7f793          	zext.b	a5,a5
     374:	ff0712e3          	bne	a4,a6,358 <main+0x88>
     378:	00168693          	add	a3,a3,1
     37c:	00858593          	add	a1,a1,8
     380:	fd1692e3          	bne	a3,a7,344 <main+0x74>
     384:	0a010613          	add	a2,sp,160
     388:	00500713          	li	a4,5
  for(int k=0;k<N;++k) for(int j=0;j<N;++j) B[k][j]=pattB(k,j);
     38c:	00800513          	li	a0,8
     390:	0fd00813          	li	a6,253
     394:	40e007b3          	neg	a5,a4
     398:	00179793          	sll	a5,a5,0x1
     39c:	0ff7f793          	zext.b	a5,a5
     3a0:	00000693          	li	a3,0
static inline int8_t pattB(int k, int j){ return (int8_t)(((j-2)*(5-k)) & 0x0F) - 8; }
     3a4:	00f7f593          	and	a1,a5,15
  for(int k=0;k<N;++k) for(int j=0;j<N;++j) B[k][j]=pattB(k,j);
     3a8:	00d608b3          	add	a7,a2,a3
static inline int8_t pattB(int k, int j){ return (int8_t)(((j-2)*(5-k)) & 0x0F) - 8; }
     3ac:	ff858593          	add	a1,a1,-8
  for(int k=0;k<N;++k) for(int j=0;j<N;++j) B[k][j]=pattB(k,j);
     3b0:	00f707b3          	add	a5,a4,a5
     3b4:	00b88023          	sb	a1,0(a7)
     3b8:	00168693          	add	a3,a3,1
     3bc:	0ff7f793          	zext.b	a5,a5
     3c0:	fea692e3          	bne	a3,a0,3a4 <main+0xd4>
     3c4:	fff70713          	add	a4,a4,-1
     3c8:	0ff77713          	zext.b	a4,a4
     3cc:	00860613          	add	a2,a2,8
     3d0:	fd0712e3          	bne	a4,a6,394 <main+0xc4>

  uint64_t c0=rdcycle(), i0=rdinstret(); gemm_sw(A,B,Csw);  uint64_t i1=rdinstret(), c1=rdcycle();
     3d4:	e11ff0ef          	jal	1e4 <rdcycle>
     3d8:	00050913          	mv	s2,a0
     3dc:	00058c13          	mv	s8,a1
     3e0:	e19ff0ef          	jal	1f8 <rdinstret>
     3e4:	00050493          	mv	s1,a0
     3e8:	00058a93          	mv	s5,a1
  for(int i=0;i<N;++i) for(int j=0;j<N;++j){ int32_t s=0; for(int k=0;k<N;++k) s+=(int32_t)A[i][k]*B[k][j]; C[i][j]=s; }
     3ec:	12010a13          	add	s4,sp,288
     3f0:	22010b93          	add	s7,sp,544
  uint64_t c0=rdcycle(), i0=rdinstret(); gemm_sw(A,B,Csw);  uint64_t i1=rdinstret(), c1=rdcycle();
     3f4:	000b0c93          	mv	s9,s6
  for(int i=0;i<N;++i) for(int j=0;j<N;++j){ int32_t s=0; for(int k=0;k<N;++k) s+=(int32_t)A[i][k]*B[k][j]; C[i][j]=s; }
     3f8:	00000413          	li	s0,0
     3fc:	03c0006f          	j	438 <main+0x168>
     400:	013c87b3          	add	a5,s9,s3
     404:	000d8583          	lb	a1,0(s11)
     408:	00078503          	lb	a0,0(a5)
     40c:	00198993          	add	s3,s3,1
     410:	008d8d93          	add	s11,s11,8
     414:	7ec0e0ef          	jal	ec00 <__mulsi3>
     418:	00800713          	li	a4,8
     41c:	00ad0d33          	add	s10,s10,a0
     420:	fee990e3          	bne	s3,a4,400 <main+0x130>
     424:	00241793          	sll	a5,s0,0x2
     428:	00fa07b3          	add	a5,s4,a5
     42c:	01a7a023          	sw	s10,0(a5)
     430:	00140413          	add	s0,s0,1
     434:	01340c63          	beq	s0,s3,44c <main+0x17c>
     438:	0a010793          	add	a5,sp,160
     43c:	00878db3          	add	s11,a5,s0
     440:	00000d13          	li	s10,0
     444:	00000993          	li	s3,0
     448:	fb9ff06f          	j	400 <main+0x130>
     44c:	020a0a13          	add	s4,s4,32
     450:	008c8c93          	add	s9,s9,8
     454:	fb4b92e3          	bne	s7,s4,3f8 <main+0x128>
  uint64_t c0=rdcycle(), i0=rdinstret(); gemm_sw(A,B,Csw);  uint64_t i1=rdinstret(), c1=rdcycle();
     458:	da1ff0ef          	jal	1f8 <rdinstret>
     45c:	00050a13          	mv	s4,a0
     460:	00058413          	mv	s0,a1
     464:	d81ff0ef          	jal	1e4 <rdcycle>
  uint64_t sw_cyc=c1-c0, sw_ins=i1-i0;
     468:	412507b3          	sub	a5,a0,s2
     46c:	418589b3          	sub	s3,a1,s8
     470:	00f12623          	sw	a5,12(sp)
     474:	00f537b3          	sltu	a5,a0,a5
     478:	40f987b3          	sub	a5,s3,a5
     47c:	00f12a23          	sw	a5,20(sp)
     480:	409a07b3          	sub	a5,s4,s1
     484:	00fa3a33          	sltu	s4,s4,a5
     488:	41540433          	sub	s0,s0,s5
     48c:	00f12823          	sw	a5,16(sp)
     490:	414407b3          	sub	a5,s0,s4
     494:	00f12c23          	sw	a5,24(sp)

  c0=rdcycle(); i0=rdinstret(); gemm_cfu(A,B,Ccfu); i1=rdinstret(); c1=rdcycle();
     498:	d4dff0ef          	jal	1e4 <rdcycle>
     49c:	00050a93          	mv	s5,a0
     4a0:	00058c13          	mv	s8,a1
     4a4:	d55ff0ef          	jal	1f8 <rdinstret>
     4a8:	00058c93          	mv	s9,a1
     4ac:	00050a13          	mv	s4,a0
  for(int i=0;i<N;++i) for(int j=0;j<N;++j){
     4b0:	000b8713          	mv	a4,s7
     4b4:	040b0313          	add	t1,s6,64
  c0=rdcycle(); i0=rdinstret(); gemm_cfu(A,B,Ccfu); i1=rdinstret(); c1=rdcycle();
     4b8:	000b0593          	mv	a1,s6
      acc += cfu_dp4a((int32_t)ap,(int32_t)bp);
     4bc:	0005a883          	lw	a7,0(a1)
     4c0:	0045a803          	lw	a6,4(a1)
     4c4:	0a010613          	add	a2,sp,160
     4c8:	02070513          	add	a0,a4,32
         (((uint32_t)(uint8_t)x1) << 8)  |
     4cc:	00864783          	lbu	a5,8(a2)
         (((uint32_t)(uint8_t)x2) << 16) |
     4d0:	01064683          	lbu	a3,16(a2)
         (((uint32_t)(uint8_t)x1) << 8)  |
     4d4:	00879793          	sll	a5,a5,0x8
         (((uint32_t)(uint8_t)x2) << 16) |
     4d8:	01069693          	sll	a3,a3,0x10
         (((uint32_t)(uint8_t)x1) << 8)  |
     4dc:	00d7e7b3          	or	a5,a5,a3
  return  ((uint32_t)(uint8_t)x0)        |
     4e0:	00064683          	lbu	a3,0(a2)
         (((uint32_t)(uint8_t)x1) << 8)  |
     4e4:	00d7e7b3          	or	a5,a5,a3
         (((uint32_t)(uint8_t)x3) << 24);
     4e8:	01864683          	lbu	a3,24(a2)
     4ec:	01869693          	sll	a3,a3,0x18
         (((uint32_t)(uint8_t)x2) << 16) |
     4f0:	00d7e7b3          	or	a5,a5,a3
  __asm__ volatile(".insn r 0x0B, %1, %2, %0, %3, %4"
     4f4:	02f8878b          	.insn	4, 0x02f8878b
         (((uint32_t)(uint8_t)x1) << 8)  |
     4f8:	02864683          	lbu	a3,40(a2)
         (((uint32_t)(uint8_t)x2) << 16) |
     4fc:	03064e03          	lbu	t3,48(a2)
         (((uint32_t)(uint8_t)x1) << 8)  |
     500:	00869693          	sll	a3,a3,0x8
         (((uint32_t)(uint8_t)x2) << 16) |
     504:	010e1e13          	sll	t3,t3,0x10
         (((uint32_t)(uint8_t)x1) << 8)  |
     508:	01c6e6b3          	or	a3,a3,t3
  return  ((uint32_t)(uint8_t)x0)        |
     50c:	02064e03          	lbu	t3,32(a2)
         (((uint32_t)(uint8_t)x1) << 8)  |
     510:	01c6e6b3          	or	a3,a3,t3
         (((uint32_t)(uint8_t)x3) << 24);
     514:	03864e03          	lbu	t3,56(a2)
     518:	018e1e13          	sll	t3,t3,0x18
         (((uint32_t)(uint8_t)x2) << 16) |
     51c:	01c6e6b3          	or	a3,a3,t3
  __asm__ volatile(".insn r 0x0B, %1, %2, %0, %3, %4"
     520:	02d8068b          	.insn	4, 0x02d8068b
      acc += cfu_dp4a((int32_t)ap,(int32_t)bp);
     524:	00d787b3          	add	a5,a5,a3
    } C[i][j]=acc;
     528:	00f72023          	sw	a5,0(a4)
  for(int i=0;i<N;++i) for(int j=0;j<N;++j){
     52c:	00470713          	add	a4,a4,4
     530:	00160613          	add	a2,a2,1
     534:	f8e51ce3          	bne	a0,a4,4cc <main+0x1fc>
     538:	00858593          	add	a1,a1,8
     53c:	00b30663          	beq	t1,a1,548 <main+0x278>
     540:	00050713          	mv	a4,a0
     544:	f79ff06f          	j	4bc <main+0x1ec>
  c0=rdcycle(); i0=rdinstret(); gemm_cfu(A,B,Ccfu); i1=rdinstret(); c1=rdcycle();
     548:	cb1ff0ef          	jal	1f8 <rdinstret>
     54c:	00050d13          	mv	s10,a0
     550:	00058d93          	mv	s11,a1
     554:	c91ff0ef          	jal	1e4 <rdcycle>
  uint64_t cfu_cyc=c1-c0, cfu_ins=i1-i0;
     558:	41550ab3          	sub	s5,a0,s5
     55c:	41858bb3          	sub	s7,a1,s8
     560:	01553533          	sltu	a0,a0,s5
     564:	40ab87b3          	sub	a5,s7,a0
     568:	02f12023          	sw	a5,32(sp)
     56c:	414d07b3          	sub	a5,s10,s4
     570:	419d8db3          	sub	s11,s11,s9
     574:	00fd3d33          	sltu	s10,s10,a5
     578:	00f12e23          	sw	a5,28(sp)
     57c:	41ad87b3          	sub	a5,s11,s10
     580:	02f12223          	sw	a5,36(sp)

  c0=rdcycle(); i0=rdinstret(); gemm_cfs(A,B,Ccfs); i1=rdinstret(); c1=rdcycle();
     584:	c61ff0ef          	jal	1e4 <rdcycle>
     588:	02a12423          	sw	a0,40(sp)
     58c:	02b12623          	sw	a1,44(sp)
static inline void     cfs_write(uint32_t off, uint32_t val){ CFS_REG(off)=val; }
     590:	ffeb0bb7          	lui	s7,0xffeb0
  c0=rdcycle(); i0=rdinstret(); gemm_cfs(A,B,Ccfs); i1=rdinstret(); c1=rdcycle();
     594:	c65ff0ef          	jal	1f8 <rdinstret>
static inline void     cfs_write(uint32_t off, uint32_t val){ CFS_REG(off)=val; }
     598:	ffeb0a37          	lui	s4,0xffeb0
  c0=rdcycle(); i0=rdinstret(); gemm_cfs(A,B,Ccfs); i1=rdinstret(); c1=rdcycle();
     59c:	02a12823          	sw	a0,48(sp)
     5a0:	02b12a23          	sw	a1,52(sp)
  for(int i0=0;i0<N;i0+=4){
     5a4:	32010d93          	add	s11,sp,800
     5a8:	00000993          	li	s3,0
      for(int r=0;r<4;++r){ int sr=i0+r; for(int k=0;k<N;++k) Aflat[r*LDA+k]=A[sr][k]; }
     5ac:	800004b7          	lui	s1,0x80000
     5b0:	80000937          	lui	s2,0x80000
static inline void     cfs_write(uint32_t off, uint32_t val){ CFS_REG(off)=val; }
     5b4:	004b8b93          	add	s7,s7,4 # ffeb0004 <__crt0_ram_last+0x7fe30005>
     5b8:	008a0a13          	add	s4,s4,8 # ffeb0008 <__crt0_ram_last+0x7fe30009>
    for(int j0=0;j0<N;j0+=4){
     5bc:	000d8413          	mv	s0,s11
     5c0:	00000d13          	li	s10,0
static inline void     cfs_write(uint32_t off, uint32_t val){ CFS_REG(off)=val; }
     5c4:	ffeb0cb7          	lui	s9,0xffeb0
     5c8:	1ec0006f          	j	7b4 <main+0x4e4>
        Bflat[k*LDB+0]=B[k][j0+0];
     5cc:	0006c583          	lbu	a1,0(a3)
      for(int k=0;k<N;++k){
     5d0:	00478793          	add	a5,a5,4
     5d4:	00868693          	add	a3,a3,8
        Bflat[k*LDB+0]=B[k][j0+0];
     5d8:	feb78e23          	sb	a1,-4(a5)
        Bflat[k*LDB+1]=B[k][j0+1];
     5dc:	ff96c583          	lbu	a1,-7(a3)
     5e0:	feb78ea3          	sb	a1,-3(a5)
        Bflat[k*LDB+2]=B[k][j0+2];
     5e4:	ffa6c583          	lbu	a1,-6(a3)
     5e8:	feb78f23          	sb	a1,-2(a5)
        Bflat[k*LDB+3]=B[k][j0+3];
     5ec:	ffb6c583          	lbu	a1,-5(a3)
     5f0:	feb78fa3          	sb	a1,-1(a5)
      for(int k=0;k<N;++k){
     5f4:	fcf61ce3          	bne	a2,a5,5cc <main+0x2fc>
static inline void     cfs_write(uint32_t off, uint32_t val){ CFS_REG(off)=val; }
     5f8:	00200793          	li	a5,2
     5fc:	00fca023          	sw	a5,0(s9) # ffeb0000 <__crt0_ram_last+0x7fe30001>
static inline uint32_t cfs_read (uint32_t off)             { return CFS_REG(off); }
     600:	000ca783          	lw	a5,0(s9)
static inline void     cfs_write(uint32_t off, uint32_t val){ CFS_REG(off)=val; }
     604:	ffeb0fb7          	lui	t6,0xffeb0
     608:	ffeb0f37          	lui	t5,0xffeb0
     60c:	ffeb0eb7          	lui	t4,0xffeb0
     610:	ffeb0e37          	lui	t3,0xffeb0
     614:	ffeb0537          	lui	a0,0xffeb0
     618:	ffeb05b7          	lui	a1,0xffeb0
  for(int s=0;s<T;++s){
     61c:	00000793          	li	a5,0
    for(int i=0;i<4;++i){ int k=s-i; int8_t a=(k>=0&&k<K)? Aflat[i*LDA+k]:0; Aw[i]=(uint32_t)(uint8_t)a; }
     620:	00700313          	li	t1,7
     624:	00400293          	li	t0,4
static inline void     cfs_write(uint32_t off, uint32_t val){ CFS_REG(off)=val; }
     628:	00cf8f93          	add	t6,t6,12 # ffeb000c <__crt0_ram_last+0x7fe3000d>
     62c:	010f0f13          	add	t5,t5,16 # ffeb0010 <__crt0_ram_last+0x7fe30011>
     630:	014e8e93          	add	t4,t4,20 # ffeb0014 <__crt0_ram_last+0x7fe30015>
     634:	018e0e13          	add	t3,t3,24 # ffeb0018 <__crt0_ram_last+0x7fe30019>
     638:	01c50513          	add	a0,a0,28 # ffeb001c <__crt0_ram_last+0x7fe3001d>
     63c:	02058593          	add	a1,a1,32 # ffeb0020 <__crt0_ram_last+0x7fe30021>
     640:	00100893          	li	a7,1
  for(int s=0;s<T;++s){
     644:	00e00813          	li	a6,14
    uint32_t Aw[4]={0}, Bw[4]={0};
     648:	800006b7          	lui	a3,0x80000
     64c:	75468693          	add	a3,a3,1876 # 80000754 <Aflat.1>
     650:	00d783b3          	add	t2,a5,a3
     654:	04012023          	sw	zero,64(sp)
     658:	04012223          	sw	zero,68(sp)
     65c:	04012423          	sw	zero,72(sp)
     660:	04012623          	sw	zero,76(sp)
     664:	04012823          	sw	zero,80(sp)
     668:	04012a23          	sw	zero,84(sp)
     66c:	04012c23          	sw	zero,88(sp)
     670:	04012e23          	sw	zero,92(sp)
    for(int i=0;i<4;++i){ int k=s-i; int8_t a=(k>=0&&k<K)? Aflat[i*LDA+k]:0; Aw[i]=(uint32_t)(uint8_t)a; }
     674:	04010093          	add	ra,sp,64
     678:	00000693          	li	a3,0
     67c:	40d78c33          	sub	s8,a5,a3
     680:	00000613          	li	a2,0
     684:	01836463          	bltu	t1,s8,68c <main+0x3bc>
     688:	00038603          	lb	a2,0(t2)
     68c:	0ff67613          	zext.b	a2,a2
     690:	00c0a023          	sw	a2,0(ra)
     694:	00168693          	add	a3,a3,1
     698:	00408093          	add	ra,ra,4
     69c:	00738393          	add	t2,t2,7
     6a0:	fc569ee3          	bne	a3,t0,67c <main+0x3ac>
     6a4:	05010393          	add	t2,sp,80
     6a8:	00070613          	mv	a2,a4
    for(int j=0;j<4;++j){ int k=s-j; int8_t b=(k>=0&&k<K)? Bflat[k*LDB+j]:0; Bw[j]=(uint32_t)(uint8_t)b; }
     6ac:	00000c13          	li	s8,0
     6b0:	418780b3          	sub	ra,a5,s8
     6b4:	00000693          	li	a3,0
     6b8:	00136463          	bltu	t1,ra,6c0 <main+0x3f0>
     6bc:	00060683          	lb	a3,0(a2)
     6c0:	0ff6f693          	zext.b	a3,a3
     6c4:	00d3a023          	sw	a3,0(t2)
     6c8:	001c0c13          	add	s8,s8,1
     6cc:	00438393          	add	t2,t2,4
     6d0:	ffd60613          	add	a2,a2,-3
     6d4:	fc5c1ee3          	bne	s8,t0,6b0 <main+0x3e0>
    cfs_write(CFS_A0,Aw[0]); cfs_write(CFS_A1,Aw[1]); cfs_write(CFS_A2,Aw[2]); cfs_write(CFS_A3,Aw[3]);
     6d8:	04012683          	lw	a3,64(sp)
static inline void     cfs_write(uint32_t off, uint32_t val){ CFS_REG(off)=val; }
     6dc:	00dba023          	sw	a3,0(s7)
    cfs_write(CFS_A0,Aw[0]); cfs_write(CFS_A1,Aw[1]); cfs_write(CFS_A2,Aw[2]); cfs_write(CFS_A3,Aw[3]);
     6e0:	04412683          	lw	a3,68(sp)
static inline void     cfs_write(uint32_t off, uint32_t val){ CFS_REG(off)=val; }
     6e4:	00da2023          	sw	a3,0(s4)
    cfs_write(CFS_A0,Aw[0]); cfs_write(CFS_A1,Aw[1]); cfs_write(CFS_A2,Aw[2]); cfs_write(CFS_A3,Aw[3]);
     6e8:	04812683          	lw	a3,72(sp)
static inline void     cfs_write(uint32_t off, uint32_t val){ CFS_REG(off)=val; }
     6ec:	00dfa023          	sw	a3,0(t6)
    cfs_write(CFS_A0,Aw[0]); cfs_write(CFS_A1,Aw[1]); cfs_write(CFS_A2,Aw[2]); cfs_write(CFS_A3,Aw[3]);
     6f0:	04c12683          	lw	a3,76(sp)
static inline void     cfs_write(uint32_t off, uint32_t val){ CFS_REG(off)=val; }
     6f4:	00df2023          	sw	a3,0(t5)
    cfs_write(CFS_B0,Bw[0]); cfs_write(CFS_B1,Bw[1]); cfs_write(CFS_B2,Bw[2]); cfs_write(CFS_B3,Bw[3]);
     6f8:	05012683          	lw	a3,80(sp)
static inline void     cfs_write(uint32_t off, uint32_t val){ CFS_REG(off)=val; }
     6fc:	00dea023          	sw	a3,0(t4)
    cfs_write(CFS_B0,Bw[0]); cfs_write(CFS_B1,Bw[1]); cfs_write(CFS_B2,Bw[2]); cfs_write(CFS_B3,Bw[3]);
     700:	05412683          	lw	a3,84(sp)
static inline void     cfs_write(uint32_t off, uint32_t val){ CFS_REG(off)=val; }
     704:	00de2023          	sw	a3,0(t3)
    cfs_write(CFS_B0,Bw[0]); cfs_write(CFS_B1,Bw[1]); cfs_write(CFS_B2,Bw[2]); cfs_write(CFS_B3,Bw[3]);
     708:	05812683          	lw	a3,88(sp)
static inline void     cfs_write(uint32_t off, uint32_t val){ CFS_REG(off)=val; }
     70c:	00d52023          	sw	a3,0(a0)
    cfs_write(CFS_B0,Bw[0]); cfs_write(CFS_B1,Bw[1]); cfs_write(CFS_B2,Bw[2]); cfs_write(CFS_B3,Bw[3]);
     710:	05c12683          	lw	a3,92(sp)
static inline void     cfs_write(uint32_t off, uint32_t val){ CFS_REG(off)=val; }
     714:	00d5a023          	sw	a3,0(a1)
static inline uint32_t cfs_read (uint32_t off)             { return CFS_REG(off); }
     718:	000ca683          	lw	a3,0(s9)
static inline void     cfs_write(uint32_t off, uint32_t val){ CFS_REG(off)=val; }
     71c:	011ca023          	sw	a7,0(s9)
  for(int s=0;s<T;++s){
     720:	00178793          	add	a5,a5,1
     724:	00470713          	add	a4,a4,4
     728:	f30790e3          	bne	a5,a6,648 <main+0x378>
     72c:	0e010593          	add	a1,sp,224
static inline uint32_t cfs_read (uint32_t off)             { return CFS_REG(off); }
     730:	ffeb0637          	lui	a2,0xffeb0
  for(int s=0;s<T;++s){
     734:	00058513          	mv	a0,a1
     738:	00000713          	li	a4,0
static inline uint32_t cfs_read (uint32_t off)             { return CFS_REG(off); }
     73c:	04060613          	add	a2,a2,64 # ffeb0040 <__crt0_ram_last+0x7fe30041>
  for(int i=0;i<4;++i) for(int j=0;j<4;++j) C4[i][j]=(int32_t)cfs_read(CFS_C0+i*4+j);
     740:	01000e13          	li	t3,16
     744:	00271693          	sll	a3,a4,0x2
     748:	00000793          	li	a5,0
static inline uint32_t cfs_read (uint32_t off)             { return CFS_REG(off); }
     74c:	00c686b3          	add	a3,a3,a2
     750:	00f68eb3          	add	t4,a3,a5
     754:	000eaf03          	lw	t5,0(t4)
  for(int i=0;i<4;++i) for(int j=0;j<4;++j) C4[i][j]=(int32_t)cfs_read(CFS_C0+i*4+j);
     758:	00f50eb3          	add	t4,a0,a5
     75c:	00478793          	add	a5,a5,4
     760:	01eea023          	sw	t5,0(t4)
     764:	ffc796e3          	bne	a5,t3,750 <main+0x480>
     768:	00470713          	add	a4,a4,4
     76c:	01050513          	add	a0,a0,16
     770:	fcf71ae3          	bne	a4,a5,744 <main+0x474>
     774:	04058713          	add	a4,a1,64
     778:	00040793          	mv	a5,s0
      for(int r=0;r<4;++r) for(int c=0;c<4;++c) C[i0+r][j0+c]=C4[r][c];
     77c:	00078513          	mv	a0,a5
     780:	01000613          	li	a2,16
     784:	02e12e23          	sw	a4,60(sp)
     788:	02b12c23          	sw	a1,56(sp)
     78c:	7a4000ef          	jal	f30 <memcpy>
     790:	03812583          	lw	a1,56(sp)
     794:	03c12703          	lw	a4,60(sp)
     798:	02050793          	add	a5,a0,32
     79c:	01058593          	add	a1,a1,16
     7a0:	fce59ee3          	bne	a1,a4,77c <main+0x4ac>
    for(int j0=0;j0<N;j0+=4){
     7a4:	00400793          	li	a5,4
     7a8:	01040413          	add	s0,s0,16
     7ac:	02fd0863          	beq	s10,a5,7dc <main+0x50c>
     7b0:	000c0d13          	mv	s10,s8
      for(int r=0;r<4;++r){ int sr=i0+r; for(int k=0;k<N;++k) Aflat[r*LDA+k]=A[sr][k]; }
     7b4:	02000613          	li	a2,32
     7b8:	000b0593          	mv	a1,s6
     7bc:	75448513          	add	a0,s1,1876 # 80000754 <Aflat.1>
     7c0:	770000ef          	jal	f30 <memcpy>
     7c4:	0a010793          	add	a5,sp,160
     7c8:	73490713          	add	a4,s2,1844 # 80000734 <Bflat.0>
     7cc:	00fd06b3          	add	a3,s10,a5
     7d0:	02070613          	add	a2,a4,32
     7d4:	73490793          	add	a5,s2,1844
     7d8:	df5ff06f          	j	5cc <main+0x2fc>
  for(int i0=0;i0<N;i0+=4){
     7dc:	080d8d93          	add	s11,s11,128
     7e0:	020b0b13          	add	s6,s6,32
     7e4:	01a98663          	beq	s3,s10,7f0 <main+0x520>
     7e8:	00400993          	li	s3,4
     7ec:	dd1ff06f          	j	5bc <main+0x2ec>
  c0=rdcycle(); i0=rdinstret(); gemm_cfs(A,B,Ccfs); i1=rdinstret(); c1=rdcycle();
     7f0:	a09ff0ef          	jal	1f8 <rdinstret>
     7f4:	00050d93          	mv	s11,a0
     7f8:	00058d13          	mv	s10,a1
     7fc:	9e9ff0ef          	jal	1e4 <rdcycle>
  uint64_t cfs_cyc=c1-c0, cfs_ins=i1-i0;
     800:	02812783          	lw	a5,40(sp)
static int cmp(const int32_t *A,const int32_t *B){ for(int i=0;i<N*N;++i) if(A[i]!=B[i]) return 0; return 1; }
     804:	10000693          	li	a3,256
  uint64_t cfs_cyc=c1-c0, cfs_ins=i1-i0;
     808:	40f50b33          	sub	s6,a0,a5
     80c:	02c12783          	lw	a5,44(sp)
     810:	01653533          	sltu	a0,a0,s6
     814:	40f58c33          	sub	s8,a1,a5
     818:	03012783          	lw	a5,48(sp)
     81c:	40ac0c33          	sub	s8,s8,a0
     820:	40fd8cb3          	sub	s9,s11,a5
     824:	03412783          	lw	a5,52(sp)
     828:	019dbdb3          	sltu	s11,s11,s9
     82c:	40fd0d33          	sub	s10,s10,a5
     830:	41bd0d33          	sub	s10,s10,s11
     834:	00000793          	li	a5,0
static int cmp(const int32_t *A,const int32_t *B){ for(int i=0;i<N*N;++i) if(A[i]!=B[i]) return 0; return 1; }
     838:	12010713          	add	a4,sp,288
     83c:	00f70733          	add	a4,a4,a5
     840:	00072603          	lw	a2,0(a4)
     844:	22010713          	add	a4,sp,544
     848:	00f70733          	add	a4,a4,a5
     84c:	00072703          	lw	a4,0(a4)
     850:	18e61e63          	bne	a2,a4,9ec <main+0x71c>
     854:	00478793          	add	a5,a5,4
     858:	fed790e3          	bne	a5,a3,838 <main+0x568>
     85c:	00100413          	li	s0,1
     860:	00000793          	li	a5,0
     864:	10000613          	li	a2,256
     868:	32010713          	add	a4,sp,800
     86c:	12010693          	add	a3,sp,288
     870:	00f70733          	add	a4,a4,a5
     874:	00f686b3          	add	a3,a3,a5
     878:	0006a683          	lw	a3,0(a3)
     87c:	00072703          	lw	a4,0(a4)
     880:	16e69a63          	bne	a3,a4,9f4 <main+0x724>
     884:	00478793          	add	a5,a5,4
     888:	fec790e3          	bne	a5,a2,868 <main+0x598>
     88c:	00100d93          	li	s11,1

  int ok1=cmp(&Csw[0][0],&Ccfu[0][0]);
  int ok2=cmp(&Csw[0][0],&Ccfs[0][0]);

  printf("\n%dx%d timing summary\n", N,N);
     890:	0000f537          	lui	a0,0xf
     894:	00800593          	li	a1,8
     898:	00800613          	li	a2,8
     89c:	e5c50513          	add	a0,a0,-420 # ee5c <__fini_array_end+0x64>
     8a0:	400000ef          	jal	ca0 <printf>
  printf("Path |   cycles   |  instret   | Speedup(cyc) | Speedup(inst)\n");
     8a4:	0000f537          	lui	a0,0xf
     8a8:	e7450513          	add	a0,a0,-396 # ee74 <__fini_array_end+0x7c>
     8ac:	588000ef          	jal	e34 <puts>
  printf("-----+------------+------------+--------------+--------------\n");
     8b0:	0000f537          	lui	a0,0xf
     8b4:	eb450513          	add	a0,a0,-332 # eeb4 <__fini_array_end+0xbc>
     8b8:	57c000ef          	jal	e34 <puts>
  printf(" SW  | %10" PRIu64 " | %10" PRIu64 " |     --       |     --      \n", sw_cyc, sw_ins);
     8bc:	01012703          	lw	a4,16(sp)
     8c0:	01812783          	lw	a5,24(sp)
     8c4:	00c12603          	lw	a2,12(sp)
     8c8:	01412683          	lw	a3,20(sp)
     8cc:	0000f537          	lui	a0,0xf
     8d0:	ef450513          	add	a0,a0,-268 # eef4 <__fini_array_end+0xfc>
     8d4:	3cc000ef          	jal	ca0 <printf>
  printf(" CFU | %10" PRIu64 " | %10" PRIu64 " |  ", cfu_cyc, cfu_ins); print_speedup_fixed(sw_cyc,cfu_cyc); printf("     |  "); print_speedup_fixed(sw_ins,cfu_ins); printf("\n");
     8d8:	01c12703          	lw	a4,28(sp)
     8dc:	02412783          	lw	a5,36(sp)
     8e0:	02012683          	lw	a3,32(sp)
     8e4:	0000f537          	lui	a0,0xf
     8e8:	000a8613          	mv	a2,s5
     8ec:	f2c50513          	add	a0,a0,-212 # ef2c <__fini_array_end+0x134>
     8f0:	3b0000ef          	jal	ca0 <printf>
     8f4:	02012683          	lw	a3,32(sp)
     8f8:	01412583          	lw	a1,20(sp)
     8fc:	00c12503          	lw	a0,12(sp)
     900:	000a8613          	mv	a2,s5
     904:	0000fab7          	lui	s5,0xf
     908:	905ff0ef          	jal	20c <print_speedup_fixed>
     90c:	f48a8513          	add	a0,s5,-184 # ef48 <__fini_array_end+0x150>
     910:	390000ef          	jal	ca0 <printf>
     914:	01812583          	lw	a1,24(sp)
     918:	01c12603          	lw	a2,28(sp)
     91c:	02412683          	lw	a3,36(sp)
     920:	01012503          	lw	a0,16(sp)
     924:	8e9ff0ef          	jal	20c <print_speedup_fixed>
     928:	00a00513          	li	a0,10
     92c:	3c4000ef          	jal	cf0 <putchar>
  printf(" CFS | %10" PRIu64 " | %10" PRIu64 " |  ", cfs_cyc, cfs_ins); print_speedup_fixed(sw_cyc,cfs_cyc); printf("     |  "); print_speedup_fixed(sw_ins,cfs_ins); printf("\n");
     930:	0000f537          	lui	a0,0xf
     934:	000c8713          	mv	a4,s9
     938:	000d0793          	mv	a5,s10
     93c:	000b0613          	mv	a2,s6
     940:	000c0693          	mv	a3,s8
     944:	f5450513          	add	a0,a0,-172 # ef54 <__fini_array_end+0x15c>
     948:	358000ef          	jal	ca0 <printf>
     94c:	01412583          	lw	a1,20(sp)
     950:	00c12503          	lw	a0,12(sp)
     954:	000b0613          	mv	a2,s6
     958:	000c0693          	mv	a3,s8
     95c:	8b1ff0ef          	jal	20c <print_speedup_fixed>
     960:	f48a8513          	add	a0,s5,-184
     964:	33c000ef          	jal	ca0 <printf>
     968:	01012503          	lw	a0,16(sp)
     96c:	01812583          	lw	a1,24(sp)
     970:	000c8613          	mv	a2,s9
     974:	000d0693          	mv	a3,s10
     978:	895ff0ef          	jal	20c <print_speedup_fixed>
     97c:	00a00513          	li	a0,10
     980:	370000ef          	jal	cf0 <putchar>

  printf("\nVerdict: CFU %s, CFS %s\n", ok1?"PASS":"FAIL", ok2?"PASS":"FAIL");
     984:	06040c63          	beqz	s0,9fc <main+0x72c>
     988:	0000f5b7          	lui	a1,0xf
     98c:	e1458593          	add	a1,a1,-492 # ee14 <__fini_array_end+0x1c>
     990:	060d8c63          	beqz	s11,a08 <main+0x738>
     994:	0000f637          	lui	a2,0xf
     998:	e1460613          	add	a2,a2,-492 # ee14 <__fini_array_end+0x1c>
     99c:	0000f537          	lui	a0,0xf
     9a0:	f7050513          	add	a0,a0,-144 # ef70 <__fini_array_end+0x178>
     9a4:	2fc000ef          	jal	ca0 <printf>
  return (ok1&&ok2)?0:1;
     9a8:	008df533          	and	a0,s11,s0
}
     9ac:	45c12083          	lw	ra,1116(sp)
     9b0:	45812403          	lw	s0,1112(sp)
     9b4:	45412483          	lw	s1,1108(sp)
     9b8:	45012903          	lw	s2,1104(sp)
     9bc:	44c12983          	lw	s3,1100(sp)
     9c0:	44812a03          	lw	s4,1096(sp)
     9c4:	44412a83          	lw	s5,1092(sp)
     9c8:	44012b03          	lw	s6,1088(sp)
     9cc:	43c12b83          	lw	s7,1084(sp)
     9d0:	43812c03          	lw	s8,1080(sp)
     9d4:	43412c83          	lw	s9,1076(sp)
     9d8:	43012d03          	lw	s10,1072(sp)
     9dc:	42c12d83          	lw	s11,1068(sp)
     9e0:	00154513          	xor	a0,a0,1
     9e4:	46010113          	add	sp,sp,1120
     9e8:	00008067          	ret
static int cmp(const int32_t *A,const int32_t *B){ for(int i=0;i<N*N;++i) if(A[i]!=B[i]) return 0; return 1; }
     9ec:	00000413          	li	s0,0
     9f0:	e71ff06f          	j	860 <main+0x590>
     9f4:	00000d93          	li	s11,0
     9f8:	e99ff06f          	j	890 <main+0x5c0>
  printf("\nVerdict: CFU %s, CFS %s\n", ok1?"PASS":"FAIL", ok2?"PASS":"FAIL");
     9fc:	0000f5b7          	lui	a1,0xf
     a00:	e1c58593          	add	a1,a1,-484 # ee1c <__fini_array_end+0x24>
     a04:	f8dff06f          	j	990 <main+0x6c0>
     a08:	0000f637          	lui	a2,0xf
     a0c:	e1c60613          	add	a2,a2,-484 # ee1c <__fini_array_end+0x24>
     a10:	f8dff06f          	j	99c <main+0x6cc>

00000a14 <_exit>:
 * Exit a program without cleaning up anything.
 **************************************************************************/
void _exit(int status) {

  // put status into register 'a0' and jump to crt0's exit code
  asm volatile (
     a14:	fffff097          	auipc	ra,0xfffff
     a18:	74408093          	add	ra,ra,1860 # 158 <__crt0_main_exit>
     a1c:	00050513          	mv	a0,a0
     a20:	00008067          	ret

00000a24 <_close>:
  return neorv32_semihosting_close(file);
#else
  (void)file;
  return -1; // no files available
#endif
}
     a24:	fff00513          	li	a0,-1
     a28:	00008067          	ret

00000a2c <_fstat>:
 /**********************************************************************//**
 * Status of an open file. All files are regarded as character special devices.
 **************************************************************************/
int _fstat(int file, struct stat *st) {
  (void)file;
  st->st_mode = S_IFCHR;
     a2c:	000027b7          	lui	a5,0x2
     a30:	00f5a223          	sw	a5,4(a1)
  return 0;
}
     a34:	00000513          	li	a0,0
     a38:	00008067          	ret

00000a3c <_getpid>:
 * Process-ID; this is sometimes used to generate strings unlikely to
 * conflict with other processes.
 **************************************************************************/
int _getpid() {
  return 1; // there is only one process by default
}
     a3c:	00100513          	li	a0,1
     a40:	00008067          	ret

00000a44 <_isatty>:
  return neorv32_semihosting_istty(file);
#else
  (void)file;
  return 1; // all streams are terminals
#endif
}
     a44:	00100513          	li	a0,1
     a48:	00008067          	ret

00000a4c <_kill>:
 * Send a signal.
 **************************************************************************/
int _kill(int pid, int sig) {
  (void)pid;
  (void)sig;
  errno = EINVAL;
     a4c:	800007b7          	lui	a5,0x80000
     a50:	01600713          	li	a4,22
     a54:	70e7ac23          	sw	a4,1816(a5) # 80000718 <errno>
  return -1;
}
     a58:	fff00513          	li	a0,-1
     a5c:	00008067          	ret

00000a60 <_lseek>:
  (void)file;
  (void)ptr;
  (void)dir;
  return 0;
#endif
}
     a60:	00000513          	li	a0,0
     a64:	00008067          	ret

00000a68 <_read>:

 /**********************************************************************//**
 * Read from a file. STDIN will read from UART0, all other input streams
 * will read from UART1.
 **************************************************************************/
int _read(int file, char *ptr, int len) {
     a68:	fe010113          	add	sp,sp,-32
     a6c:	00912a23          	sw	s1,20(sp)
     a70:	01212823          	sw	s2,16(sp)
     a74:	00112e23          	sw	ra,28(sp)
     a78:	00812c23          	sw	s0,24(sp)
     a7c:	01312623          	sw	s3,12(sp)
     a80:	01412423          	sw	s4,8(sp)
     a84:	00058913          	mv	s2,a1
     a88:	00060493          	mv	s1,a2
#else
  char c = 0;
  int read_cnt = 0;

  // read STDIN stream from NEORV32.UART0 (if available)
  if ((file == STDIN_FILENO) && (neorv32_uart_available(NEORV32_UART0))) {
     a8c:	06051463          	bnez	a0,af4 <_read+0x8c>
     a90:	00050413          	mv	s0,a0
     a94:	fff50537          	lui	a0,0xfff50
     a98:	1a0000ef          	jal	c38 <neorv32_uart_available>
     a9c:	04050c63          	beqz	a0,af4 <_read+0x8c>
    while (len--) {
      c = (char)neorv32_uart_getc(NEORV32_UART0);
      *ptr++ = c;
      read_cnt++;
      if ((c == '\n') || (c == '\r')) { // also terminate on [press enter]
     aa0:	00a00993          	li	s3,10
     aa4:	00d00a13          	li	s4,13
    while (len--) {
     aa8:	00941663          	bne	s0,s1,ab4 <_read+0x4c>
        return read_cnt;
      }
    }
    return read_cnt;
     aac:	00048413          	mv	s0,s1
     ab0:	0200006f          	j	ad0 <_read+0x68>
      c = (char)neorv32_uart_getc(NEORV32_UART0);
     ab4:	fff50537          	lui	a0,0xfff50
     ab8:	1d0000ef          	jal	c88 <neorv32_uart_getc>
      *ptr++ = c;
     abc:	008907b3          	add	a5,s2,s0
     ac0:	00a78023          	sb	a0,0(a5)
      read_cnt++;
     ac4:	00140413          	add	s0,s0,1
      if ((c == '\n') || (c == '\r')) { // also terminate on [press enter]
     ac8:	01350463          	beq	a0,s3,ad0 <_read+0x68>
     acc:	fd451ee3          	bne	a0,s4,aa8 <_read+0x40>
  else {
    errno = ENOSYS;
    return -1;
  }
#endif
}
     ad0:	01c12083          	lw	ra,28(sp)
     ad4:	00040513          	mv	a0,s0
     ad8:	01812403          	lw	s0,24(sp)
     adc:	01412483          	lw	s1,20(sp)
     ae0:	01012903          	lw	s2,16(sp)
     ae4:	00c12983          	lw	s3,12(sp)
     ae8:	00812a03          	lw	s4,8(sp)
     aec:	02010113          	add	sp,sp,32
     af0:	00008067          	ret
  else if (neorv32_uart_available(NEORV32_UART1)) {
     af4:	fff60537          	lui	a0,0xfff60
     af8:	140000ef          	jal	c38 <neorv32_uart_available>
  int read_cnt = 0;
     afc:	00000413          	li	s0,0
  else if (neorv32_uart_available(NEORV32_UART1)) {
     b00:	02050863          	beqz	a0,b30 <_read+0xc8>
      if ((c == '\n') || (c == '\r')) { // also terminate on [press enter]
     b04:	00a00993          	li	s3,10
     b08:	00d00a13          	li	s4,13
    while (len--) {
     b0c:	fa9400e3          	beq	s0,s1,aac <_read+0x44>
      c = (char)neorv32_uart_getc(NEORV32_UART1);
     b10:	fff60537          	lui	a0,0xfff60
     b14:	174000ef          	jal	c88 <neorv32_uart_getc>
      *ptr++ = c;
     b18:	008907b3          	add	a5,s2,s0
     b1c:	00a78023          	sb	a0,0(a5)
      read_cnt++;
     b20:	00140413          	add	s0,s0,1
      if ((c == '\n') || (c == '\r')) { // also terminate on [press enter]
     b24:	fb3506e3          	beq	a0,s3,ad0 <_read+0x68>
     b28:	ff4512e3          	bne	a0,s4,b0c <_read+0xa4>
     b2c:	fa5ff06f          	j	ad0 <_read+0x68>
    errno = ENOSYS;
     b30:	800007b7          	lui	a5,0x80000
     b34:	05800713          	li	a4,88
     b38:	70e7ac23          	sw	a4,1816(a5) # 80000718 <errno>
    return -1;
     b3c:	fff00413          	li	s0,-1
     b40:	f91ff06f          	j	ad0 <_read+0x68>

00000b44 <_write>:

 /**********************************************************************//**
 * Write to a file. STDOUT and STDERR will write to UART0, all other
 * output streams will write to UART1.
 **************************************************************************/
int _write(int file, char *ptr, int len) {
     b44:	ff010113          	add	sp,sp,-16
     b48:	00812423          	sw	s0,8(sp)
     b4c:	00912223          	sw	s1,4(sp)
     b50:	00112623          	sw	ra,12(sp)
     b54:	01212023          	sw	s2,0(sp)
  return neorv32_semihosting_write(file, ptr, len);
#else
  int write_cnt = 0;

  // write STDOUT and STDERR streams to NEORV32.UART0 (if available)
  if ((file == STDOUT_FILENO) || (file == STDERR_FILENO)) {
     b58:	fff50513          	add	a0,a0,-1 # fff5ffff <__crt0_ram_last+0x7fee0000>
     b5c:	00100793          	li	a5,1
int _write(int file, char *ptr, int len) {
     b60:	00058413          	mv	s0,a1
     b64:	00060493          	mv	s1,a2
  if ((file == STDOUT_FILENO) || (file == STDERR_FILENO)) {
     b68:	04a7ec63          	bltu	a5,a0,bc0 <_write+0x7c>
    if (neorv32_uart_available(NEORV32_UART0)) {
     b6c:	fff50537          	lui	a0,0xfff50
     b70:	0c8000ef          	jal	c38 <neorv32_uart_available>
     b74:	00940933          	add	s2,s0,s1
     b78:	02051463          	bnez	a0,ba0 <_write+0x5c>
        write_cnt++;
      }
      return write_cnt;
    }
    else {
      errno = ENOSYS;
     b7c:	800007b7          	lui	a5,0x80000
     b80:	05800713          	li	a4,88
     b84:	70e7ac23          	sw	a4,1816(a5) # 80000718 <errno>
      return -1;
     b88:	fff00493          	li	s1,-1
     b8c:	0180006f          	j	ba4 <_write+0x60>
        neorv32_uart_putc(NEORV32_UART0, *ptr++);
     b90:	00044583          	lbu	a1,0(s0)
     b94:	fff50537          	lui	a0,0xfff50
     b98:	00140413          	add	s0,s0,1
     b9c:	0d8000ef          	jal	c74 <neorv32_uart_putc>
      while (len--) {
     ba0:	fe8918e3          	bne	s2,s0,b90 <_write+0x4c>
  else {
    errno = ENOSYS;
    return -1;
  }
#endif
}
     ba4:	00c12083          	lw	ra,12(sp)
     ba8:	00812403          	lw	s0,8(sp)
     bac:	00012903          	lw	s2,0(sp)
     bb0:	00048513          	mv	a0,s1
     bb4:	00412483          	lw	s1,4(sp)
     bb8:	01010113          	add	sp,sp,16
     bbc:	00008067          	ret
  if (neorv32_uart_available(NEORV32_UART1)) {
     bc0:	fff60537          	lui	a0,0xfff60
     bc4:	074000ef          	jal	c38 <neorv32_uart_available>
     bc8:	00940933          	add	s2,s0,s1
     bcc:	fa0508e3          	beqz	a0,b7c <_write+0x38>
    while (len--) {
     bd0:	fd240ae3          	beq	s0,s2,ba4 <_write+0x60>
      neorv32_uart_putc(NEORV32_UART1, *ptr++);
     bd4:	00044583          	lbu	a1,0(s0)
     bd8:	fff60537          	lui	a0,0xfff60
     bdc:	00140413          	add	s0,s0,1
     be0:	094000ef          	jal	c74 <neorv32_uart_putc>
      write_cnt++;
     be4:	fedff06f          	j	bd0 <_write+0x8c>

00000be8 <_sbrk>:

  static unsigned char *curr_heap = NULL; // current heap pointer
  unsigned char *prev_heap; // previous heap pointer

  // initialize
  if (curr_heap == NULL) {
     be8:	80000737          	lui	a4,0x80000
     bec:	71472683          	lw	a3,1812(a4) # 80000714 <curr_heap.0>
     bf0:	80001637          	lui	a2,0x80001
void *_sbrk(int incr) {
     bf4:	00050793          	mv	a5,a0
     bf8:	8d460613          	add	a2,a2,-1836 # 800008d4 <__crt0_bss_end>
  if (curr_heap == NULL) {
     bfc:	00069463          	bnez	a3,c04 <_sbrk+0x1c>
    curr_heap = (unsigned char *)NEORV32_HEAP_BEGIN;
     c00:	70c72a23          	sw	a2,1812(a4)
  }

  // do we have a heap at all?
  if ((NEORV32_HEAP_BEGIN == NEORV32_HEAP_END) || (NEORV32_HEAP_SIZE == 0)) {
     c04:	800016b7          	lui	a3,0x80001
     c08:	8d468693          	add	a3,a3,-1836 # 800008d4 <__crt0_bss_end>
     c0c:	00c69c63          	bne	a3,a2,c24 <_sbrk+0x3c>
#ifdef NEWLIB_DEBUG
    write(STDERR_FILENO, "[neorv32-newlib] no heap available\r\n", 36);
#endif
    errno = ENOMEM;
     c10:	800007b7          	lui	a5,0x80000
     c14:	00c00713          	li	a4,12
     c18:	70e7ac23          	sw	a4,1816(a5) # 80000718 <errno>
    return (void*)-1; // error - no more memory
     c1c:	fff00513          	li	a0,-1
     c20:	00008067          	ret
  }

  // sufficient space left?
  if ((uint32_t)(curr_heap + incr) >= NEORV32_HEAP_END) {
     c24:	71472503          	lw	a0,1812(a4)
     c28:	00f507b3          	add	a5,a0,a5
     c2c:	fed7f2e3          	bgeu	a5,a3,c10 <_sbrk+0x28>
    errno = ENOMEM;
    return (void*)-1; // error - no more memory
  }

  prev_heap = curr_heap;
  curr_heap += incr;
     c30:	70f72a23          	sw	a5,1812(a4)

  return (void*)prev_heap;
}
     c34:	00008067          	ret

00000c38 <neorv32_uart_available>:
 * @param[in,out] Hardware handle to UART register struct, #neorv32_uart_t.
 * @return 0 if UART0/1 was not synthesized, non-zero if UART0/1 is available.
 **************************************************************************/
int neorv32_uart_available(neorv32_uart_t *UARTx) {

  if (UARTx == NEORV32_UART0) {
     c38:	fff50737          	lui	a4,0xfff50
int neorv32_uart_available(neorv32_uart_t *UARTx) {
     c3c:	00050793          	mv	a5,a0
  if (UARTx == NEORV32_UART0) {
     c40:	00e51c63          	bne	a0,a4,c58 <neorv32_uart_available+0x20>
    return (int)(NEORV32_SYSINFO->SOC & (1 << SYSINFO_SOC_IO_UART0));
     c44:	fffe07b7          	lui	a5,0xfffe0
     c48:	0087a503          	lw	a0,8(a5) # fffe0008 <__crt0_ram_last+0x7ff60009>
     c4c:	000207b7          	lui	a5,0x20
  }
  else if (UARTx == NEORV32_UART1) {
    return (int)(NEORV32_SYSINFO->SOC & (1 << SYSINFO_SOC_IO_UART1));
     c50:	00f57533          	and	a0,a0,a5
  }
  else {
    return 0;
  }
}
     c54:	00008067          	ret
  else if (UARTx == NEORV32_UART1) {
     c58:	fff60737          	lui	a4,0xfff60
    return 0;
     c5c:	00000513          	li	a0,0
  else if (UARTx == NEORV32_UART1) {
     c60:	fee79ae3          	bne	a5,a4,c54 <neorv32_uart_available+0x1c>
    return (int)(NEORV32_SYSINFO->SOC & (1 << SYSINFO_SOC_IO_UART1));
     c64:	fffe07b7          	lui	a5,0xfffe0
     c68:	0087a503          	lw	a0,8(a5) # fffe0008 <__crt0_ram_last+0x7ff60009>
     c6c:	020007b7          	lui	a5,0x2000
     c70:	fe1ff06f          	j	c50 <neorv32_uart_available+0x18>

00000c74 <neorv32_uart_putc>:
 * @param[in,out] UARTx Hardware handle to UART register struct, #neorv32_uart_t.
 * @param[in] c Char to be send.
 **************************************************************************/
void neorv32_uart_putc(neorv32_uart_t *UARTx, char c) {

  while ((UARTx->CTRL & (1<<UART_CTRL_TX_NFULL)) == 0); // wait for free space in TX FIFO
     c74:	00052783          	lw	a5,0(a0) # fff60000 <__crt0_ram_last+0x7fee0001>
     c78:	00a79713          	sll	a4,a5,0xa
     c7c:	fe075ce3          	bgez	a4,c74 <neorv32_uart_putc>
  UARTx->DATA = (uint32_t)c << UART_DATA_RTX_LSB;
     c80:	00b52223          	sw	a1,4(a0)
}
     c84:	00008067          	ret

00000c88 <neorv32_uart_getc>:
 * @param[in,out] UARTx Hardware handle to UART register struct, #neorv32_uart_t.
 * @return Received char.
 **************************************************************************/
char neorv32_uart_getc(neorv32_uart_t *UARTx) {

  while ((UARTx->CTRL & (1<<UART_CTRL_RX_NEMPTY)) == 0); // wait until data available
     c88:	00052783          	lw	a5,0(a0)
     c8c:	00f79713          	sll	a4,a5,0xf
     c90:	fe075ce3          	bgez	a4,c88 <neorv32_uart_getc>
  return (char)(UARTx->DATA >> UART_DATA_RTX_LSB);
     c94:	00452503          	lw	a0,4(a0)
}
     c98:	0ff57513          	zext.b	a0,a0
     c9c:	00008067          	ret

00000ca0 <printf>:
     ca0:	fc010113          	add	sp,sp,-64
     ca4:	02c12423          	sw	a2,40(sp)
     ca8:	02d12623          	sw	a3,44(sp)
     cac:	80000317          	auipc	t1,0x80000
     cb0:	a5c32303          	lw	t1,-1444(t1) # 80000708 <_impure_ptr>
     cb4:	02b12223          	sw	a1,36(sp)
     cb8:	02e12823          	sw	a4,48(sp)
     cbc:	02f12a23          	sw	a5,52(sp)
     cc0:	03012c23          	sw	a6,56(sp)
     cc4:	03112e23          	sw	a7,60(sp)
     cc8:	00832583          	lw	a1,8(t1)
     ccc:	02410693          	add	a3,sp,36
     cd0:	00050613          	mv	a2,a0
     cd4:	00030513          	mv	a0,t1
     cd8:	00112e23          	sw	ra,28(sp)
     cdc:	00d12623          	sw	a3,12(sp)
     ce0:	0c8010ef          	jal	1da8 <_vfprintf_r>
     ce4:	01c12083          	lw	ra,28(sp)
     ce8:	04010113          	add	sp,sp,64
     cec:	00008067          	ret

00000cf0 <putchar>:
     cf0:	80000797          	auipc	a5,0x80000
     cf4:	a187a783          	lw	a5,-1512(a5) # 80000708 <_impure_ptr>
     cf8:	0087a603          	lw	a2,8(a5)
     cfc:	00050593          	mv	a1,a0
     d00:	00078513          	mv	a0,a5
     d04:	3c00606f          	j	70c4 <_putc_r>

00000d08 <_puts_r>:
     d08:	fd010113          	add	sp,sp,-48
     d0c:	02812423          	sw	s0,40(sp)
     d10:	00050413          	mv	s0,a0
     d14:	00058513          	mv	a0,a1
     d18:	02912223          	sw	s1,36(sp)
     d1c:	02112623          	sw	ra,44(sp)
     d20:	00058493          	mv	s1,a1
     d24:	3b0000ef          	jal	10d4 <strlen>
     d28:	00150713          	add	a4,a0,1
     d2c:	0000e697          	auipc	a3,0xe
     d30:	1fc68693          	add	a3,a3,508 # ef28 <__fini_array_end+0x130>
     d34:	00e12623          	sw	a4,12(sp)
     d38:	03442783          	lw	a5,52(s0)
     d3c:	01010713          	add	a4,sp,16
     d40:	00d12c23          	sw	a3,24(sp)
     d44:	00e12223          	sw	a4,4(sp)
     d48:	00100693          	li	a3,1
     d4c:	00200713          	li	a4,2
     d50:	00912823          	sw	s1,16(sp)
     d54:	00a12a23          	sw	a0,20(sp)
     d58:	00d12e23          	sw	a3,28(sp)
     d5c:	00e12423          	sw	a4,8(sp)
     d60:	00842483          	lw	s1,8(s0)
     d64:	0c078263          	beqz	a5,e28 <_puts_r+0x120>
     d68:	0644a703          	lw	a4,100(s1)
     d6c:	00c49783          	lh	a5,12(s1)
     d70:	00177713          	and	a4,a4,1
     d74:	00071663          	bnez	a4,d80 <_puts_r+0x78>
     d78:	2007f713          	and	a4,a5,512
     d7c:	08070e63          	beqz	a4,e18 <_puts_r+0x110>
     d80:	01279713          	sll	a4,a5,0x12
     d84:	02074263          	bltz	a4,da8 <_puts_r+0xa0>
     d88:	0644a703          	lw	a4,100(s1)
     d8c:	ffffe6b7          	lui	a3,0xffffe
     d90:	fff68693          	add	a3,a3,-1 # ffffdfff <__crt0_ram_last+0x7ff7e000>
     d94:	00002637          	lui	a2,0x2
     d98:	00c7e7b3          	or	a5,a5,a2
     d9c:	00d77733          	and	a4,a4,a3
     da0:	00f49623          	sh	a5,12(s1)
     da4:	06e4a223          	sw	a4,100(s1)
     da8:	00040513          	mv	a0,s0
     dac:	00410613          	add	a2,sp,4
     db0:	00048593          	mv	a1,s1
     db4:	549050ef          	jal	6afc <__sfvwrite_r>
     db8:	0644a783          	lw	a5,100(s1)
     dbc:	00153413          	seqz	s0,a0
     dc0:	40800433          	neg	s0,s0
     dc4:	00b47413          	and	s0,s0,11
     dc8:	0017f793          	and	a5,a5,1
     dcc:	fff40413          	add	s0,s0,-1
     dd0:	00079863          	bnez	a5,de0 <_puts_r+0xd8>
     dd4:	00c4d783          	lhu	a5,12(s1)
     dd8:	2007f793          	and	a5,a5,512
     ddc:	00078e63          	beqz	a5,df8 <_puts_r+0xf0>
     de0:	02c12083          	lw	ra,44(sp)
     de4:	00040513          	mv	a0,s0
     de8:	02812403          	lw	s0,40(sp)
     dec:	02412483          	lw	s1,36(sp)
     df0:	03010113          	add	sp,sp,48
     df4:	00008067          	ret
     df8:	0584a503          	lw	a0,88(s1)
     dfc:	054000ef          	jal	e50 <__retarget_lock_release_recursive>
     e00:	02c12083          	lw	ra,44(sp)
     e04:	00040513          	mv	a0,s0
     e08:	02812403          	lw	s0,40(sp)
     e0c:	02412483          	lw	s1,36(sp)
     e10:	03010113          	add	sp,sp,48
     e14:	00008067          	ret
     e18:	0584a503          	lw	a0,88(s1)
     e1c:	030000ef          	jal	e4c <__retarget_lock_acquire_recursive>
     e20:	00c49783          	lh	a5,12(s1)
     e24:	f5dff06f          	j	d80 <_puts_r+0x78>
     e28:	00040513          	mv	a0,s0
     e2c:	449050ef          	jal	6a74 <__sinit>
     e30:	f39ff06f          	j	d68 <_puts_r+0x60>

00000e34 <puts>:
     e34:	00050593          	mv	a1,a0
     e38:	80000517          	auipc	a0,0x80000
     e3c:	8d052503          	lw	a0,-1840(a0) # 80000708 <_impure_ptr>
     e40:	ec9ff06f          	j	d08 <_puts_r>

00000e44 <__retarget_lock_init_recursive>:
     e44:	00008067          	ret

00000e48 <__retarget_lock_close_recursive>:
     e48:	00008067          	ret

00000e4c <__retarget_lock_acquire_recursive>:
     e4c:	00008067          	ret

00000e50 <__retarget_lock_release_recursive>:
     e50:	00008067          	ret

00000e54 <memset>:
     e54:	00f00313          	li	t1,15
     e58:	00050713          	mv	a4,a0
     e5c:	02c37e63          	bgeu	t1,a2,e98 <memset+0x44>
     e60:	00f77793          	and	a5,a4,15
     e64:	0a079063          	bnez	a5,f04 <memset+0xb0>
     e68:	08059263          	bnez	a1,eec <memset+0x98>
     e6c:	ff067693          	and	a3,a2,-16
     e70:	00f67613          	and	a2,a2,15
     e74:	00e686b3          	add	a3,a3,a4
     e78:	00b72023          	sw	a1,0(a4) # fff60000 <__crt0_ram_last+0x7fee0001>
     e7c:	00b72223          	sw	a1,4(a4)
     e80:	00b72423          	sw	a1,8(a4)
     e84:	00b72623          	sw	a1,12(a4)
     e88:	01070713          	add	a4,a4,16
     e8c:	fed766e3          	bltu	a4,a3,e78 <memset+0x24>
     e90:	00061463          	bnez	a2,e98 <memset+0x44>
     e94:	00008067          	ret
     e98:	40c306b3          	sub	a3,t1,a2
     e9c:	00269693          	sll	a3,a3,0x2
     ea0:	00000297          	auipc	t0,0x0
     ea4:	005686b3          	add	a3,a3,t0
     ea8:	00c68067          	jr	12(a3)
     eac:	00b70723          	sb	a1,14(a4)
     eb0:	00b706a3          	sb	a1,13(a4)
     eb4:	00b70623          	sb	a1,12(a4)
     eb8:	00b705a3          	sb	a1,11(a4)
     ebc:	00b70523          	sb	a1,10(a4)
     ec0:	00b704a3          	sb	a1,9(a4)
     ec4:	00b70423          	sb	a1,8(a4)
     ec8:	00b703a3          	sb	a1,7(a4)
     ecc:	00b70323          	sb	a1,6(a4)
     ed0:	00b702a3          	sb	a1,5(a4)
     ed4:	00b70223          	sb	a1,4(a4)
     ed8:	00b701a3          	sb	a1,3(a4)
     edc:	00b70123          	sb	a1,2(a4)
     ee0:	00b700a3          	sb	a1,1(a4)
     ee4:	00b70023          	sb	a1,0(a4)
     ee8:	00008067          	ret
     eec:	0ff5f593          	zext.b	a1,a1
     ef0:	00859693          	sll	a3,a1,0x8
     ef4:	00d5e5b3          	or	a1,a1,a3
     ef8:	01059693          	sll	a3,a1,0x10
     efc:	00d5e5b3          	or	a1,a1,a3
     f00:	f6dff06f          	j	e6c <memset+0x18>
     f04:	00279693          	sll	a3,a5,0x2
     f08:	00000297          	auipc	t0,0x0
     f0c:	005686b3          	add	a3,a3,t0
     f10:	00008293          	mv	t0,ra
     f14:	fa0680e7          	jalr	-96(a3)
     f18:	00028093          	mv	ra,t0
     f1c:	ff078793          	add	a5,a5,-16
     f20:	40f70733          	sub	a4,a4,a5
     f24:	00f60633          	add	a2,a2,a5
     f28:	f6c378e3          	bgeu	t1,a2,e98 <memset+0x44>
     f2c:	f3dff06f          	j	e68 <memset+0x14>

00000f30 <memcpy>:
     f30:	00a5c7b3          	xor	a5,a1,a0
     f34:	0037f793          	and	a5,a5,3
     f38:	00c508b3          	add	a7,a0,a2
     f3c:	06079463          	bnez	a5,fa4 <memcpy+0x74>
     f40:	00300793          	li	a5,3
     f44:	06c7f063          	bgeu	a5,a2,fa4 <memcpy+0x74>
     f48:	00357793          	and	a5,a0,3
     f4c:	00050713          	mv	a4,a0
     f50:	06079a63          	bnez	a5,fc4 <memcpy+0x94>
     f54:	ffc8f613          	and	a2,a7,-4
     f58:	40e606b3          	sub	a3,a2,a4
     f5c:	02000793          	li	a5,32
     f60:	08d7ce63          	blt	a5,a3,ffc <memcpy+0xcc>
     f64:	00058693          	mv	a3,a1
     f68:	00070793          	mv	a5,a4
     f6c:	02c77863          	bgeu	a4,a2,f9c <memcpy+0x6c>
     f70:	0006a803          	lw	a6,0(a3)
     f74:	00478793          	add	a5,a5,4
     f78:	00468693          	add	a3,a3,4
     f7c:	ff07ae23          	sw	a6,-4(a5)
     f80:	fec7e8e3          	bltu	a5,a2,f70 <memcpy+0x40>
     f84:	fff60793          	add	a5,a2,-1 # 1fff <_vfprintf_r+0x257>
     f88:	40e787b3          	sub	a5,a5,a4
     f8c:	ffc7f793          	and	a5,a5,-4
     f90:	00478793          	add	a5,a5,4
     f94:	00f70733          	add	a4,a4,a5
     f98:	00f585b3          	add	a1,a1,a5
     f9c:	01176863          	bltu	a4,a7,fac <memcpy+0x7c>
     fa0:	00008067          	ret
     fa4:	00050713          	mv	a4,a0
     fa8:	05157863          	bgeu	a0,a7,ff8 <memcpy+0xc8>
     fac:	0005c783          	lbu	a5,0(a1)
     fb0:	00170713          	add	a4,a4,1
     fb4:	00158593          	add	a1,a1,1
     fb8:	fef70fa3          	sb	a5,-1(a4)
     fbc:	fee898e3          	bne	a7,a4,fac <memcpy+0x7c>
     fc0:	00008067          	ret
     fc4:	0005c683          	lbu	a3,0(a1)
     fc8:	00170713          	add	a4,a4,1
     fcc:	00377793          	and	a5,a4,3
     fd0:	fed70fa3          	sb	a3,-1(a4)
     fd4:	00158593          	add	a1,a1,1
     fd8:	f6078ee3          	beqz	a5,f54 <memcpy+0x24>
     fdc:	0005c683          	lbu	a3,0(a1)
     fe0:	00170713          	add	a4,a4,1
     fe4:	00377793          	and	a5,a4,3
     fe8:	fed70fa3          	sb	a3,-1(a4)
     fec:	00158593          	add	a1,a1,1
     ff0:	fc079ae3          	bnez	a5,fc4 <memcpy+0x94>
     ff4:	f61ff06f          	j	f54 <memcpy+0x24>
     ff8:	00008067          	ret
     ffc:	ff010113          	add	sp,sp,-16
    1000:	00812623          	sw	s0,12(sp)
    1004:	02000413          	li	s0,32
    1008:	0005a383          	lw	t2,0(a1)
    100c:	0045a283          	lw	t0,4(a1)
    1010:	0085af83          	lw	t6,8(a1)
    1014:	00c5af03          	lw	t5,12(a1)
    1018:	0105ae83          	lw	t4,16(a1)
    101c:	0145ae03          	lw	t3,20(a1)
    1020:	0185a303          	lw	t1,24(a1)
    1024:	01c5a803          	lw	a6,28(a1)
    1028:	0205a683          	lw	a3,32(a1)
    102c:	02470713          	add	a4,a4,36
    1030:	40e607b3          	sub	a5,a2,a4
    1034:	fc772e23          	sw	t2,-36(a4)
    1038:	fe572023          	sw	t0,-32(a4)
    103c:	fff72223          	sw	t6,-28(a4)
    1040:	ffe72423          	sw	t5,-24(a4)
    1044:	ffd72623          	sw	t4,-20(a4)
    1048:	ffc72823          	sw	t3,-16(a4)
    104c:	fe672a23          	sw	t1,-12(a4)
    1050:	ff072c23          	sw	a6,-8(a4)
    1054:	fed72e23          	sw	a3,-4(a4)
    1058:	02458593          	add	a1,a1,36
    105c:	faf446e3          	blt	s0,a5,1008 <memcpy+0xd8>
    1060:	00058693          	mv	a3,a1
    1064:	00070793          	mv	a5,a4
    1068:	02c77863          	bgeu	a4,a2,1098 <memcpy+0x168>
    106c:	0006a803          	lw	a6,0(a3)
    1070:	00478793          	add	a5,a5,4
    1074:	00468693          	add	a3,a3,4
    1078:	ff07ae23          	sw	a6,-4(a5)
    107c:	fec7e8e3          	bltu	a5,a2,106c <memcpy+0x13c>
    1080:	fff60793          	add	a5,a2,-1
    1084:	40e787b3          	sub	a5,a5,a4
    1088:	ffc7f793          	and	a5,a5,-4
    108c:	00478793          	add	a5,a5,4
    1090:	00f70733          	add	a4,a4,a5
    1094:	00f585b3          	add	a1,a1,a5
    1098:	01176863          	bltu	a4,a7,10a8 <memcpy+0x178>
    109c:	00c12403          	lw	s0,12(sp)
    10a0:	01010113          	add	sp,sp,16
    10a4:	00008067          	ret
    10a8:	0005c783          	lbu	a5,0(a1)
    10ac:	00170713          	add	a4,a4,1
    10b0:	00158593          	add	a1,a1,1
    10b4:	fef70fa3          	sb	a5,-1(a4)
    10b8:	fee882e3          	beq	a7,a4,109c <memcpy+0x16c>
    10bc:	0005c783          	lbu	a5,0(a1)
    10c0:	00170713          	add	a4,a4,1
    10c4:	00158593          	add	a1,a1,1
    10c8:	fef70fa3          	sb	a5,-1(a4)
    10cc:	fce89ee3          	bne	a7,a4,10a8 <memcpy+0x178>
    10d0:	fcdff06f          	j	109c <memcpy+0x16c>

000010d4 <strlen>:
    10d4:	00357793          	and	a5,a0,3
    10d8:	00050713          	mv	a4,a0
    10dc:	04079c63          	bnez	a5,1134 <strlen+0x60>
    10e0:	7f7f86b7          	lui	a3,0x7f7f8
    10e4:	f7f68693          	add	a3,a3,-129 # 7f7f7f7f <__neorv32_ram_size+0x7f777f7f>
    10e8:	fff00593          	li	a1,-1
    10ec:	00072603          	lw	a2,0(a4)
    10f0:	00470713          	add	a4,a4,4
    10f4:	00d677b3          	and	a5,a2,a3
    10f8:	00d787b3          	add	a5,a5,a3
    10fc:	00c7e7b3          	or	a5,a5,a2
    1100:	00d7e7b3          	or	a5,a5,a3
    1104:	feb784e3          	beq	a5,a1,10ec <strlen+0x18>
    1108:	ffc74683          	lbu	a3,-4(a4)
    110c:	40a707b3          	sub	a5,a4,a0
    1110:	04068463          	beqz	a3,1158 <strlen+0x84>
    1114:	ffd74683          	lbu	a3,-3(a4)
    1118:	02068c63          	beqz	a3,1150 <strlen+0x7c>
    111c:	ffe74503          	lbu	a0,-2(a4)
    1120:	00a03533          	snez	a0,a0
    1124:	00f50533          	add	a0,a0,a5
    1128:	ffe50513          	add	a0,a0,-2
    112c:	00008067          	ret
    1130:	fa0688e3          	beqz	a3,10e0 <strlen+0xc>
    1134:	00074783          	lbu	a5,0(a4)
    1138:	00170713          	add	a4,a4,1
    113c:	00377693          	and	a3,a4,3
    1140:	fe0798e3          	bnez	a5,1130 <strlen+0x5c>
    1144:	40a70733          	sub	a4,a4,a0
    1148:	fff70513          	add	a0,a4,-1
    114c:	00008067          	ret
    1150:	ffd78513          	add	a0,a5,-3
    1154:	00008067          	ret
    1158:	ffc78513          	add	a0,a5,-4
    115c:	00008067          	ret

00001160 <_malloc_trim_r>:
    1160:	fe010113          	add	sp,sp,-32
    1164:	00812c23          	sw	s0,24(sp)
    1168:	00912a23          	sw	s1,20(sp)
    116c:	01212823          	sw	s2,16(sp)
    1170:	01312623          	sw	s3,12(sp)
    1174:	01412423          	sw	s4,8(sp)
    1178:	00058993          	mv	s3,a1
    117c:	00112e23          	sw	ra,28(sp)
    1180:	00050913          	mv	s2,a0
    1184:	7ffffa17          	auipc	s4,0x7ffff
    1188:	f9ca0a13          	add	s4,s4,-100 # 80000120 <__malloc_av_>
    118c:	405000ef          	jal	1d90 <__malloc_lock>
    1190:	008a2703          	lw	a4,8(s4)
    1194:	000017b7          	lui	a5,0x1
    1198:	fef78793          	add	a5,a5,-17 # fef <memcpy+0xbf>
    119c:	00472483          	lw	s1,4(a4)
    11a0:	00001737          	lui	a4,0x1
    11a4:	ffc4f493          	and	s1,s1,-4
    11a8:	00f48433          	add	s0,s1,a5
    11ac:	41340433          	sub	s0,s0,s3
    11b0:	00c45413          	srl	s0,s0,0xc
    11b4:	fff40413          	add	s0,s0,-1
    11b8:	00c41413          	sll	s0,s0,0xc
    11bc:	00e44e63          	blt	s0,a4,11d8 <_malloc_trim_r+0x78>
    11c0:	00000593          	li	a1,0
    11c4:	00090513          	mv	a0,s2
    11c8:	105060ef          	jal	7acc <_sbrk_r>
    11cc:	008a2783          	lw	a5,8(s4)
    11d0:	009787b3          	add	a5,a5,s1
    11d4:	02f50863          	beq	a0,a5,1204 <_malloc_trim_r+0xa4>
    11d8:	00090513          	mv	a0,s2
    11dc:	3c1000ef          	jal	1d9c <__malloc_unlock>
    11e0:	01c12083          	lw	ra,28(sp)
    11e4:	01812403          	lw	s0,24(sp)
    11e8:	01412483          	lw	s1,20(sp)
    11ec:	01012903          	lw	s2,16(sp)
    11f0:	00c12983          	lw	s3,12(sp)
    11f4:	00812a03          	lw	s4,8(sp)
    11f8:	00000513          	li	a0,0
    11fc:	02010113          	add	sp,sp,32
    1200:	00008067          	ret
    1204:	408005b3          	neg	a1,s0
    1208:	00090513          	mv	a0,s2
    120c:	0c1060ef          	jal	7acc <_sbrk_r>
    1210:	fff00793          	li	a5,-1
    1214:	04f50a63          	beq	a0,a5,1268 <_malloc_trim_r+0x108>
    1218:	7ffff717          	auipc	a4,0x7ffff
    121c:	55c70713          	add	a4,a4,1372 # 80000774 <__malloc_current_mallinfo>
    1220:	00072783          	lw	a5,0(a4)
    1224:	008a2683          	lw	a3,8(s4)
    1228:	408484b3          	sub	s1,s1,s0
    122c:	0014e493          	or	s1,s1,1
    1230:	408787b3          	sub	a5,a5,s0
    1234:	00090513          	mv	a0,s2
    1238:	0096a223          	sw	s1,4(a3)
    123c:	00f72023          	sw	a5,0(a4)
    1240:	35d000ef          	jal	1d9c <__malloc_unlock>
    1244:	01c12083          	lw	ra,28(sp)
    1248:	01812403          	lw	s0,24(sp)
    124c:	01412483          	lw	s1,20(sp)
    1250:	01012903          	lw	s2,16(sp)
    1254:	00c12983          	lw	s3,12(sp)
    1258:	00812a03          	lw	s4,8(sp)
    125c:	00100513          	li	a0,1
    1260:	02010113          	add	sp,sp,32
    1264:	00008067          	ret
    1268:	00000593          	li	a1,0
    126c:	00090513          	mv	a0,s2
    1270:	05d060ef          	jal	7acc <_sbrk_r>
    1274:	008a2703          	lw	a4,8(s4)
    1278:	00f00693          	li	a3,15
    127c:	40e507b3          	sub	a5,a0,a4
    1280:	f4f6dce3          	bge	a3,a5,11d8 <_malloc_trim_r+0x78>
    1284:	7ffff697          	auipc	a3,0x7ffff
    1288:	4886a683          	lw	a3,1160(a3) # 8000070c <__malloc_sbrk_base>
    128c:	40d50533          	sub	a0,a0,a3
    1290:	0017e793          	or	a5,a5,1
    1294:	7ffff697          	auipc	a3,0x7ffff
    1298:	4ea6a023          	sw	a0,1248(a3) # 80000774 <__malloc_current_mallinfo>
    129c:	00f72223          	sw	a5,4(a4)
    12a0:	f39ff06f          	j	11d8 <_malloc_trim_r+0x78>

000012a4 <_free_r>:
    12a4:	18058263          	beqz	a1,1428 <_free_r+0x184>
    12a8:	ff010113          	add	sp,sp,-16
    12ac:	00812423          	sw	s0,8(sp)
    12b0:	00912223          	sw	s1,4(sp)
    12b4:	00058413          	mv	s0,a1
    12b8:	00050493          	mv	s1,a0
    12bc:	00112623          	sw	ra,12(sp)
    12c0:	2d1000ef          	jal	1d90 <__malloc_lock>
    12c4:	ffc42583          	lw	a1,-4(s0)
    12c8:	ff840713          	add	a4,s0,-8
    12cc:	7ffff517          	auipc	a0,0x7ffff
    12d0:	e5450513          	add	a0,a0,-428 # 80000120 <__malloc_av_>
    12d4:	ffe5f793          	and	a5,a1,-2
    12d8:	00f70633          	add	a2,a4,a5
    12dc:	00462683          	lw	a3,4(a2)
    12e0:	00852803          	lw	a6,8(a0)
    12e4:	ffc6f693          	and	a3,a3,-4
    12e8:	1ac80263          	beq	a6,a2,148c <_free_r+0x1e8>
    12ec:	00d62223          	sw	a3,4(a2)
    12f0:	0015f593          	and	a1,a1,1
    12f4:	00d60833          	add	a6,a2,a3
    12f8:	0a059063          	bnez	a1,1398 <_free_r+0xf4>
    12fc:	ff842303          	lw	t1,-8(s0)
    1300:	00482583          	lw	a1,4(a6)
    1304:	7ffff897          	auipc	a7,0x7ffff
    1308:	e2488893          	add	a7,a7,-476 # 80000128 <__malloc_av_+0x8>
    130c:	40670733          	sub	a4,a4,t1
    1310:	00872803          	lw	a6,8(a4)
    1314:	006787b3          	add	a5,a5,t1
    1318:	0015f593          	and	a1,a1,1
    131c:	15180263          	beq	a6,a7,1460 <_free_r+0x1bc>
    1320:	00c72303          	lw	t1,12(a4)
    1324:	00682623          	sw	t1,12(a6)
    1328:	01032423          	sw	a6,8(t1)
    132c:	1a058a63          	beqz	a1,14e0 <_free_r+0x23c>
    1330:	0017e693          	or	a3,a5,1
    1334:	00d72223          	sw	a3,4(a4)
    1338:	00f62023          	sw	a5,0(a2)
    133c:	1ff00693          	li	a3,511
    1340:	06f6ec63          	bltu	a3,a5,13b8 <_free_r+0x114>
    1344:	ff87f693          	and	a3,a5,-8
    1348:	00868693          	add	a3,a3,8
    134c:	00452583          	lw	a1,4(a0)
    1350:	00d506b3          	add	a3,a0,a3
    1354:	0006a603          	lw	a2,0(a3)
    1358:	0057d813          	srl	a6,a5,0x5
    135c:	00100793          	li	a5,1
    1360:	010797b3          	sll	a5,a5,a6
    1364:	00b7e7b3          	or	a5,a5,a1
    1368:	ff868593          	add	a1,a3,-8
    136c:	00b72623          	sw	a1,12(a4)
    1370:	00c72423          	sw	a2,8(a4)
    1374:	00f52223          	sw	a5,4(a0)
    1378:	00e6a023          	sw	a4,0(a3)
    137c:	00e62623          	sw	a4,12(a2)
    1380:	00812403          	lw	s0,8(sp)
    1384:	00c12083          	lw	ra,12(sp)
    1388:	00048513          	mv	a0,s1
    138c:	00412483          	lw	s1,4(sp)
    1390:	01010113          	add	sp,sp,16
    1394:	2090006f          	j	1d9c <__malloc_unlock>
    1398:	00482583          	lw	a1,4(a6)
    139c:	0015f593          	and	a1,a1,1
    13a0:	08058663          	beqz	a1,142c <_free_r+0x188>
    13a4:	0017e693          	or	a3,a5,1
    13a8:	fed42e23          	sw	a3,-4(s0)
    13ac:	00f62023          	sw	a5,0(a2)
    13b0:	1ff00693          	li	a3,511
    13b4:	f8f6f8e3          	bgeu	a3,a5,1344 <_free_r+0xa0>
    13b8:	0097d693          	srl	a3,a5,0x9
    13bc:	00400613          	li	a2,4
    13c0:	12d66463          	bltu	a2,a3,14e8 <_free_r+0x244>
    13c4:	0067d693          	srl	a3,a5,0x6
    13c8:	03968593          	add	a1,a3,57
    13cc:	03868613          	add	a2,a3,56
    13d0:	00359593          	sll	a1,a1,0x3
    13d4:	00b505b3          	add	a1,a0,a1
    13d8:	0005a683          	lw	a3,0(a1)
    13dc:	ff858593          	add	a1,a1,-8
    13e0:	00d59863          	bne	a1,a3,13f0 <_free_r+0x14c>
    13e4:	15c0006f          	j	1540 <_free_r+0x29c>
    13e8:	0086a683          	lw	a3,8(a3)
    13ec:	00d58863          	beq	a1,a3,13fc <_free_r+0x158>
    13f0:	0046a603          	lw	a2,4(a3)
    13f4:	ffc67613          	and	a2,a2,-4
    13f8:	fec7e8e3          	bltu	a5,a2,13e8 <_free_r+0x144>
    13fc:	00c6a583          	lw	a1,12(a3)
    1400:	00b72623          	sw	a1,12(a4)
    1404:	00d72423          	sw	a3,8(a4)
    1408:	00812403          	lw	s0,8(sp)
    140c:	00c12083          	lw	ra,12(sp)
    1410:	00e5a423          	sw	a4,8(a1)
    1414:	00048513          	mv	a0,s1
    1418:	00412483          	lw	s1,4(sp)
    141c:	00e6a623          	sw	a4,12(a3)
    1420:	01010113          	add	sp,sp,16
    1424:	1790006f          	j	1d9c <__malloc_unlock>
    1428:	00008067          	ret
    142c:	00d787b3          	add	a5,a5,a3
    1430:	7ffff897          	auipc	a7,0x7ffff
    1434:	cf888893          	add	a7,a7,-776 # 80000128 <__malloc_av_+0x8>
    1438:	00862683          	lw	a3,8(a2)
    143c:	0f168063          	beq	a3,a7,151c <_free_r+0x278>
    1440:	00c62803          	lw	a6,12(a2)
    1444:	0017e593          	or	a1,a5,1
    1448:	00f70633          	add	a2,a4,a5
    144c:	0106a623          	sw	a6,12(a3)
    1450:	00d82423          	sw	a3,8(a6)
    1454:	00b72223          	sw	a1,4(a4)
    1458:	00f62023          	sw	a5,0(a2)
    145c:	ee1ff06f          	j	133c <_free_r+0x98>
    1460:	14059063          	bnez	a1,15a0 <_free_r+0x2fc>
    1464:	00862583          	lw	a1,8(a2)
    1468:	00c62603          	lw	a2,12(a2)
    146c:	00f686b3          	add	a3,a3,a5
    1470:	0016e793          	or	a5,a3,1
    1474:	00c5a623          	sw	a2,12(a1)
    1478:	00b62423          	sw	a1,8(a2)
    147c:	00f72223          	sw	a5,4(a4)
    1480:	00d70733          	add	a4,a4,a3
    1484:	00d72023          	sw	a3,0(a4)
    1488:	ef9ff06f          	j	1380 <_free_r+0xdc>
    148c:	0015f593          	and	a1,a1,1
    1490:	00d786b3          	add	a3,a5,a3
    1494:	02059063          	bnez	a1,14b4 <_free_r+0x210>
    1498:	ff842583          	lw	a1,-8(s0)
    149c:	40b70733          	sub	a4,a4,a1
    14a0:	00c72783          	lw	a5,12(a4)
    14a4:	00872603          	lw	a2,8(a4)
    14a8:	00b686b3          	add	a3,a3,a1
    14ac:	00f62623          	sw	a5,12(a2)
    14b0:	00c7a423          	sw	a2,8(a5)
    14b4:	0016e793          	or	a5,a3,1
    14b8:	00f72223          	sw	a5,4(a4)
    14bc:	00e52423          	sw	a4,8(a0)
    14c0:	7ffff797          	auipc	a5,0x7ffff
    14c4:	2507a783          	lw	a5,592(a5) # 80000710 <__malloc_trim_threshold>
    14c8:	eaf6ece3          	bltu	a3,a5,1380 <_free_r+0xdc>
    14cc:	7ffff597          	auipc	a1,0x7ffff
    14d0:	2605a583          	lw	a1,608(a1) # 8000072c <__malloc_top_pad>
    14d4:	00048513          	mv	a0,s1
    14d8:	c89ff0ef          	jal	1160 <_malloc_trim_r>
    14dc:	ea5ff06f          	j	1380 <_free_r+0xdc>
    14e0:	00d787b3          	add	a5,a5,a3
    14e4:	f55ff06f          	j	1438 <_free_r+0x194>
    14e8:	01400613          	li	a2,20
    14ec:	02d67063          	bgeu	a2,a3,150c <_free_r+0x268>
    14f0:	05400613          	li	a2,84
    14f4:	06d66463          	bltu	a2,a3,155c <_free_r+0x2b8>
    14f8:	00c7d693          	srl	a3,a5,0xc
    14fc:	06f68593          	add	a1,a3,111
    1500:	06e68613          	add	a2,a3,110
    1504:	00359593          	sll	a1,a1,0x3
    1508:	ecdff06f          	j	13d4 <_free_r+0x130>
    150c:	05c68593          	add	a1,a3,92
    1510:	05b68613          	add	a2,a3,91
    1514:	00359593          	sll	a1,a1,0x3
    1518:	ebdff06f          	j	13d4 <_free_r+0x130>
    151c:	00e52a23          	sw	a4,20(a0)
    1520:	00e52823          	sw	a4,16(a0)
    1524:	0017e693          	or	a3,a5,1
    1528:	01172623          	sw	a7,12(a4)
    152c:	01172423          	sw	a7,8(a4)
    1530:	00d72223          	sw	a3,4(a4)
    1534:	00f70733          	add	a4,a4,a5
    1538:	00f72023          	sw	a5,0(a4)
    153c:	e45ff06f          	j	1380 <_free_r+0xdc>
    1540:	00452803          	lw	a6,4(a0)
    1544:	40265613          	sra	a2,a2,0x2
    1548:	00100793          	li	a5,1
    154c:	00c797b3          	sll	a5,a5,a2
    1550:	0107e7b3          	or	a5,a5,a6
    1554:	00f52223          	sw	a5,4(a0)
    1558:	ea9ff06f          	j	1400 <_free_r+0x15c>
    155c:	15400613          	li	a2,340
    1560:	00d66c63          	bltu	a2,a3,1578 <_free_r+0x2d4>
    1564:	00f7d693          	srl	a3,a5,0xf
    1568:	07868593          	add	a1,a3,120
    156c:	07768613          	add	a2,a3,119
    1570:	00359593          	sll	a1,a1,0x3
    1574:	e61ff06f          	j	13d4 <_free_r+0x130>
    1578:	55400613          	li	a2,1364
    157c:	00d66c63          	bltu	a2,a3,1594 <_free_r+0x2f0>
    1580:	0127d693          	srl	a3,a5,0x12
    1584:	07d68593          	add	a1,a3,125
    1588:	07c68613          	add	a2,a3,124
    158c:	00359593          	sll	a1,a1,0x3
    1590:	e45ff06f          	j	13d4 <_free_r+0x130>
    1594:	3f800593          	li	a1,1016
    1598:	07e00613          	li	a2,126
    159c:	e39ff06f          	j	13d4 <_free_r+0x130>
    15a0:	0017e693          	or	a3,a5,1
    15a4:	00d72223          	sw	a3,4(a4)
    15a8:	00f62023          	sw	a5,0(a2)
    15ac:	dd5ff06f          	j	1380 <_free_r+0xdc>

000015b0 <_malloc_r>:
    15b0:	fd010113          	add	sp,sp,-48
    15b4:	03212023          	sw	s2,32(sp)
    15b8:	02112623          	sw	ra,44(sp)
    15bc:	02812423          	sw	s0,40(sp)
    15c0:	02912223          	sw	s1,36(sp)
    15c4:	01312e23          	sw	s3,28(sp)
    15c8:	00b58793          	add	a5,a1,11
    15cc:	01600713          	li	a4,22
    15d0:	00050913          	mv	s2,a0
    15d4:	08f76263          	bltu	a4,a5,1658 <_malloc_r+0xa8>
    15d8:	01000793          	li	a5,16
    15dc:	20b7e663          	bltu	a5,a1,17e8 <_malloc_r+0x238>
    15e0:	7b0000ef          	jal	1d90 <__malloc_lock>
    15e4:	01800793          	li	a5,24
    15e8:	00200593          	li	a1,2
    15ec:	01000493          	li	s1,16
    15f0:	7ffff997          	auipc	s3,0x7ffff
    15f4:	b3098993          	add	s3,s3,-1232 # 80000120 <__malloc_av_>
    15f8:	00f987b3          	add	a5,s3,a5
    15fc:	0047a403          	lw	s0,4(a5)
    1600:	ff878713          	add	a4,a5,-8
    1604:	36e40463          	beq	s0,a4,196c <_malloc_r+0x3bc>
    1608:	00442783          	lw	a5,4(s0)
    160c:	00c42683          	lw	a3,12(s0)
    1610:	00842603          	lw	a2,8(s0)
    1614:	ffc7f793          	and	a5,a5,-4
    1618:	00f407b3          	add	a5,s0,a5
    161c:	0047a703          	lw	a4,4(a5)
    1620:	00d62623          	sw	a3,12(a2)
    1624:	00c6a423          	sw	a2,8(a3)
    1628:	00176713          	or	a4,a4,1
    162c:	00090513          	mv	a0,s2
    1630:	00e7a223          	sw	a4,4(a5)
    1634:	768000ef          	jal	1d9c <__malloc_unlock>
    1638:	00840513          	add	a0,s0,8
    163c:	02c12083          	lw	ra,44(sp)
    1640:	02812403          	lw	s0,40(sp)
    1644:	02412483          	lw	s1,36(sp)
    1648:	02012903          	lw	s2,32(sp)
    164c:	01c12983          	lw	s3,28(sp)
    1650:	03010113          	add	sp,sp,48
    1654:	00008067          	ret
    1658:	ff87f493          	and	s1,a5,-8
    165c:	1807c663          	bltz	a5,17e8 <_malloc_r+0x238>
    1660:	18b4e463          	bltu	s1,a1,17e8 <_malloc_r+0x238>
    1664:	72c000ef          	jal	1d90 <__malloc_lock>
    1668:	1f700793          	li	a5,503
    166c:	4097fa63          	bgeu	a5,s1,1a80 <_malloc_r+0x4d0>
    1670:	0094d793          	srl	a5,s1,0x9
    1674:	18078263          	beqz	a5,17f8 <_malloc_r+0x248>
    1678:	00400713          	li	a4,4
    167c:	36f76063          	bltu	a4,a5,19dc <_malloc_r+0x42c>
    1680:	0064d793          	srl	a5,s1,0x6
    1684:	03978593          	add	a1,a5,57
    1688:	03878813          	add	a6,a5,56
    168c:	00359613          	sll	a2,a1,0x3
    1690:	7ffff997          	auipc	s3,0x7ffff
    1694:	a9098993          	add	s3,s3,-1392 # 80000120 <__malloc_av_>
    1698:	00c98633          	add	a2,s3,a2
    169c:	00462403          	lw	s0,4(a2)
    16a0:	ff860613          	add	a2,a2,-8
    16a4:	02860863          	beq	a2,s0,16d4 <_malloc_r+0x124>
    16a8:	00f00513          	li	a0,15
    16ac:	0140006f          	j	16c0 <_malloc_r+0x110>
    16b0:	00c42683          	lw	a3,12(s0)
    16b4:	2a075863          	bgez	a4,1964 <_malloc_r+0x3b4>
    16b8:	00d60e63          	beq	a2,a3,16d4 <_malloc_r+0x124>
    16bc:	00068413          	mv	s0,a3
    16c0:	00442783          	lw	a5,4(s0)
    16c4:	ffc7f793          	and	a5,a5,-4
    16c8:	40978733          	sub	a4,a5,s1
    16cc:	fee552e3          	bge	a0,a4,16b0 <_malloc_r+0x100>
    16d0:	00080593          	mv	a1,a6
    16d4:	0109a403          	lw	s0,16(s3)
    16d8:	7ffff897          	auipc	a7,0x7ffff
    16dc:	a5088893          	add	a7,a7,-1456 # 80000128 <__malloc_av_+0x8>
    16e0:	27140e63          	beq	s0,a7,195c <_malloc_r+0x3ac>
    16e4:	00442783          	lw	a5,4(s0)
    16e8:	00f00693          	li	a3,15
    16ec:	ffc7f793          	and	a5,a5,-4
    16f0:	40978733          	sub	a4,a5,s1
    16f4:	38e6cc63          	blt	a3,a4,1a8c <_malloc_r+0x4dc>
    16f8:	0119aa23          	sw	a7,20(s3)
    16fc:	0119a823          	sw	a7,16(s3)
    1700:	36075063          	bgez	a4,1a60 <_malloc_r+0x4b0>
    1704:	1ff00713          	li	a4,511
    1708:	0049a503          	lw	a0,4(s3)
    170c:	26f76863          	bltu	a4,a5,197c <_malloc_r+0x3cc>
    1710:	ff87f713          	and	a4,a5,-8
    1714:	00870713          	add	a4,a4,8
    1718:	00e98733          	add	a4,s3,a4
    171c:	00072683          	lw	a3,0(a4)
    1720:	0057d613          	srl	a2,a5,0x5
    1724:	00100793          	li	a5,1
    1728:	00c797b3          	sll	a5,a5,a2
    172c:	00f56533          	or	a0,a0,a5
    1730:	ff870793          	add	a5,a4,-8
    1734:	00f42623          	sw	a5,12(s0)
    1738:	00d42423          	sw	a3,8(s0)
    173c:	00a9a223          	sw	a0,4(s3)
    1740:	00872023          	sw	s0,0(a4)
    1744:	0086a623          	sw	s0,12(a3)
    1748:	4025d793          	sra	a5,a1,0x2
    174c:	00100613          	li	a2,1
    1750:	00f61633          	sll	a2,a2,a5
    1754:	0ac56a63          	bltu	a0,a2,1808 <_malloc_r+0x258>
    1758:	00a677b3          	and	a5,a2,a0
    175c:	02079463          	bnez	a5,1784 <_malloc_r+0x1d4>
    1760:	00161613          	sll	a2,a2,0x1
    1764:	ffc5f593          	and	a1,a1,-4
    1768:	00a677b3          	and	a5,a2,a0
    176c:	00458593          	add	a1,a1,4
    1770:	00079a63          	bnez	a5,1784 <_malloc_r+0x1d4>
    1774:	00161613          	sll	a2,a2,0x1
    1778:	00a677b3          	and	a5,a2,a0
    177c:	00458593          	add	a1,a1,4
    1780:	fe078ae3          	beqz	a5,1774 <_malloc_r+0x1c4>
    1784:	00f00813          	li	a6,15
    1788:	00359313          	sll	t1,a1,0x3
    178c:	00698333          	add	t1,s3,t1
    1790:	00030513          	mv	a0,t1
    1794:	00c52783          	lw	a5,12(a0)
    1798:	00058e13          	mv	t3,a1
    179c:	26f50263          	beq	a0,a5,1a00 <_malloc_r+0x450>
    17a0:	0047a703          	lw	a4,4(a5)
    17a4:	00078413          	mv	s0,a5
    17a8:	00c7a783          	lw	a5,12(a5)
    17ac:	ffc77713          	and	a4,a4,-4
    17b0:	409706b3          	sub	a3,a4,s1
    17b4:	26d84263          	blt	a6,a3,1a18 <_malloc_r+0x468>
    17b8:	fe06c2e3          	bltz	a3,179c <_malloc_r+0x1ec>
    17bc:	00e40733          	add	a4,s0,a4
    17c0:	00472683          	lw	a3,4(a4)
    17c4:	00842603          	lw	a2,8(s0)
    17c8:	00090513          	mv	a0,s2
    17cc:	0016e693          	or	a3,a3,1
    17d0:	00d72223          	sw	a3,4(a4)
    17d4:	00f62623          	sw	a5,12(a2)
    17d8:	00c7a423          	sw	a2,8(a5)
    17dc:	5c0000ef          	jal	1d9c <__malloc_unlock>
    17e0:	00840513          	add	a0,s0,8
    17e4:	e59ff06f          	j	163c <_malloc_r+0x8c>
    17e8:	00c00793          	li	a5,12
    17ec:	00f92023          	sw	a5,0(s2)
    17f0:	00000513          	li	a0,0
    17f4:	e49ff06f          	j	163c <_malloc_r+0x8c>
    17f8:	20000613          	li	a2,512
    17fc:	04000593          	li	a1,64
    1800:	03f00813          	li	a6,63
    1804:	e8dff06f          	j	1690 <_malloc_r+0xe0>
    1808:	0089a403          	lw	s0,8(s3)
    180c:	01612823          	sw	s6,16(sp)
    1810:	00442783          	lw	a5,4(s0)
    1814:	ffc7fb13          	and	s6,a5,-4
    1818:	009b6863          	bltu	s6,s1,1828 <_malloc_r+0x278>
    181c:	409b0733          	sub	a4,s6,s1
    1820:	00f00793          	li	a5,15
    1824:	0ee7ca63          	blt	a5,a4,1918 <_malloc_r+0x368>
    1828:	01912223          	sw	s9,4(sp)
    182c:	7ffffc97          	auipc	s9,0x7ffff
    1830:	ee0c8c93          	add	s9,s9,-288 # 8000070c <__malloc_sbrk_base>
    1834:	000ca703          	lw	a4,0(s9)
    1838:	01412c23          	sw	s4,24(sp)
    183c:	01512a23          	sw	s5,20(sp)
    1840:	01712623          	sw	s7,12(sp)
    1844:	7ffffa97          	auipc	s5,0x7ffff
    1848:	ee8aaa83          	lw	s5,-280(s5) # 8000072c <__malloc_top_pad>
    184c:	fff00793          	li	a5,-1
    1850:	01640a33          	add	s4,s0,s6
    1854:	01548ab3          	add	s5,s1,s5
    1858:	3ef70263          	beq	a4,a5,1c3c <_malloc_r+0x68c>
    185c:	000017b7          	lui	a5,0x1
    1860:	00f78793          	add	a5,a5,15 # 100f <memcpy+0xdf>
    1864:	00fa8ab3          	add	s5,s5,a5
    1868:	fffff7b7          	lui	a5,0xfffff
    186c:	00fafab3          	and	s5,s5,a5
    1870:	000a8593          	mv	a1,s5
    1874:	00090513          	mv	a0,s2
    1878:	254060ef          	jal	7acc <_sbrk_r>
    187c:	fff00793          	li	a5,-1
    1880:	00050b93          	mv	s7,a0
    1884:	46f50663          	beq	a0,a5,1cf0 <_malloc_r+0x740>
    1888:	01812423          	sw	s8,8(sp)
    188c:	25456863          	bltu	a0,s4,1adc <_malloc_r+0x52c>
    1890:	7ffffc17          	auipc	s8,0x7ffff
    1894:	ee4c0c13          	add	s8,s8,-284 # 80000774 <__malloc_current_mallinfo>
    1898:	000c2583          	lw	a1,0(s8)
    189c:	00ba85b3          	add	a1,s5,a1
    18a0:	00bc2023          	sw	a1,0(s8)
    18a4:	00058713          	mv	a4,a1
    18a8:	2caa1063          	bne	s4,a0,1b68 <_malloc_r+0x5b8>
    18ac:	01451793          	sll	a5,a0,0x14
    18b0:	2a079c63          	bnez	a5,1b68 <_malloc_r+0x5b8>
    18b4:	0089ab83          	lw	s7,8(s3)
    18b8:	015b07b3          	add	a5,s6,s5
    18bc:	0017e793          	or	a5,a5,1
    18c0:	00fba223          	sw	a5,4(s7)
    18c4:	7ffff717          	auipc	a4,0x7ffff
    18c8:	e6470713          	add	a4,a4,-412 # 80000728 <__malloc_max_sbrked_mem>
    18cc:	00072683          	lw	a3,0(a4)
    18d0:	00b6f463          	bgeu	a3,a1,18d8 <_malloc_r+0x328>
    18d4:	00b72023          	sw	a1,0(a4)
    18d8:	7ffff717          	auipc	a4,0x7ffff
    18dc:	e4c70713          	add	a4,a4,-436 # 80000724 <__malloc_max_total_mem>
    18e0:	00072683          	lw	a3,0(a4)
    18e4:	00b6f463          	bgeu	a3,a1,18ec <_malloc_r+0x33c>
    18e8:	00b72023          	sw	a1,0(a4)
    18ec:	00812c03          	lw	s8,8(sp)
    18f0:	000b8413          	mv	s0,s7
    18f4:	ffc7f793          	and	a5,a5,-4
    18f8:	40978733          	sub	a4,a5,s1
    18fc:	3897ec63          	bltu	a5,s1,1c94 <_malloc_r+0x6e4>
    1900:	00f00793          	li	a5,15
    1904:	38e7d863          	bge	a5,a4,1c94 <_malloc_r+0x6e4>
    1908:	01812a03          	lw	s4,24(sp)
    190c:	01412a83          	lw	s5,20(sp)
    1910:	00c12b83          	lw	s7,12(sp)
    1914:	00412c83          	lw	s9,4(sp)
    1918:	0014e793          	or	a5,s1,1
    191c:	00f42223          	sw	a5,4(s0)
    1920:	009404b3          	add	s1,s0,s1
    1924:	0099a423          	sw	s1,8(s3)
    1928:	00176713          	or	a4,a4,1
    192c:	00090513          	mv	a0,s2
    1930:	00e4a223          	sw	a4,4(s1)
    1934:	468000ef          	jal	1d9c <__malloc_unlock>
    1938:	02c12083          	lw	ra,44(sp)
    193c:	00840513          	add	a0,s0,8
    1940:	02812403          	lw	s0,40(sp)
    1944:	01012b03          	lw	s6,16(sp)
    1948:	02412483          	lw	s1,36(sp)
    194c:	02012903          	lw	s2,32(sp)
    1950:	01c12983          	lw	s3,28(sp)
    1954:	03010113          	add	sp,sp,48
    1958:	00008067          	ret
    195c:	0049a503          	lw	a0,4(s3)
    1960:	de9ff06f          	j	1748 <_malloc_r+0x198>
    1964:	00842603          	lw	a2,8(s0)
    1968:	cb1ff06f          	j	1618 <_malloc_r+0x68>
    196c:	00c7a403          	lw	s0,12(a5) # fffff00c <__crt0_ram_last+0x7ff7f00d>
    1970:	00258593          	add	a1,a1,2
    1974:	d68780e3          	beq	a5,s0,16d4 <_malloc_r+0x124>
    1978:	c91ff06f          	j	1608 <_malloc_r+0x58>
    197c:	0097d713          	srl	a4,a5,0x9
    1980:	00400693          	li	a3,4
    1984:	14e6f263          	bgeu	a3,a4,1ac8 <_malloc_r+0x518>
    1988:	01400693          	li	a3,20
    198c:	32e6e663          	bltu	a3,a4,1cb8 <_malloc_r+0x708>
    1990:	05c70613          	add	a2,a4,92
    1994:	05b70693          	add	a3,a4,91
    1998:	00361613          	sll	a2,a2,0x3
    199c:	00c98633          	add	a2,s3,a2
    19a0:	00062703          	lw	a4,0(a2)
    19a4:	ff860613          	add	a2,a2,-8
    19a8:	00e61863          	bne	a2,a4,19b8 <_malloc_r+0x408>
    19ac:	2980006f          	j	1c44 <_malloc_r+0x694>
    19b0:	00872703          	lw	a4,8(a4)
    19b4:	00e60863          	beq	a2,a4,19c4 <_malloc_r+0x414>
    19b8:	00472683          	lw	a3,4(a4)
    19bc:	ffc6f693          	and	a3,a3,-4
    19c0:	fed7e8e3          	bltu	a5,a3,19b0 <_malloc_r+0x400>
    19c4:	00c72603          	lw	a2,12(a4)
    19c8:	00c42623          	sw	a2,12(s0)
    19cc:	00e42423          	sw	a4,8(s0)
    19d0:	00862423          	sw	s0,8(a2)
    19d4:	00872623          	sw	s0,12(a4)
    19d8:	d71ff06f          	j	1748 <_malloc_r+0x198>
    19dc:	01400713          	li	a4,20
    19e0:	10f77863          	bgeu	a4,a5,1af0 <_malloc_r+0x540>
    19e4:	05400713          	li	a4,84
    19e8:	2ef76663          	bltu	a4,a5,1cd4 <_malloc_r+0x724>
    19ec:	00c4d793          	srl	a5,s1,0xc
    19f0:	06f78593          	add	a1,a5,111
    19f4:	06e78813          	add	a6,a5,110
    19f8:	00359613          	sll	a2,a1,0x3
    19fc:	c95ff06f          	j	1690 <_malloc_r+0xe0>
    1a00:	001e0e13          	add	t3,t3,1
    1a04:	003e7793          	and	a5,t3,3
    1a08:	00850513          	add	a0,a0,8
    1a0c:	10078063          	beqz	a5,1b0c <_malloc_r+0x55c>
    1a10:	00c52783          	lw	a5,12(a0)
    1a14:	d89ff06f          	j	179c <_malloc_r+0x1ec>
    1a18:	00842603          	lw	a2,8(s0)
    1a1c:	0014e593          	or	a1,s1,1
    1a20:	00b42223          	sw	a1,4(s0)
    1a24:	00f62623          	sw	a5,12(a2)
    1a28:	00c7a423          	sw	a2,8(a5)
    1a2c:	009404b3          	add	s1,s0,s1
    1a30:	0099aa23          	sw	s1,20(s3)
    1a34:	0099a823          	sw	s1,16(s3)
    1a38:	0016e793          	or	a5,a3,1
    1a3c:	0114a623          	sw	a7,12(s1)
    1a40:	0114a423          	sw	a7,8(s1)
    1a44:	00f4a223          	sw	a5,4(s1)
    1a48:	00e40733          	add	a4,s0,a4
    1a4c:	00090513          	mv	a0,s2
    1a50:	00d72023          	sw	a3,0(a4)
    1a54:	348000ef          	jal	1d9c <__malloc_unlock>
    1a58:	00840513          	add	a0,s0,8
    1a5c:	be1ff06f          	j	163c <_malloc_r+0x8c>
    1a60:	00f407b3          	add	a5,s0,a5
    1a64:	0047a703          	lw	a4,4(a5)
    1a68:	00090513          	mv	a0,s2
    1a6c:	00176713          	or	a4,a4,1
    1a70:	00e7a223          	sw	a4,4(a5)
    1a74:	328000ef          	jal	1d9c <__malloc_unlock>
    1a78:	00840513          	add	a0,s0,8
    1a7c:	bc1ff06f          	j	163c <_malloc_r+0x8c>
    1a80:	0034d593          	srl	a1,s1,0x3
    1a84:	00848793          	add	a5,s1,8
    1a88:	b69ff06f          	j	15f0 <_malloc_r+0x40>
    1a8c:	0014e693          	or	a3,s1,1
    1a90:	00d42223          	sw	a3,4(s0)
    1a94:	009404b3          	add	s1,s0,s1
    1a98:	0099aa23          	sw	s1,20(s3)
    1a9c:	0099a823          	sw	s1,16(s3)
    1aa0:	00176693          	or	a3,a4,1
    1aa4:	0114a623          	sw	a7,12(s1)
    1aa8:	0114a423          	sw	a7,8(s1)
    1aac:	00d4a223          	sw	a3,4(s1)
    1ab0:	00f407b3          	add	a5,s0,a5
    1ab4:	00090513          	mv	a0,s2
    1ab8:	00e7a023          	sw	a4,0(a5)
    1abc:	2e0000ef          	jal	1d9c <__malloc_unlock>
    1ac0:	00840513          	add	a0,s0,8
    1ac4:	b79ff06f          	j	163c <_malloc_r+0x8c>
    1ac8:	0067d713          	srl	a4,a5,0x6
    1acc:	03970613          	add	a2,a4,57
    1ad0:	03870693          	add	a3,a4,56
    1ad4:	00361613          	sll	a2,a2,0x3
    1ad8:	ec5ff06f          	j	199c <_malloc_r+0x3ec>
    1adc:	07340c63          	beq	s0,s3,1b54 <_malloc_r+0x5a4>
    1ae0:	0089a403          	lw	s0,8(s3)
    1ae4:	00812c03          	lw	s8,8(sp)
    1ae8:	00442783          	lw	a5,4(s0)
    1aec:	e09ff06f          	j	18f4 <_malloc_r+0x344>
    1af0:	05c78593          	add	a1,a5,92
    1af4:	05b78813          	add	a6,a5,91
    1af8:	00359613          	sll	a2,a1,0x3
    1afc:	b95ff06f          	j	1690 <_malloc_r+0xe0>
    1b00:	00832783          	lw	a5,8(t1)
    1b04:	fff58593          	add	a1,a1,-1
    1b08:	28679063          	bne	a5,t1,1d88 <_malloc_r+0x7d8>
    1b0c:	0035f793          	and	a5,a1,3
    1b10:	ff830313          	add	t1,t1,-8
    1b14:	fe0796e3          	bnez	a5,1b00 <_malloc_r+0x550>
    1b18:	0049a703          	lw	a4,4(s3)
    1b1c:	fff64793          	not	a5,a2
    1b20:	00e7f7b3          	and	a5,a5,a4
    1b24:	00f9a223          	sw	a5,4(s3)
    1b28:	00161613          	sll	a2,a2,0x1
    1b2c:	ccc7eee3          	bltu	a5,a2,1808 <_malloc_r+0x258>
    1b30:	cc060ce3          	beqz	a2,1808 <_malloc_r+0x258>
    1b34:	00f67733          	and	a4,a2,a5
    1b38:	00071a63          	bnez	a4,1b4c <_malloc_r+0x59c>
    1b3c:	00161613          	sll	a2,a2,0x1
    1b40:	00f67733          	and	a4,a2,a5
    1b44:	004e0e13          	add	t3,t3,4
    1b48:	fe070ae3          	beqz	a4,1b3c <_malloc_r+0x58c>
    1b4c:	000e0593          	mv	a1,t3
    1b50:	c39ff06f          	j	1788 <_malloc_r+0x1d8>
    1b54:	7ffffc17          	auipc	s8,0x7ffff
    1b58:	c20c0c13          	add	s8,s8,-992 # 80000774 <__malloc_current_mallinfo>
    1b5c:	000c2703          	lw	a4,0(s8)
    1b60:	00ea8733          	add	a4,s5,a4
    1b64:	00ec2023          	sw	a4,0(s8)
    1b68:	000ca683          	lw	a3,0(s9)
    1b6c:	fff00793          	li	a5,-1
    1b70:	18f68663          	beq	a3,a5,1cfc <_malloc_r+0x74c>
    1b74:	414b87b3          	sub	a5,s7,s4
    1b78:	00e787b3          	add	a5,a5,a4
    1b7c:	00fc2023          	sw	a5,0(s8)
    1b80:	007bfc93          	and	s9,s7,7
    1b84:	0c0c8c63          	beqz	s9,1c5c <_malloc_r+0x6ac>
    1b88:	419b8bb3          	sub	s7,s7,s9
    1b8c:	000017b7          	lui	a5,0x1
    1b90:	00878793          	add	a5,a5,8 # 1008 <memcpy+0xd8>
    1b94:	008b8b93          	add	s7,s7,8
    1b98:	419785b3          	sub	a1,a5,s9
    1b9c:	015b8ab3          	add	s5,s7,s5
    1ba0:	415585b3          	sub	a1,a1,s5
    1ba4:	01459593          	sll	a1,a1,0x14
    1ba8:	0145da13          	srl	s4,a1,0x14
    1bac:	000a0593          	mv	a1,s4
    1bb0:	00090513          	mv	a0,s2
    1bb4:	719050ef          	jal	7acc <_sbrk_r>
    1bb8:	fff00793          	li	a5,-1
    1bbc:	18f50063          	beq	a0,a5,1d3c <_malloc_r+0x78c>
    1bc0:	41750533          	sub	a0,a0,s7
    1bc4:	01450ab3          	add	s5,a0,s4
    1bc8:	000c2703          	lw	a4,0(s8)
    1bcc:	0179a423          	sw	s7,8(s3)
    1bd0:	001ae793          	or	a5,s5,1
    1bd4:	00ea05b3          	add	a1,s4,a4
    1bd8:	00bc2023          	sw	a1,0(s8)
    1bdc:	00fba223          	sw	a5,4(s7)
    1be0:	cf3402e3          	beq	s0,s3,18c4 <_malloc_r+0x314>
    1be4:	00f00693          	li	a3,15
    1be8:	0b66f063          	bgeu	a3,s6,1c88 <_malloc_r+0x6d8>
    1bec:	00442703          	lw	a4,4(s0)
    1bf0:	ff4b0793          	add	a5,s6,-12
    1bf4:	ff87f793          	and	a5,a5,-8
    1bf8:	00177713          	and	a4,a4,1
    1bfc:	00f76733          	or	a4,a4,a5
    1c00:	00e42223          	sw	a4,4(s0)
    1c04:	00500613          	li	a2,5
    1c08:	00f40733          	add	a4,s0,a5
    1c0c:	00c72223          	sw	a2,4(a4)
    1c10:	00c72423          	sw	a2,8(a4)
    1c14:	00f6e663          	bltu	a3,a5,1c20 <_malloc_r+0x670>
    1c18:	004ba783          	lw	a5,4(s7)
    1c1c:	ca9ff06f          	j	18c4 <_malloc_r+0x314>
    1c20:	00840593          	add	a1,s0,8
    1c24:	00090513          	mv	a0,s2
    1c28:	e7cff0ef          	jal	12a4 <_free_r>
    1c2c:	0089ab83          	lw	s7,8(s3)
    1c30:	000c2583          	lw	a1,0(s8)
    1c34:	004ba783          	lw	a5,4(s7)
    1c38:	c8dff06f          	j	18c4 <_malloc_r+0x314>
    1c3c:	010a8a93          	add	s5,s5,16
    1c40:	c31ff06f          	j	1870 <_malloc_r+0x2c0>
    1c44:	4026d693          	sra	a3,a3,0x2
    1c48:	00100793          	li	a5,1
    1c4c:	00d797b3          	sll	a5,a5,a3
    1c50:	00f56533          	or	a0,a0,a5
    1c54:	00a9a223          	sw	a0,4(s3)
    1c58:	d71ff06f          	j	19c8 <_malloc_r+0x418>
    1c5c:	015b85b3          	add	a1,s7,s5
    1c60:	40b005b3          	neg	a1,a1
    1c64:	01459593          	sll	a1,a1,0x14
    1c68:	0145da13          	srl	s4,a1,0x14
    1c6c:	000a0593          	mv	a1,s4
    1c70:	00090513          	mv	a0,s2
    1c74:	659050ef          	jal	7acc <_sbrk_r>
    1c78:	fff00793          	li	a5,-1
    1c7c:	f4f512e3          	bne	a0,a5,1bc0 <_malloc_r+0x610>
    1c80:	00000a13          	li	s4,0
    1c84:	f45ff06f          	j	1bc8 <_malloc_r+0x618>
    1c88:	00812c03          	lw	s8,8(sp)
    1c8c:	00100793          	li	a5,1
    1c90:	00fba223          	sw	a5,4(s7)
    1c94:	00090513          	mv	a0,s2
    1c98:	104000ef          	jal	1d9c <__malloc_unlock>
    1c9c:	00000513          	li	a0,0
    1ca0:	01812a03          	lw	s4,24(sp)
    1ca4:	01412a83          	lw	s5,20(sp)
    1ca8:	01012b03          	lw	s6,16(sp)
    1cac:	00c12b83          	lw	s7,12(sp)
    1cb0:	00412c83          	lw	s9,4(sp)
    1cb4:	989ff06f          	j	163c <_malloc_r+0x8c>
    1cb8:	05400693          	li	a3,84
    1cbc:	04e6e463          	bltu	a3,a4,1d04 <_malloc_r+0x754>
    1cc0:	00c7d713          	srl	a4,a5,0xc
    1cc4:	06f70613          	add	a2,a4,111
    1cc8:	06e70693          	add	a3,a4,110
    1ccc:	00361613          	sll	a2,a2,0x3
    1cd0:	ccdff06f          	j	199c <_malloc_r+0x3ec>
    1cd4:	15400713          	li	a4,340
    1cd8:	04f76463          	bltu	a4,a5,1d20 <_malloc_r+0x770>
    1cdc:	00f4d793          	srl	a5,s1,0xf
    1ce0:	07878593          	add	a1,a5,120
    1ce4:	07778813          	add	a6,a5,119
    1ce8:	00359613          	sll	a2,a1,0x3
    1cec:	9a5ff06f          	j	1690 <_malloc_r+0xe0>
    1cf0:	0089a403          	lw	s0,8(s3)
    1cf4:	00442783          	lw	a5,4(s0)
    1cf8:	bfdff06f          	j	18f4 <_malloc_r+0x344>
    1cfc:	017ca023          	sw	s7,0(s9)
    1d00:	e81ff06f          	j	1b80 <_malloc_r+0x5d0>
    1d04:	15400693          	li	a3,340
    1d08:	04e6e463          	bltu	a3,a4,1d50 <_malloc_r+0x7a0>
    1d0c:	00f7d713          	srl	a4,a5,0xf
    1d10:	07870613          	add	a2,a4,120
    1d14:	07770693          	add	a3,a4,119
    1d18:	00361613          	sll	a2,a2,0x3
    1d1c:	c81ff06f          	j	199c <_malloc_r+0x3ec>
    1d20:	55400713          	li	a4,1364
    1d24:	04f76463          	bltu	a4,a5,1d6c <_malloc_r+0x7bc>
    1d28:	0124d793          	srl	a5,s1,0x12
    1d2c:	07d78593          	add	a1,a5,125
    1d30:	07c78813          	add	a6,a5,124
    1d34:	00359613          	sll	a2,a1,0x3
    1d38:	959ff06f          	j	1690 <_malloc_r+0xe0>
    1d3c:	ff8c8c93          	add	s9,s9,-8
    1d40:	019a8ab3          	add	s5,s5,s9
    1d44:	417a8ab3          	sub	s5,s5,s7
    1d48:	00000a13          	li	s4,0
    1d4c:	e7dff06f          	j	1bc8 <_malloc_r+0x618>
    1d50:	55400693          	li	a3,1364
    1d54:	02e6e463          	bltu	a3,a4,1d7c <_malloc_r+0x7cc>
    1d58:	0127d713          	srl	a4,a5,0x12
    1d5c:	07d70613          	add	a2,a4,125
    1d60:	07c70693          	add	a3,a4,124
    1d64:	00361613          	sll	a2,a2,0x3
    1d68:	c35ff06f          	j	199c <_malloc_r+0x3ec>
    1d6c:	3f800613          	li	a2,1016
    1d70:	07f00593          	li	a1,127
    1d74:	07e00813          	li	a6,126
    1d78:	919ff06f          	j	1690 <_malloc_r+0xe0>
    1d7c:	3f800613          	li	a2,1016
    1d80:	07e00693          	li	a3,126
    1d84:	c19ff06f          	j	199c <_malloc_r+0x3ec>
    1d88:	0049a783          	lw	a5,4(s3)
    1d8c:	d9dff06f          	j	1b28 <_malloc_r+0x578>

00001d90 <__malloc_lock>:
    1d90:	7ffff517          	auipc	a0,0x7ffff
    1d94:	98c50513          	add	a0,a0,-1652 # 8000071c <__lock___malloc_recursive_mutex>
    1d98:	8b4ff06f          	j	e4c <__retarget_lock_acquire_recursive>

00001d9c <__malloc_unlock>:
    1d9c:	7ffff517          	auipc	a0,0x7ffff
    1da0:	98050513          	add	a0,a0,-1664 # 8000071c <__lock___malloc_recursive_mutex>
    1da4:	8acff06f          	j	e50 <__retarget_lock_release_recursive>

00001da8 <_vfprintf_r>:
    1da8:	e7010113          	add	sp,sp,-400
    1dac:	18112623          	sw	ra,396(sp)
    1db0:	00b12423          	sw	a1,8(sp)
    1db4:	00c12623          	sw	a2,12(sp)
    1db8:	00d12a23          	sw	a3,20(sp)
    1dbc:	17312e23          	sw	s3,380(sp)
    1dc0:	18812423          	sw	s0,392(sp)
    1dc4:	00050993          	mv	s3,a0
    1dc8:	3d9050ef          	jal	79a0 <_localeconv_r>
    1dcc:	00052783          	lw	a5,0(a0)
    1dd0:	00078513          	mv	a0,a5
    1dd4:	02f12a23          	sw	a5,52(sp)
    1dd8:	afcff0ef          	jal	10d4 <strlen>
    1ddc:	00050713          	mv	a4,a0
    1de0:	00800613          	li	a2,8
    1de4:	00000593          	li	a1,0
    1de8:	09010513          	add	a0,sp,144
    1dec:	02e12823          	sw	a4,48(sp)
    1df0:	864ff0ef          	jal	e54 <memset>
    1df4:	00c12783          	lw	a5,12(sp)
    1df8:	00098863          	beqz	s3,1e08 <_vfprintf_r+0x60>
    1dfc:	0349a703          	lw	a4,52(s3)
    1e00:	00071463          	bnez	a4,1e08 <_vfprintf_r+0x60>
    1e04:	29d0106f          	j	38a0 <_vfprintf_r+0x1af8>
    1e08:	00812703          	lw	a4,8(sp)
    1e0c:	06472683          	lw	a3,100(a4)
    1e10:	00c71703          	lh	a4,12(a4)
    1e14:	0016f693          	and	a3,a3,1
    1e18:	00069863          	bnez	a3,1e28 <_vfprintf_r+0x80>
    1e1c:	20077693          	and	a3,a4,512
    1e20:	00069463          	bnez	a3,1e28 <_vfprintf_r+0x80>
    1e24:	3ec0106f          	j	3210 <_vfprintf_r+0x1468>
    1e28:	01271693          	sll	a3,a4,0x12
    1e2c:	0206c863          	bltz	a3,1e5c <_vfprintf_r+0xb4>
    1e30:	00812503          	lw	a0,8(sp)
    1e34:	000025b7          	lui	a1,0x2
    1e38:	ffffe637          	lui	a2,0xffffe
    1e3c:	06452683          	lw	a3,100(a0)
    1e40:	00b76733          	or	a4,a4,a1
    1e44:	fff60613          	add	a2,a2,-1 # ffffdfff <__crt0_ram_last+0x7ff7e000>
    1e48:	01071713          	sll	a4,a4,0x10
    1e4c:	41075713          	sra	a4,a4,0x10
    1e50:	00c6f6b3          	and	a3,a3,a2
    1e54:	00e51623          	sh	a4,12(a0)
    1e58:	06d52223          	sw	a3,100(a0)
    1e5c:	00877693          	and	a3,a4,8
    1e60:	2a068063          	beqz	a3,2100 <_vfprintf_r+0x358>
    1e64:	00812683          	lw	a3,8(sp)
    1e68:	0106a683          	lw	a3,16(a3)
    1e6c:	28068a63          	beqz	a3,2100 <_vfprintf_r+0x358>
    1e70:	01a77693          	and	a3,a4,26
    1e74:	00a00613          	li	a2,10
    1e78:	2ac68c63          	beq	a3,a2,2130 <_vfprintf_r+0x388>
    1e7c:	0ac10713          	add	a4,sp,172
    1e80:	17512a23          	sw	s5,372(sp)
    1e84:	17812423          	sw	s8,360(sp)
    1e88:	15b12e23          	sw	s11,348(sp)
    1e8c:	18912223          	sw	s1,388(sp)
    1e90:	19212023          	sw	s2,384(sp)
    1e94:	17412c23          	sw	s4,376(sp)
    1e98:	17612823          	sw	s6,368(sp)
    1e9c:	17712623          	sw	s7,364(sp)
    1ea0:	17912223          	sw	s9,356(sp)
    1ea4:	17a12023          	sw	s10,352(sp)
    1ea8:	0ae12023          	sw	a4,160(sp)
    1eac:	0a012423          	sw	zero,168(sp)
    1eb0:	0a012223          	sw	zero,164(sp)
    1eb4:	00012c23          	sw	zero,24(sp)
    1eb8:	02012423          	sw	zero,40(sp)
    1ebc:	02012623          	sw	zero,44(sp)
    1ec0:	00070413          	mv	s0,a4
    1ec4:	02012c23          	sw	zero,56(sp)
    1ec8:	04012023          	sw	zero,64(sp)
    1ecc:	02012e23          	sw	zero,60(sp)
    1ed0:	04012623          	sw	zero,76(sp)
    1ed4:	04012423          	sw	zero,72(sp)
    1ed8:	00012623          	sw	zero,12(sp)
    1edc:	7fffea97          	auipc	s5,0x7fffe
    1ee0:	658a8a93          	add	s5,s5,1624 # 80000534 <__global_locale>
    1ee4:	02500d93          	li	s11,37
    1ee8:	00078c13          	mv	s8,a5
    1eec:	000c0913          	mv	s2,s8
    1ef0:	0e4aa483          	lw	s1,228(s5)
    1ef4:	2a1050ef          	jal	7994 <__locale_mb_cur_max>
    1ef8:	00050693          	mv	a3,a0
    1efc:	09010713          	add	a4,sp,144
    1f00:	00090613          	mv	a2,s2
    1f04:	08010593          	add	a1,sp,128
    1f08:	00098513          	mv	a0,s3
    1f0c:	000480e7          	jalr	s1
    1f10:	2c050a63          	beqz	a0,21e4 <_vfprintf_r+0x43c>
    1f14:	2a054a63          	bltz	a0,21c8 <_vfprintf_r+0x420>
    1f18:	08012783          	lw	a5,128(sp)
    1f1c:	01b78663          	beq	a5,s11,1f28 <_vfprintf_r+0x180>
    1f20:	00a90933          	add	s2,s2,a0
    1f24:	fcdff06f          	j	1ef0 <_vfprintf_r+0x148>
    1f28:	00050493          	mv	s1,a0
    1f2c:	41890cb3          	sub	s9,s2,s8
    1f30:	2d891063          	bne	s2,s8,21f0 <_vfprintf_r+0x448>
    1f34:	fff00313          	li	t1,-1
    1f38:	00000e93          	li	t4,0
    1f3c:	00194e03          	lbu	t3,1(s2)
    1f40:	06010ba3          	sb	zero,119(sp)
    1f44:	00190913          	add	s2,s2,1
    1f48:	00000b93          	li	s7,0
    1f4c:	05a00493          	li	s1,90
    1f50:	000e8a13          	mv	s4,t4
    1f54:	00030b13          	mv	s6,t1
    1f58:	00190913          	add	s2,s2,1
    1f5c:	fe0e0793          	add	a5,t3,-32
    1f60:	04f4ea63          	bltu	s1,a5,1fb4 <_vfprintf_r+0x20c>
    1f64:	0000d717          	auipc	a4,0xd
    1f68:	31c70713          	add	a4,a4,796 # f280 <_ctype_+0x104>
    1f6c:	00279793          	sll	a5,a5,0x2
    1f70:	00e787b3          	add	a5,a5,a4
    1f74:	0007a783          	lw	a5,0(a5)
    1f78:	00e787b3          	add	a5,a5,a4
    1f7c:	00078067          	jr	a5
    1f80:	00000b93          	li	s7,0
    1f84:	fd0e0713          	add	a4,t3,-48
    1f88:	00900693          	li	a3,9
    1f8c:	00094e03          	lbu	t3,0(s2)
    1f90:	002b9793          	sll	a5,s7,0x2
    1f94:	017787b3          	add	a5,a5,s7
    1f98:	00179793          	sll	a5,a5,0x1
    1f9c:	00f70bb3          	add	s7,a4,a5
    1fa0:	fd0e0713          	add	a4,t3,-48
    1fa4:	00190913          	add	s2,s2,1
    1fa8:	fee6f2e3          	bgeu	a3,a4,1f8c <_vfprintf_r+0x1e4>
    1fac:	fe0e0793          	add	a5,t3,-32
    1fb0:	faf4fae3          	bgeu	s1,a5,1f64 <_vfprintf_r+0x1bc>
    1fb4:	000a0e93          	mv	t4,s4
    1fb8:	260e0a63          	beqz	t3,222c <_vfprintf_r+0x484>
    1fbc:	0fc10623          	sb	t3,236(sp)
    1fc0:	06010ba3          	sb	zero,119(sp)
    1fc4:	00100c93          	li	s9,1
    1fc8:	00000613          	li	a2,0
    1fcc:	00012823          	sw	zero,16(sp)
    1fd0:	00100d13          	li	s10,1
    1fd4:	00000313          	li	t1,0
    1fd8:	02012223          	sw	zero,36(sp)
    1fdc:	02012023          	sw	zero,32(sp)
    1fe0:	00000a13          	li	s4,0
    1fe4:	0ec10c13          	add	s8,sp,236
    1fe8:	002ef293          	and	t0,t4,2
    1fec:	00028463          	beqz	t0,1ff4 <_vfprintf_r+0x24c>
    1ff0:	002c8c93          	add	s9,s9,2
    1ff4:	084eff93          	and	t6,t4,132
    1ff8:	0a812483          	lw	s1,168(sp)
    1ffc:	000f9663          	bnez	t6,2008 <_vfprintf_r+0x260>
    2000:	419b8733          	sub	a4,s7,s9
    2004:	40e04663          	bgtz	a4,2410 <_vfprintf_r+0x668>
    2008:	02060a63          	beqz	a2,203c <_vfprintf_r+0x294>
    200c:	0a412703          	lw	a4,164(sp)
    2010:	07710613          	add	a2,sp,119
    2014:	00148493          	add	s1,s1,1
    2018:	00170713          	add	a4,a4,1
    201c:	00100793          	li	a5,1
    2020:	00c42023          	sw	a2,0(s0)
    2024:	00f42223          	sw	a5,4(s0)
    2028:	0a912423          	sw	s1,168(sp)
    202c:	0ae12223          	sw	a4,164(sp)
    2030:	00700613          	li	a2,7
    2034:	00840413          	add	s0,s0,8
    2038:	4ce64863          	blt	a2,a4,2508 <_vfprintf_r+0x760>
    203c:	02028a63          	beqz	t0,2070 <_vfprintf_r+0x2c8>
    2040:	0a412703          	lw	a4,164(sp)
    2044:	07810613          	add	a2,sp,120
    2048:	00c42023          	sw	a2,0(s0)
    204c:	00248493          	add	s1,s1,2
    2050:	00200613          	li	a2,2
    2054:	00170713          	add	a4,a4,1
    2058:	00c42223          	sw	a2,4(s0)
    205c:	0a912423          	sw	s1,168(sp)
    2060:	0ae12223          	sw	a4,164(sp)
    2064:	00700613          	li	a2,7
    2068:	00840413          	add	s0,s0,8
    206c:	5ce644e3          	blt	a2,a4,2e34 <_vfprintf_r+0x108c>
    2070:	08000713          	li	a4,128
    2074:	3aef80e3          	beq	t6,a4,2c14 <_vfprintf_r+0xe6c>
    2078:	41a30b33          	sub	s6,t1,s10
    207c:	4b604ae3          	bgtz	s6,2d30 <_vfprintf_r+0xf88>
    2080:	100ef713          	and	a4,t4,256
    2084:	1a0710e3          	bnez	a4,2a24 <_vfprintf_r+0xc7c>
    2088:	0a412783          	lw	a5,164(sp)
    208c:	01a484b3          	add	s1,s1,s10
    2090:	01842023          	sw	s8,0(s0)
    2094:	00178793          	add	a5,a5,1
    2098:	01a42223          	sw	s10,4(s0)
    209c:	0a912423          	sw	s1,168(sp)
    20a0:	0af12223          	sw	a5,164(sp)
    20a4:	00700713          	li	a4,7
    20a8:	58f74c63          	blt	a4,a5,2640 <_vfprintf_r+0x898>
    20ac:	00840413          	add	s0,s0,8
    20b0:	004eff13          	and	t5,t4,4
    20b4:	000f0663          	beqz	t5,20c0 <_vfprintf_r+0x318>
    20b8:	419b8d33          	sub	s10,s7,s9
    20bc:	5ba04ce3          	bgtz	s10,2e74 <_vfprintf_r+0x10cc>
    20c0:	000b8e93          	mv	t4,s7
    20c4:	019bd463          	bge	s7,s9,20cc <_vfprintf_r+0x324>
    20c8:	000c8e93          	mv	t4,s9
    20cc:	00c12783          	lw	a5,12(sp)
    20d0:	01d787b3          	add	a5,a5,t4
    20d4:	00f12623          	sw	a5,12(sp)
    20d8:	18049663          	bnez	s1,2264 <_vfprintf_r+0x4bc>
    20dc:	01012783          	lw	a5,16(sp)
    20e0:	0a012223          	sw	zero,164(sp)
    20e4:	00078863          	beqz	a5,20f4 <_vfprintf_r+0x34c>
    20e8:	01012583          	lw	a1,16(sp)
    20ec:	00098513          	mv	a0,s3
    20f0:	9b4ff0ef          	jal	12a4 <_free_r>
    20f4:	0ac10413          	add	s0,sp,172
    20f8:	00090c13          	mv	s8,s2
    20fc:	df1ff06f          	j	1eec <_vfprintf_r+0x144>
    2100:	00812403          	lw	s0,8(sp)
    2104:	00098513          	mv	a0,s3
    2108:	00f12623          	sw	a5,12(sp)
    210c:	00040593          	mv	a1,s0
    2110:	3a4050ef          	jal	74b4 <__swsetup_r>
    2114:	00050463          	beqz	a0,211c <_vfprintf_r+0x374>
    2118:	5600206f          	j	4678 <_vfprintf_r+0x28d0>
    211c:	00c41703          	lh	a4,12(s0)
    2120:	00a00613          	li	a2,10
    2124:	00c12783          	lw	a5,12(sp)
    2128:	01a77693          	and	a3,a4,26
    212c:	d4c698e3          	bne	a3,a2,1e7c <_vfprintf_r+0xd4>
    2130:	00812603          	lw	a2,8(sp)
    2134:	00e61683          	lh	a3,14(a2)
    2138:	d406c2e3          	bltz	a3,1e7c <_vfprintf_r+0xd4>
    213c:	06462683          	lw	a3,100(a2)
    2140:	0016f693          	and	a3,a3,1
    2144:	00069863          	bnez	a3,2154 <_vfprintf_r+0x3ac>
    2148:	20077713          	and	a4,a4,512
    214c:	00071463          	bnez	a4,2154 <_vfprintf_r+0x3ac>
    2150:	53d0106f          	j	3e8c <_vfprintf_r+0x20e4>
    2154:	01412683          	lw	a3,20(sp)
    2158:	00812583          	lw	a1,8(sp)
    215c:	00098513          	mv	a0,s3
    2160:	00078613          	mv	a2,a5
    2164:	0e5020ef          	jal	4a48 <__sbprintf>
    2168:	18c12083          	lw	ra,396(sp)
    216c:	18812403          	lw	s0,392(sp)
    2170:	00a12623          	sw	a0,12(sp)
    2174:	00c12503          	lw	a0,12(sp)
    2178:	17c12983          	lw	s3,380(sp)
    217c:	19010113          	add	sp,sp,400
    2180:	00008067          	ret
    2184:	00098513          	mv	a0,s3
    2188:	019050ef          	jal	79a0 <_localeconv_r>
    218c:	00452783          	lw	a5,4(a0)
    2190:	00078513          	mv	a0,a5
    2194:	04f12423          	sw	a5,72(sp)
    2198:	f3dfe0ef          	jal	10d4 <strlen>
    219c:	00050793          	mv	a5,a0
    21a0:	00098513          	mv	a0,s3
    21a4:	00078c93          	mv	s9,a5
    21a8:	04f12623          	sw	a5,76(sp)
    21ac:	7f4050ef          	jal	79a0 <_localeconv_r>
    21b0:	00852703          	lw	a4,8(a0)
    21b4:	02e12e23          	sw	a4,60(sp)
    21b8:	000c8463          	beqz	s9,21c0 <_vfprintf_r+0x418>
    21bc:	1ec0106f          	j	33a8 <_vfprintf_r+0x1600>
    21c0:	00094e03          	lbu	t3,0(s2)
    21c4:	d95ff06f          	j	1f58 <_vfprintf_r+0x1b0>
    21c8:	00800613          	li	a2,8
    21cc:	00000593          	li	a1,0
    21d0:	09010513          	add	a0,sp,144
    21d4:	c81fe0ef          	jal	e54 <memset>
    21d8:	00100513          	li	a0,1
    21dc:	00a90933          	add	s2,s2,a0
    21e0:	d11ff06f          	j	1ef0 <_vfprintf_r+0x148>
    21e4:	00050493          	mv	s1,a0
    21e8:	41890cb3          	sub	s9,s2,s8
    21ec:	05890063          	beq	s2,s8,222c <_vfprintf_r+0x484>
    21f0:	0a812683          	lw	a3,168(sp)
    21f4:	0a412703          	lw	a4,164(sp)
    21f8:	01842023          	sw	s8,0(s0)
    21fc:	019686b3          	add	a3,a3,s9
    2200:	00170713          	add	a4,a4,1
    2204:	01942223          	sw	s9,4(s0)
    2208:	0ad12423          	sw	a3,168(sp)
    220c:	0ae12223          	sw	a4,164(sp)
    2210:	00700693          	li	a3,7
    2214:	00840413          	add	s0,s0,8
    2218:	02e6c863          	blt	a3,a4,2248 <_vfprintf_r+0x4a0>
    221c:	00c12783          	lw	a5,12(sp)
    2220:	019787b3          	add	a5,a5,s9
    2224:	00f12623          	sw	a5,12(sp)
    2228:	d00496e3          	bnez	s1,1f34 <_vfprintf_r+0x18c>
    222c:	0a812783          	lw	a5,168(sp)
    2230:	00078463          	beqz	a5,2238 <_vfprintf_r+0x490>
    2234:	4090106f          	j	3e3c <_vfprintf_r+0x2094>
    2238:	00812783          	lw	a5,8(sp)
    223c:	0a012223          	sw	zero,164(sp)
    2240:	00c79783          	lh	a5,12(a5)
    2244:	0500006f          	j	2294 <_vfprintf_r+0x4ec>
    2248:	00812583          	lw	a1,8(sp)
    224c:	0a010613          	add	a2,sp,160
    2250:	00098513          	mv	a0,s3
    2254:	211020ef          	jal	4c64 <__sprint_r>
    2258:	02051a63          	bnez	a0,228c <_vfprintf_r+0x4e4>
    225c:	0ac10413          	add	s0,sp,172
    2260:	fbdff06f          	j	221c <_vfprintf_r+0x474>
    2264:	00812583          	lw	a1,8(sp)
    2268:	0a010613          	add	a2,sp,160
    226c:	00098513          	mv	a0,s3
    2270:	1f5020ef          	jal	4c64 <__sprint_r>
    2274:	e60504e3          	beqz	a0,20dc <_vfprintf_r+0x334>
    2278:	01012283          	lw	t0,16(sp)
    227c:	00028863          	beqz	t0,228c <_vfprintf_r+0x4e4>
    2280:	00028593          	mv	a1,t0
    2284:	00098513          	mv	a0,s3
    2288:	81cff0ef          	jal	12a4 <_free_r>
    228c:	00812783          	lw	a5,8(sp)
    2290:	00c79783          	lh	a5,12(a5)
    2294:	00812703          	lw	a4,8(sp)
    2298:	06472703          	lw	a4,100(a4)
    229c:	00177713          	and	a4,a4,1
    22a0:	3c070463          	beqz	a4,2668 <_vfprintf_r+0x8c0>
    22a4:	0407f793          	and	a5,a5,64
    22a8:	18412483          	lw	s1,388(sp)
    22ac:	18012903          	lw	s2,384(sp)
    22b0:	17812a03          	lw	s4,376(sp)
    22b4:	17412a83          	lw	s5,372(sp)
    22b8:	17012b03          	lw	s6,368(sp)
    22bc:	16c12b83          	lw	s7,364(sp)
    22c0:	16812c03          	lw	s8,360(sp)
    22c4:	16412c83          	lw	s9,356(sp)
    22c8:	16012d03          	lw	s10,352(sp)
    22cc:	15c12d83          	lw	s11,348(sp)
    22d0:	00078463          	beqz	a5,22d8 <_vfprintf_r+0x530>
    22d4:	3d00206f          	j	46a4 <_vfprintf_r+0x28fc>
    22d8:	18c12083          	lw	ra,396(sp)
    22dc:	18812403          	lw	s0,392(sp)
    22e0:	00c12503          	lw	a0,12(sp)
    22e4:	17c12983          	lw	s3,380(sp)
    22e8:	19010113          	add	sp,sp,400
    22ec:	00008067          	ret
    22f0:	008a7713          	and	a4,s4,8
    22f4:	000a0e93          	mv	t4,s4
    22f8:	000b0313          	mv	t1,s6
    22fc:	00070463          	beqz	a4,2304 <_vfprintf_r+0x55c>
    2300:	0200106f          	j	3320 <_vfprintf_r+0x1578>
    2304:	01412783          	lw	a5,20(sp)
    2308:	00778b13          	add	s6,a5,7
    230c:	ff8b7b13          	and	s6,s6,-8
    2310:	000b2783          	lw	a5,0(s6)
    2314:	02f12423          	sw	a5,40(sp)
    2318:	004b2783          	lw	a5,4(s6)
    231c:	02f12623          	sw	a5,44(sp)
    2320:	008b0793          	add	a5,s6,8
    2324:	00f12a23          	sw	a5,20(sp)
    2328:	02c12a03          	lw	s4,44(sp)
    232c:	7fffe717          	auipc	a4,0x7fffe
    2330:	37470713          	add	a4,a4,884 # 800006a0 <__global_locale+0x16c>
    2334:	00072c83          	lw	s9,0(a4)
    2338:	00472d03          	lw	s10,4(a4)
    233c:	02812b03          	lw	s6,40(sp)
    2340:	001a1493          	sll	s1,s4,0x1
    2344:	0014d493          	srl	s1,s1,0x1
    2348:	000b0513          	mv	a0,s6
    234c:	00048593          	mv	a1,s1
    2350:	000c8613          	mv	a2,s9
    2354:	000d0693          	mv	a3,s10
    2358:	02612223          	sw	t1,36(sp)
    235c:	03c12023          	sw	t3,32(sp)
    2360:	01d12823          	sw	t4,16(sp)
    2364:	26c0c0ef          	jal	e5d0 <__unorddf2>
    2368:	01012e83          	lw	t4,16(sp)
    236c:	02012e03          	lw	t3,32(sp)
    2370:	02412303          	lw	t1,36(sp)
    2374:	00050463          	beqz	a0,237c <_vfprintf_r+0x5d4>
    2378:	4080106f          	j	3780 <_vfprintf_r+0x19d8>
    237c:	000b0513          	mv	a0,s6
    2380:	00048593          	mv	a1,s1
    2384:	000c8613          	mv	a2,s9
    2388:	000d0693          	mv	a3,s10
    238c:	0a40b0ef          	jal	d430 <__ledf2>
    2390:	01012e83          	lw	t4,16(sp)
    2394:	02012e03          	lw	t3,32(sp)
    2398:	02412303          	lw	t1,36(sp)
    239c:	00a04463          	bgtz	a0,23a4 <_vfprintf_r+0x5fc>
    23a0:	3e00106f          	j	3780 <_vfprintf_r+0x19d8>
    23a4:	000b0513          	mv	a0,s6
    23a8:	000a0593          	mv	a1,s4
    23ac:	00000613          	li	a2,0
    23b0:	00000693          	li	a3,0
    23b4:	07c0b0ef          	jal	d430 <__ledf2>
    23b8:	01012e83          	lw	t4,16(sp)
    23bc:	02012e03          	lw	t3,32(sp)
    23c0:	00055463          	bgez	a0,23c8 <_vfprintf_r+0x620>
    23c4:	6650106f          	j	4228 <_vfprintf_r+0x2480>
    23c8:	07714603          	lbu	a2,119(sp)
    23cc:	04700713          	li	a4,71
    23d0:	0000dc17          	auipc	s8,0xd
    23d4:	bc0c0c13          	add	s8,s8,-1088 # ef90 <__fini_array_end+0x198>
    23d8:	01c74663          	blt	a4,t3,23e4 <_vfprintf_r+0x63c>
    23dc:	0000dc17          	auipc	s8,0xd
    23e0:	bb0c0c13          	add	s8,s8,-1104 # ef8c <__fini_array_end+0x194>
    23e4:	00012823          	sw	zero,16(sp)
    23e8:	02012223          	sw	zero,36(sp)
    23ec:	02012023          	sw	zero,32(sp)
    23f0:	f7fefe93          	and	t4,t4,-129
    23f4:	00300c93          	li	s9,3
    23f8:	00300d13          	li	s10,3
    23fc:	00000313          	li	t1,0
    2400:	00000a13          	li	s4,0
    2404:	be0602e3          	beqz	a2,1fe8 <_vfprintf_r+0x240>
    2408:	001c8c93          	add	s9,s9,1
    240c:	bddff06f          	j	1fe8 <_vfprintf_r+0x240>
    2410:	01000593          	li	a1,16
    2414:	0a412603          	lw	a2,164(sp)
    2418:	0000db17          	auipc	s6,0xd
    241c:	07cb0b13          	add	s6,s6,124 # f494 <blanks.1>
    2420:	0ae5dc63          	bge	a1,a4,24d8 <_vfprintf_r+0x730>
    2424:	00040793          	mv	a5,s0
    2428:	00048693          	mv	a3,s1
    242c:	01000893          	li	a7,16
    2430:	000b0493          	mv	s1,s6
    2434:	00700393          	li	t2,7
    2438:	000a0b13          	mv	s6,s4
    243c:	04512223          	sw	t0,68(sp)
    2440:	05f12823          	sw	t6,80(sp)
    2444:	05d12a23          	sw	t4,84(sp)
    2448:	05c12c23          	sw	t3,88(sp)
    244c:	00070413          	mv	s0,a4
    2450:	00030a13          	mv	s4,t1
    2454:	00c0006f          	j	2460 <_vfprintf_r+0x6b8>
    2458:	ff040413          	add	s0,s0,-16
    245c:	0488da63          	bge	a7,s0,24b0 <_vfprintf_r+0x708>
    2460:	01068693          	add	a3,a3,16
    2464:	00160613          	add	a2,a2,1
    2468:	0097a023          	sw	s1,0(a5)
    246c:	0117a223          	sw	a7,4(a5)
    2470:	0ad12423          	sw	a3,168(sp)
    2474:	0ac12223          	sw	a2,164(sp)
    2478:	00878793          	add	a5,a5,8
    247c:	fcc3dee3          	bge	t2,a2,2458 <_vfprintf_r+0x6b0>
    2480:	00812583          	lw	a1,8(sp)
    2484:	0a010613          	add	a2,sp,160
    2488:	00098513          	mv	a0,s3
    248c:	7d8020ef          	jal	4c64 <__sprint_r>
    2490:	de0514e3          	bnez	a0,2278 <_vfprintf_r+0x4d0>
    2494:	01000893          	li	a7,16
    2498:	ff040413          	add	s0,s0,-16
    249c:	0a812683          	lw	a3,168(sp)
    24a0:	0a412603          	lw	a2,164(sp)
    24a4:	0ac10793          	add	a5,sp,172
    24a8:	00700393          	li	t2,7
    24ac:	fa88cae3          	blt	a7,s0,2460 <_vfprintf_r+0x6b8>
    24b0:	04412283          	lw	t0,68(sp)
    24b4:	05012f83          	lw	t6,80(sp)
    24b8:	05412e83          	lw	t4,84(sp)
    24bc:	05812e03          	lw	t3,88(sp)
    24c0:	000a0313          	mv	t1,s4
    24c4:	00040713          	mv	a4,s0
    24c8:	000b0a13          	mv	s4,s6
    24cc:	00078413          	mv	s0,a5
    24d0:	00048b13          	mv	s6,s1
    24d4:	00068493          	mv	s1,a3
    24d8:	00e484b3          	add	s1,s1,a4
    24dc:	00160613          	add	a2,a2,1
    24e0:	00e42223          	sw	a4,4(s0)
    24e4:	01642023          	sw	s6,0(s0)
    24e8:	0a912423          	sw	s1,168(sp)
    24ec:	0ac12223          	sw	a2,164(sp)
    24f0:	00700713          	li	a4,7
    24f4:	00c75463          	bge	a4,a2,24fc <_vfprintf_r+0x754>
    24f8:	2380106f          	j	3730 <_vfprintf_r+0x1988>
    24fc:	07714603          	lbu	a2,119(sp)
    2500:	00840413          	add	s0,s0,8
    2504:	b05ff06f          	j	2008 <_vfprintf_r+0x260>
    2508:	00812583          	lw	a1,8(sp)
    250c:	0a010613          	add	a2,sp,160
    2510:	00098513          	mv	a0,s3
    2514:	04612e23          	sw	t1,92(sp)
    2518:	05c12c23          	sw	t3,88(sp)
    251c:	05d12a23          	sw	t4,84(sp)
    2520:	05f12823          	sw	t6,80(sp)
    2524:	04512223          	sw	t0,68(sp)
    2528:	73c020ef          	jal	4c64 <__sprint_r>
    252c:	d40516e3          	bnez	a0,2278 <_vfprintf_r+0x4d0>
    2530:	0a812483          	lw	s1,168(sp)
    2534:	05c12303          	lw	t1,92(sp)
    2538:	05812e03          	lw	t3,88(sp)
    253c:	05412e83          	lw	t4,84(sp)
    2540:	05012f83          	lw	t6,80(sp)
    2544:	04412283          	lw	t0,68(sp)
    2548:	0ac10413          	add	s0,sp,172
    254c:	af1ff06f          	j	203c <_vfprintf_r+0x294>
    2550:	0a412d03          	lw	s10,164(sp)
    2554:	01812783          	lw	a5,24(sp)
    2558:	00100693          	li	a3,1
    255c:	01842023          	sw	s8,0(s0)
    2560:	00148493          	add	s1,s1,1
    2564:	001d0d13          	add	s10,s10,1
    2568:	00840b13          	add	s6,s0,8
    256c:	32f6d0e3          	bge	a3,a5,308c <_vfprintf_r+0x12e4>
    2570:	00100693          	li	a3,1
    2574:	00d42223          	sw	a3,4(s0)
    2578:	0a912423          	sw	s1,168(sp)
    257c:	0ba12223          	sw	s10,164(sp)
    2580:	00700693          	li	a3,7
    2584:	01a6d463          	bge	a3,s10,258c <_vfprintf_r+0x7e4>
    2588:	0680106f          	j	35f0 <_vfprintf_r+0x1848>
    258c:	03012783          	lw	a5,48(sp)
    2590:	03412703          	lw	a4,52(sp)
    2594:	001d0d13          	add	s10,s10,1
    2598:	00f484b3          	add	s1,s1,a5
    259c:	00eb2023          	sw	a4,0(s6)
    25a0:	00fb2223          	sw	a5,4(s6)
    25a4:	0a912423          	sw	s1,168(sp)
    25a8:	0ba12223          	sw	s10,164(sp)
    25ac:	00700693          	li	a3,7
    25b0:	008b0b13          	add	s6,s6,8
    25b4:	01a6d463          	bge	a3,s10,25bc <_vfprintf_r+0x814>
    25b8:	0680106f          	j	3620 <_vfprintf_r+0x1878>
    25bc:	02812603          	lw	a2,40(sp)
    25c0:	02c12683          	lw	a3,44(sp)
    25c4:	01812783          	lw	a5,24(sp)
    25c8:	00060513          	mv	a0,a2
    25cc:	00068593          	mv	a1,a3
    25d0:	00000613          	li	a2,0
    25d4:	00000693          	li	a3,0
    25d8:	03d12023          	sw	t4,32(sp)
    25dc:	fff78413          	add	s0,a5,-1
    25e0:	4c50a0ef          	jal	d2a4 <__eqdf2>
    25e4:	02012e83          	lw	t4,32(sp)
    25e8:	2e0506e3          	beqz	a0,30d4 <_vfprintf_r+0x132c>
    25ec:	001c0793          	add	a5,s8,1
    25f0:	001d0d13          	add	s10,s10,1
    25f4:	008484b3          	add	s1,s1,s0
    25f8:	00fb2023          	sw	a5,0(s6)
    25fc:	008b2223          	sw	s0,4(s6)
    2600:	0a912423          	sw	s1,168(sp)
    2604:	0ba12223          	sw	s10,164(sp)
    2608:	00700793          	li	a5,7
    260c:	008b0b13          	add	s6,s6,8
    2610:	29a7cce3          	blt	a5,s10,30a8 <_vfprintf_r+0x1300>
    2614:	04012703          	lw	a4,64(sp)
    2618:	08810793          	add	a5,sp,136
    261c:	001d0d13          	add	s10,s10,1
    2620:	009704b3          	add	s1,a4,s1
    2624:	00fb2023          	sw	a5,0(s6)
    2628:	00eb2223          	sw	a4,4(s6)
    262c:	0a912423          	sw	s1,168(sp)
    2630:	0ba12223          	sw	s10,164(sp)
    2634:	00700793          	li	a5,7
    2638:	008b0413          	add	s0,s6,8
    263c:	a7a7dae3          	bge	a5,s10,20b0 <_vfprintf_r+0x308>
    2640:	00812583          	lw	a1,8(sp)
    2644:	0a010613          	add	a2,sp,160
    2648:	00098513          	mv	a0,s3
    264c:	03d12023          	sw	t4,32(sp)
    2650:	614020ef          	jal	4c64 <__sprint_r>
    2654:	c20512e3          	bnez	a0,2278 <_vfprintf_r+0x4d0>
    2658:	0a812483          	lw	s1,168(sp)
    265c:	02012e83          	lw	t4,32(sp)
    2660:	0ac10413          	add	s0,sp,172
    2664:	a4dff06f          	j	20b0 <_vfprintf_r+0x308>
    2668:	2007f713          	and	a4,a5,512
    266c:	c2071ce3          	bnez	a4,22a4 <_vfprintf_r+0x4fc>
    2670:	00812403          	lw	s0,8(sp)
    2674:	05842503          	lw	a0,88(s0)
    2678:	fd8fe0ef          	jal	e50 <__retarget_lock_release_recursive>
    267c:	00c41783          	lh	a5,12(s0)
    2680:	c25ff06f          	j	22a4 <_vfprintf_r+0x4fc>
    2684:	00094e03          	lbu	t3,0(s2)
    2688:	020a6a13          	or	s4,s4,32
    268c:	8cdff06f          	j	1f58 <_vfprintf_r+0x1b0>
    2690:	01412703          	lw	a4,20(sp)
    2694:	04300793          	li	a5,67
    2698:	000a0e93          	mv	t4,s4
    269c:	00470493          	add	s1,a4,4
    26a0:	64fe08e3          	beq	t3,a5,34f0 <_vfprintf_r+0x1748>
    26a4:	010a7793          	and	a5,s4,16
    26a8:	640794e3          	bnez	a5,34f0 <_vfprintf_r+0x1748>
    26ac:	01412783          	lw	a5,20(sp)
    26b0:	00100c93          	li	s9,1
    26b4:	00100d13          	li	s10,1
    26b8:	0007a783          	lw	a5,0(a5)
    26bc:	0ec10c13          	add	s8,sp,236
    26c0:	0ef10623          	sb	a5,236(sp)
    26c4:	06010ba3          	sb	zero,119(sp)
    26c8:	00912a23          	sw	s1,20(sp)
    26cc:	00000613          	li	a2,0
    26d0:	00012823          	sw	zero,16(sp)
    26d4:	00000313          	li	t1,0
    26d8:	02012223          	sw	zero,36(sp)
    26dc:	02012023          	sw	zero,32(sp)
    26e0:	00000a13          	li	s4,0
    26e4:	905ff06f          	j	1fe8 <_vfprintf_r+0x240>
    26e8:	01412783          	lw	a5,20(sp)
    26ec:	06010ba3          	sb	zero,119(sp)
    26f0:	000b0313          	mv	t1,s6
    26f4:	0007ac03          	lw	s8,0(a5)
    26f8:	000a0e93          	mv	t4,s4
    26fc:	00478b13          	add	s6,a5,4
    2700:	5a0c0ce3          	beqz	s8,34b8 <_vfprintf_r+0x1710>
    2704:	05300713          	li	a4,83
    2708:	00ee1463          	bne	t3,a4,2710 <_vfprintf_r+0x968>
    270c:	1d00106f          	j	38dc <_vfprintf_r+0x1b34>
    2710:	010a7a13          	and	s4,s4,16
    2714:	000a0463          	beqz	s4,271c <_vfprintf_r+0x974>
    2718:	1c40106f          	j	38dc <_vfprintf_r+0x1b34>
    271c:	00035463          	bgez	t1,2724 <_vfprintf_r+0x97c>
    2720:	6d40106f          	j	3df4 <_vfprintf_r+0x204c>
    2724:	00030613          	mv	a2,t1
    2728:	00000593          	li	a1,0
    272c:	000c0513          	mv	a0,s8
    2730:	03d12023          	sw	t4,32(sp)
    2734:	00612a23          	sw	t1,20(sp)
    2738:	0ec050ef          	jal	7824 <memchr>
    273c:	00a12823          	sw	a0,16(sp)
    2740:	01412303          	lw	t1,20(sp)
    2744:	02012e83          	lw	t4,32(sp)
    2748:	00051463          	bnez	a0,2750 <_vfprintf_r+0x9a8>
    274c:	1780206f          	j	48c4 <_vfprintf_r+0x2b1c>
    2750:	01012783          	lw	a5,16(sp)
    2754:	07714603          	lbu	a2,119(sp)
    2758:	01612a23          	sw	s6,20(sp)
    275c:	41878d33          	sub	s10,a5,s8
    2760:	fffd4813          	not	a6,s10
    2764:	41f85813          	sra	a6,a6,0x1f
    2768:	02012223          	sw	zero,36(sp)
    276c:	02012023          	sw	zero,32(sp)
    2770:	00012823          	sw	zero,16(sp)
    2774:	010d7cb3          	and	s9,s10,a6
    2778:	00000313          	li	t1,0
    277c:	07300e13          	li	t3,115
    2780:	860604e3          	beqz	a2,1fe8 <_vfprintf_r+0x240>
    2784:	c85ff06f          	j	2408 <_vfprintf_r+0x660>
    2788:	01412783          	lw	a5,20(sp)
    278c:	0007ab83          	lw	s7,0(a5)
    2790:	00478793          	add	a5,a5,4
    2794:	2a0bdae3          	bgez	s7,3248 <_vfprintf_r+0x14a0>
    2798:	41700bb3          	neg	s7,s7
    279c:	00f12a23          	sw	a5,20(sp)
    27a0:	00094e03          	lbu	t3,0(s2)
    27a4:	004a6a13          	or	s4,s4,4
    27a8:	fb0ff06f          	j	1f58 <_vfprintf_r+0x1b0>
    27ac:	02b00793          	li	a5,43
    27b0:	00094e03          	lbu	t3,0(s2)
    27b4:	06f10ba3          	sb	a5,119(sp)
    27b8:	fa0ff06f          	j	1f58 <_vfprintf_r+0x1b0>
    27bc:	000b0313          	mv	t1,s6
    27c0:	010a6613          	or	a2,s4,16
    27c4:	02067793          	and	a5,a2,32
    27c8:	1c0780e3          	beqz	a5,3188 <_vfprintf_r+0x13e0>
    27cc:	01412783          	lw	a5,20(sp)
    27d0:	00778b13          	add	s6,a5,7
    27d4:	ff8b7b13          	and	s6,s6,-8
    27d8:	000b2d03          	lw	s10,0(s6)
    27dc:	004b2c83          	lw	s9,4(s6)
    27e0:	008b0793          	add	a5,s6,8
    27e4:	00f12a23          	sw	a5,20(sp)
    27e8:	00100793          	li	a5,1
    27ec:	00000713          	li	a4,0
    27f0:	06e10ba3          	sb	a4,119(sp)
    27f4:	34034c63          	bltz	t1,2b4c <_vfprintf_r+0xda4>
    27f8:	019d6733          	or	a4,s10,s9
    27fc:	f7f67e93          	and	t4,a2,-129
    2800:	34071463          	bnez	a4,2b48 <_vfprintf_r+0xda0>
    2804:	3a031a63          	bnez	t1,2bb8 <_vfprintf_r+0xe10>
    2808:	5c079ee3          	bnez	a5,35e4 <_vfprintf_r+0x183c>
    280c:	00167d13          	and	s10,a2,1
    2810:	15010c13          	add	s8,sp,336
    2814:	2c0d10e3          	bnez	s10,32d4 <_vfprintf_r+0x152c>
    2818:	07714603          	lbu	a2,119(sp)
    281c:	00030c93          	mv	s9,t1
    2820:	01a35463          	bge	t1,s10,2828 <_vfprintf_r+0xa80>
    2824:	000d0c93          	mv	s9,s10
    2828:	00012823          	sw	zero,16(sp)
    282c:	02012223          	sw	zero,36(sp)
    2830:	02012023          	sw	zero,32(sp)
    2834:	00000a13          	li	s4,0
    2838:	fa060863          	beqz	a2,1fe8 <_vfprintf_r+0x240>
    283c:	bcdff06f          	j	2408 <_vfprintf_r+0x660>
    2840:	00094e03          	lbu	t3,0(s2)
    2844:	080a6a13          	or	s4,s4,128
    2848:	f10ff06f          	j	1f58 <_vfprintf_r+0x1b0>
    284c:	00094e03          	lbu	t3,0(s2)
    2850:	02a00793          	li	a5,42
    2854:	00190693          	add	a3,s2,1
    2858:	00fe1463          	bne	t3,a5,2860 <_vfprintf_r+0xab8>
    285c:	1100206f          	j	496c <_vfprintf_r+0x2bc4>
    2860:	fd0e0713          	add	a4,t3,-48
    2864:	00900793          	li	a5,9
    2868:	00000b13          	li	s6,0
    286c:	00900613          	li	a2,9
    2870:	02e7e463          	bltu	a5,a4,2898 <_vfprintf_r+0xaf0>
    2874:	0006ce03          	lbu	t3,0(a3)
    2878:	002b1793          	sll	a5,s6,0x2
    287c:	016787b3          	add	a5,a5,s6
    2880:	00179793          	sll	a5,a5,0x1
    2884:	00e78b33          	add	s6,a5,a4
    2888:	fd0e0713          	add	a4,t3,-48
    288c:	00168693          	add	a3,a3,1
    2890:	fee672e3          	bgeu	a2,a4,2874 <_vfprintf_r+0xacc>
    2894:	320b4ce3          	bltz	s6,33cc <_vfprintf_r+0x1624>
    2898:	00068913          	mv	s2,a3
    289c:	ec0ff06f          	j	1f5c <_vfprintf_r+0x1b4>
    28a0:	00094e03          	lbu	t3,0(s2)
    28a4:	001a6a13          	or	s4,s4,1
    28a8:	eb0ff06f          	j	1f58 <_vfprintf_r+0x1b0>
    28ac:	07714783          	lbu	a5,119(sp)
    28b0:	00094e03          	lbu	t3,0(s2)
    28b4:	ea079263          	bnez	a5,1f58 <_vfprintf_r+0x1b0>
    28b8:	02000793          	li	a5,32
    28bc:	06f10ba3          	sb	a5,119(sp)
    28c0:	e98ff06f          	j	1f58 <_vfprintf_r+0x1b0>
    28c4:	00094e03          	lbu	t3,0(s2)
    28c8:	06c00793          	li	a5,108
    28cc:	3afe00e3          	beq	t3,a5,346c <_vfprintf_r+0x16c4>
    28d0:	010a6a13          	or	s4,s4,16
    28d4:	e84ff06f          	j	1f58 <_vfprintf_r+0x1b0>
    28d8:	00094e03          	lbu	t3,0(s2)
    28dc:	008a6a13          	or	s4,s4,8
    28e0:	e78ff06f          	j	1f58 <_vfprintf_r+0x1b0>
    28e4:	000b0313          	mv	t1,s6
    28e8:	010a6e93          	or	t4,s4,16
    28ec:	020ef793          	and	a5,t4,32
    28f0:	0c0786e3          	beqz	a5,31bc <_vfprintf_r+0x1414>
    28f4:	01412783          	lw	a5,20(sp)
    28f8:	00778b13          	add	s6,a5,7
    28fc:	ff8b7b13          	and	s6,s6,-8
    2900:	004b2783          	lw	a5,4(s6)
    2904:	000b2d03          	lw	s10,0(s6)
    2908:	008b0713          	add	a4,s6,8
    290c:	00e12a23          	sw	a4,20(sp)
    2910:	00078c93          	mv	s9,a5
    2914:	0c07cee3          	bltz	a5,31f0 <_vfprintf_r+0x1448>
    2918:	000e8613          	mv	a2,t4
    291c:	02034263          	bltz	t1,2940 <_vfprintf_r+0xb98>
    2920:	019d67b3          	or	a5,s10,s9
    2924:	f7fef613          	and	a2,t4,-129
    2928:	00079c63          	bnez	a5,2940 <_vfprintf_r+0xb98>
    292c:	02031063          	bnez	t1,294c <_vfprintf_r+0xba4>
    2930:	00000d13          	li	s10,0
    2934:	00060e93          	mv	t4,a2
    2938:	15010c13          	add	s8,sp,336
    293c:	eddff06f          	j	2818 <_vfprintf_r+0xa70>
    2940:	520c90e3          	bnez	s9,3660 <_vfprintf_r+0x18b8>
    2944:	00900793          	li	a5,9
    2948:	51a7ece3          	bltu	a5,s10,3660 <_vfprintf_r+0x18b8>
    294c:	030d0d13          	add	s10,s10,48
    2950:	15a107a3          	sb	s10,335(sp)
    2954:	00060e93          	mv	t4,a2
    2958:	00100d13          	li	s10,1
    295c:	14f10c13          	add	s8,sp,335
    2960:	eb9ff06f          	j	2818 <_vfprintf_r+0xa70>
    2964:	000b0313          	mv	t1,s6
    2968:	010a6e93          	or	t4,s4,16
    296c:	020ef793          	and	a5,t4,32
    2970:	7e078463          	beqz	a5,3158 <_vfprintf_r+0x13b0>
    2974:	01412783          	lw	a5,20(sp)
    2978:	00778b13          	add	s6,a5,7
    297c:	ff8b7b13          	and	s6,s6,-8
    2980:	000b2d03          	lw	s10,0(s6)
    2984:	004b2c83          	lw	s9,4(s6)
    2988:	008b0793          	add	a5,s6,8
    298c:	00f12a23          	sw	a5,20(sp)
    2990:	bffef613          	and	a2,t4,-1025
    2994:	00000793          	li	a5,0
    2998:	e55ff06f          	j	27ec <_vfprintf_r+0xa44>
    299c:	00094e03          	lbu	t3,0(s2)
    29a0:	06800793          	li	a5,104
    29a4:	2cfe0ce3          	beq	t3,a5,347c <_vfprintf_r+0x16d4>
    29a8:	040a6a13          	or	s4,s4,64
    29ac:	dacff06f          	j	1f58 <_vfprintf_r+0x1b0>
    29b0:	01412703          	lw	a4,20(sp)
    29b4:	000087b7          	lui	a5,0x8
    29b8:	83078793          	add	a5,a5,-2000 # 7830 <memchr+0xc>
    29bc:	06f11c23          	sh	a5,120(sp)
    29c0:	00470793          	add	a5,a4,4
    29c4:	00f12a23          	sw	a5,20(sp)
    29c8:	0000c797          	auipc	a5,0xc
    29cc:	5d478793          	add	a5,a5,1492 # ef9c <__fini_array_end+0x1a4>
    29d0:	02f12c23          	sw	a5,56(sp)
    29d4:	00072d03          	lw	s10,0(a4)
    29d8:	000b0313          	mv	t1,s6
    29dc:	00000c93          	li	s9,0
    29e0:	002a6613          	or	a2,s4,2
    29e4:	00200793          	li	a5,2
    29e8:	07800e13          	li	t3,120
    29ec:	e01ff06f          	j	27ec <_vfprintf_r+0xa44>
    29f0:	020a7793          	and	a5,s4,32
    29f4:	180784e3          	beqz	a5,337c <_vfprintf_r+0x15d4>
    29f8:	01412783          	lw	a5,20(sp)
    29fc:	00c12683          	lw	a3,12(sp)
    2a00:	0007a783          	lw	a5,0(a5)
    2a04:	41f6d713          	sra	a4,a3,0x1f
    2a08:	00d7a023          	sw	a3,0(a5)
    2a0c:	00e7a223          	sw	a4,4(a5)
    2a10:	01412783          	lw	a5,20(sp)
    2a14:	00090c13          	mv	s8,s2
    2a18:	00478793          	add	a5,a5,4
    2a1c:	00f12a23          	sw	a5,20(sp)
    2a20:	cccff06f          	j	1eec <_vfprintf_r+0x144>
    2a24:	06500713          	li	a4,101
    2a28:	b3c754e3          	bge	a4,t3,2550 <_vfprintf_r+0x7a8>
    2a2c:	02812683          	lw	a3,40(sp)
    2a30:	02c12703          	lw	a4,44(sp)
    2a34:	00000613          	li	a2,0
    2a38:	00068513          	mv	a0,a3
    2a3c:	00070593          	mv	a1,a4
    2a40:	00000693          	li	a3,0
    2a44:	05d12223          	sw	t4,68(sp)
    2a48:	05d0a0ef          	jal	d2a4 <__eqdf2>
    2a4c:	04412e83          	lw	t4,68(sp)
    2a50:	4e051463          	bnez	a0,2f38 <_vfprintf_r+0x1190>
    2a54:	0a412783          	lw	a5,164(sp)
    2a58:	0000c717          	auipc	a4,0xc
    2a5c:	57470713          	add	a4,a4,1396 # efcc <__fini_array_end+0x1d4>
    2a60:	00e42023          	sw	a4,0(s0)
    2a64:	00148493          	add	s1,s1,1
    2a68:	00100713          	li	a4,1
    2a6c:	00178793          	add	a5,a5,1
    2a70:	00e42223          	sw	a4,4(s0)
    2a74:	0a912423          	sw	s1,168(sp)
    2a78:	0af12223          	sw	a5,164(sp)
    2a7c:	00700713          	li	a4,7
    2a80:	00840413          	add	s0,s0,8
    2a84:	62f746e3          	blt	a4,a5,38b0 <_vfprintf_r+0x1b08>
    2a88:	07c12783          	lw	a5,124(sp)
    2a8c:	01812703          	lw	a4,24(sp)
    2a90:	78e7de63          	bge	a5,a4,322c <_vfprintf_r+0x1484>
    2a94:	03412783          	lw	a5,52(sp)
    2a98:	03012703          	lw	a4,48(sp)
    2a9c:	00840413          	add	s0,s0,8
    2aa0:	fef42c23          	sw	a5,-8(s0)
    2aa4:	0a412783          	lw	a5,164(sp)
    2aa8:	00e484b3          	add	s1,s1,a4
    2aac:	fee42e23          	sw	a4,-4(s0)
    2ab0:	00178793          	add	a5,a5,1
    2ab4:	0a912423          	sw	s1,168(sp)
    2ab8:	0af12223          	sw	a5,164(sp)
    2abc:	00700713          	li	a4,7
    2ac0:	1cf746e3          	blt	a4,a5,348c <_vfprintf_r+0x16e4>
    2ac4:	01812783          	lw	a5,24(sp)
    2ac8:	fff78d13          	add	s10,a5,-1
    2acc:	dfa05263          	blez	s10,20b0 <_vfprintf_r+0x308>
    2ad0:	01000713          	li	a4,16
    2ad4:	0a412783          	lw	a5,164(sp)
    2ad8:	0000d297          	auipc	t0,0xd
    2adc:	9ac28293          	add	t0,t0,-1620 # f484 <zeroes.0>
    2ae0:	77a752e3          	bge	a4,s10,3a44 <_vfprintf_r+0x1c9c>
    2ae4:	00048713          	mv	a4,s1
    2ae8:	01000c13          	li	s8,16
    2aec:	00700b13          	li	s6,7
    2af0:	000e8493          	mv	s1,t4
    2af4:	00028a13          	mv	s4,t0
    2af8:	00c0006f          	j	2b04 <_vfprintf_r+0xd5c>
    2afc:	ff0d0d13          	add	s10,s10,-16
    2b00:	73ac5ce3          	bge	s8,s10,3a38 <_vfprintf_r+0x1c90>
    2b04:	01070713          	add	a4,a4,16
    2b08:	00178793          	add	a5,a5,1
    2b0c:	01442023          	sw	s4,0(s0)
    2b10:	01842223          	sw	s8,4(s0)
    2b14:	0ae12423          	sw	a4,168(sp)
    2b18:	0af12223          	sw	a5,164(sp)
    2b1c:	00840413          	add	s0,s0,8
    2b20:	fcfb5ee3          	bge	s6,a5,2afc <_vfprintf_r+0xd54>
    2b24:	00812583          	lw	a1,8(sp)
    2b28:	0a010613          	add	a2,sp,160
    2b2c:	00098513          	mv	a0,s3
    2b30:	134020ef          	jal	4c64 <__sprint_r>
    2b34:	f4051263          	bnez	a0,2278 <_vfprintf_r+0x4d0>
    2b38:	0a812703          	lw	a4,168(sp)
    2b3c:	0a412783          	lw	a5,164(sp)
    2b40:	0ac10413          	add	s0,sp,172
    2b44:	fb9ff06f          	j	2afc <_vfprintf_r+0xd54>
    2b48:	000e8613          	mv	a2,t4
    2b4c:	00100713          	li	a4,1
    2b50:	dee788e3          	beq	a5,a4,2940 <_vfprintf_r+0xb98>
    2b54:	00200713          	li	a4,2
    2b58:	06e78c63          	beq	a5,a4,2bd0 <_vfprintf_r+0xe28>
    2b5c:	15010c13          	add	s8,sp,336
    2b60:	01dc9793          	sll	a5,s9,0x1d
    2b64:	007d7713          	and	a4,s10,7
    2b68:	003d5d13          	srl	s10,s10,0x3
    2b6c:	03070713          	add	a4,a4,48
    2b70:	01a7ed33          	or	s10,a5,s10
    2b74:	003cdc93          	srl	s9,s9,0x3
    2b78:	feec0fa3          	sb	a4,-1(s8)
    2b7c:	019d67b3          	or	a5,s10,s9
    2b80:	000c0593          	mv	a1,s8
    2b84:	fffc0c13          	add	s8,s8,-1
    2b88:	fc079ce3          	bnez	a5,2b60 <_vfprintf_r+0xdb8>
    2b8c:	00167693          	and	a3,a2,1
    2b90:	06068a63          	beqz	a3,2c04 <_vfprintf_r+0xe5c>
    2b94:	03000693          	li	a3,48
    2b98:	06d70663          	beq	a4,a3,2c04 <_vfprintf_r+0xe5c>
    2b9c:	ffe58593          	add	a1,a1,-2 # 1ffe <_vfprintf_r+0x256>
    2ba0:	15010793          	add	a5,sp,336
    2ba4:	fedc0fa3          	sb	a3,-1(s8)
    2ba8:	40b78d33          	sub	s10,a5,a1
    2bac:	00060e93          	mv	t4,a2
    2bb0:	00058c13          	mv	s8,a1
    2bb4:	c65ff06f          	j	2818 <_vfprintf_r+0xa70>
    2bb8:	00100713          	li	a4,1
    2bbc:	00e79463          	bne	a5,a4,2bc4 <_vfprintf_r+0xe1c>
    2bc0:	2b10106f          	j	4670 <_vfprintf_r+0x28c8>
    2bc4:	00200713          	li	a4,2
    2bc8:	000e8613          	mv	a2,t4
    2bcc:	f8e798e3          	bne	a5,a4,2b5c <_vfprintf_r+0xdb4>
    2bd0:	03812683          	lw	a3,56(sp)
    2bd4:	15010c13          	add	s8,sp,336
    2bd8:	00fd7793          	and	a5,s10,15
    2bdc:	00f687b3          	add	a5,a3,a5
    2be0:	0007c703          	lbu	a4,0(a5)
    2be4:	004d5d13          	srl	s10,s10,0x4
    2be8:	01cc9793          	sll	a5,s9,0x1c
    2bec:	01a7ed33          	or	s10,a5,s10
    2bf0:	004cdc93          	srl	s9,s9,0x4
    2bf4:	feec0fa3          	sb	a4,-1(s8)
    2bf8:	019d67b3          	or	a5,s10,s9
    2bfc:	fffc0c13          	add	s8,s8,-1
    2c00:	fc079ce3          	bnez	a5,2bd8 <_vfprintf_r+0xe30>
    2c04:	15010793          	add	a5,sp,336
    2c08:	41878d33          	sub	s10,a5,s8
    2c0c:	00060e93          	mv	t4,a2
    2c10:	c09ff06f          	j	2818 <_vfprintf_r+0xa70>
    2c14:	419b8b33          	sub	s6,s7,s9
    2c18:	c7605063          	blez	s6,2078 <_vfprintf_r+0x2d0>
    2c1c:	01000593          	li	a1,16
    2c20:	0a412603          	lw	a2,164(sp)
    2c24:	0000d297          	auipc	t0,0xd
    2c28:	86028293          	add	t0,t0,-1952 # f484 <zeroes.0>
    2c2c:	0b65d463          	bge	a1,s6,2cd4 <_vfprintf_r+0xf2c>
    2c30:	00040793          	mv	a5,s0
    2c34:	00048713          	mv	a4,s1
    2c38:	000b0413          	mv	s0,s6
    2c3c:	01000893          	li	a7,16
    2c40:	000a0b13          	mv	s6,s4
    2c44:	00700f93          	li	t6,7
    2c48:	05d12223          	sw	t4,68(sp)
    2c4c:	05c12823          	sw	t3,80(sp)
    2c50:	00030a13          	mv	s4,t1
    2c54:	00028493          	mv	s1,t0
    2c58:	00c0006f          	j	2c64 <_vfprintf_r+0xebc>
    2c5c:	ff040413          	add	s0,s0,-16
    2c60:	0488da63          	bge	a7,s0,2cb4 <_vfprintf_r+0xf0c>
    2c64:	01070713          	add	a4,a4,16
    2c68:	00160613          	add	a2,a2,1
    2c6c:	0097a023          	sw	s1,0(a5)
    2c70:	0117a223          	sw	a7,4(a5)
    2c74:	0ae12423          	sw	a4,168(sp)
    2c78:	0ac12223          	sw	a2,164(sp)
    2c7c:	00878793          	add	a5,a5,8
    2c80:	fccfdee3          	bge	t6,a2,2c5c <_vfprintf_r+0xeb4>
    2c84:	00812583          	lw	a1,8(sp)
    2c88:	0a010613          	add	a2,sp,160
    2c8c:	00098513          	mv	a0,s3
    2c90:	7d5010ef          	jal	4c64 <__sprint_r>
    2c94:	de051263          	bnez	a0,2278 <_vfprintf_r+0x4d0>
    2c98:	01000893          	li	a7,16
    2c9c:	ff040413          	add	s0,s0,-16
    2ca0:	0a812703          	lw	a4,168(sp)
    2ca4:	0a412603          	lw	a2,164(sp)
    2ca8:	0ac10793          	add	a5,sp,172
    2cac:	00700f93          	li	t6,7
    2cb0:	fa88cae3          	blt	a7,s0,2c64 <_vfprintf_r+0xebc>
    2cb4:	04412e83          	lw	t4,68(sp)
    2cb8:	05012e03          	lw	t3,80(sp)
    2cbc:	000a0313          	mv	t1,s4
    2cc0:	00048293          	mv	t0,s1
    2cc4:	000b0a13          	mv	s4,s6
    2cc8:	00070493          	mv	s1,a4
    2ccc:	00040b13          	mv	s6,s0
    2cd0:	00078413          	mv	s0,a5
    2cd4:	016484b3          	add	s1,s1,s6
    2cd8:	00160613          	add	a2,a2,1
    2cdc:	00542023          	sw	t0,0(s0)
    2ce0:	01642223          	sw	s6,4(s0)
    2ce4:	0a912423          	sw	s1,168(sp)
    2ce8:	0ac12223          	sw	a2,164(sp)
    2cec:	00700713          	li	a4,7
    2cf0:	00840413          	add	s0,s0,8
    2cf4:	b8c75263          	bge	a4,a2,2078 <_vfprintf_r+0x2d0>
    2cf8:	00812583          	lw	a1,8(sp)
    2cfc:	0a010613          	add	a2,sp,160
    2d00:	00098513          	mv	a0,s3
    2d04:	04612a23          	sw	t1,84(sp)
    2d08:	05c12823          	sw	t3,80(sp)
    2d0c:	05d12223          	sw	t4,68(sp)
    2d10:	755010ef          	jal	4c64 <__sprint_r>
    2d14:	d6051263          	bnez	a0,2278 <_vfprintf_r+0x4d0>
    2d18:	0a812483          	lw	s1,168(sp)
    2d1c:	05412303          	lw	t1,84(sp)
    2d20:	05012e03          	lw	t3,80(sp)
    2d24:	04412e83          	lw	t4,68(sp)
    2d28:	0ac10413          	add	s0,sp,172
    2d2c:	b4cff06f          	j	2078 <_vfprintf_r+0x2d0>
    2d30:	01000713          	li	a4,16
    2d34:	0a412603          	lw	a2,164(sp)
    2d38:	0000c297          	auipc	t0,0xc
    2d3c:	74c28293          	add	t0,t0,1868 # f484 <zeroes.0>
    2d40:	0b675063          	bge	a4,s6,2de0 <_vfprintf_r+0x1038>
    2d44:	00040793          	mv	a5,s0
    2d48:	00048693          	mv	a3,s1
    2d4c:	000b0413          	mv	s0,s6
    2d50:	01000713          	li	a4,16
    2d54:	00700893          	li	a7,7
    2d58:	05d12223          	sw	t4,68(sp)
    2d5c:	000e0493          	mv	s1,t3
    2d60:	00028b13          	mv	s6,t0
    2d64:	00c0006f          	j	2d70 <_vfprintf_r+0xfc8>
    2d68:	ff040413          	add	s0,s0,-16
    2d6c:	04875e63          	bge	a4,s0,2dc8 <_vfprintf_r+0x1020>
    2d70:	01068693          	add	a3,a3,16
    2d74:	00160613          	add	a2,a2,1
    2d78:	0000c597          	auipc	a1,0xc
    2d7c:	70c58593          	add	a1,a1,1804 # f484 <zeroes.0>
    2d80:	00b7a023          	sw	a1,0(a5)
    2d84:	00e7a223          	sw	a4,4(a5)
    2d88:	0ad12423          	sw	a3,168(sp)
    2d8c:	0ac12223          	sw	a2,164(sp)
    2d90:	00878793          	add	a5,a5,8
    2d94:	fcc8dae3          	bge	a7,a2,2d68 <_vfprintf_r+0xfc0>
    2d98:	00812583          	lw	a1,8(sp)
    2d9c:	0a010613          	add	a2,sp,160
    2da0:	00098513          	mv	a0,s3
    2da4:	6c1010ef          	jal	4c64 <__sprint_r>
    2da8:	cc051863          	bnez	a0,2278 <_vfprintf_r+0x4d0>
    2dac:	01000713          	li	a4,16
    2db0:	ff040413          	add	s0,s0,-16
    2db4:	0a812683          	lw	a3,168(sp)
    2db8:	0a412603          	lw	a2,164(sp)
    2dbc:	0ac10793          	add	a5,sp,172
    2dc0:	00700893          	li	a7,7
    2dc4:	fa8746e3          	blt	a4,s0,2d70 <_vfprintf_r+0xfc8>
    2dc8:	04412e83          	lw	t4,68(sp)
    2dcc:	00048e13          	mv	t3,s1
    2dd0:	000b0293          	mv	t0,s6
    2dd4:	00068493          	mv	s1,a3
    2dd8:	00040b13          	mv	s6,s0
    2ddc:	00078413          	mv	s0,a5
    2de0:	016484b3          	add	s1,s1,s6
    2de4:	00160613          	add	a2,a2,1
    2de8:	00542023          	sw	t0,0(s0)
    2dec:	01642223          	sw	s6,4(s0)
    2df0:	0a912423          	sw	s1,168(sp)
    2df4:	0ac12223          	sw	a2,164(sp)
    2df8:	00700713          	li	a4,7
    2dfc:	00840413          	add	s0,s0,8
    2e00:	a8c75063          	bge	a4,a2,2080 <_vfprintf_r+0x2d8>
    2e04:	00812583          	lw	a1,8(sp)
    2e08:	0a010613          	add	a2,sp,160
    2e0c:	00098513          	mv	a0,s3
    2e10:	05c12823          	sw	t3,80(sp)
    2e14:	05d12223          	sw	t4,68(sp)
    2e18:	64d010ef          	jal	4c64 <__sprint_r>
    2e1c:	c4051e63          	bnez	a0,2278 <_vfprintf_r+0x4d0>
    2e20:	0a812483          	lw	s1,168(sp)
    2e24:	05012e03          	lw	t3,80(sp)
    2e28:	04412e83          	lw	t4,68(sp)
    2e2c:	0ac10413          	add	s0,sp,172
    2e30:	a50ff06f          	j	2080 <_vfprintf_r+0x2d8>
    2e34:	00812583          	lw	a1,8(sp)
    2e38:	0a010613          	add	a2,sp,160
    2e3c:	00098513          	mv	a0,s3
    2e40:	04612c23          	sw	t1,88(sp)
    2e44:	05c12a23          	sw	t3,84(sp)
    2e48:	05d12823          	sw	t4,80(sp)
    2e4c:	05f12223          	sw	t6,68(sp)
    2e50:	615010ef          	jal	4c64 <__sprint_r>
    2e54:	c2051263          	bnez	a0,2278 <_vfprintf_r+0x4d0>
    2e58:	0a812483          	lw	s1,168(sp)
    2e5c:	05812303          	lw	t1,88(sp)
    2e60:	05412e03          	lw	t3,84(sp)
    2e64:	05012e83          	lw	t4,80(sp)
    2e68:	04412f83          	lw	t6,68(sp)
    2e6c:	0ac10413          	add	s0,sp,172
    2e70:	a00ff06f          	j	2070 <_vfprintf_r+0x2c8>
    2e74:	01000713          	li	a4,16
    2e78:	0a412783          	lw	a5,164(sp)
    2e7c:	0000cb17          	auipc	s6,0xc
    2e80:	618b0b13          	add	s6,s6,1560 # f494 <blanks.1>
    2e84:	07a75c63          	bge	a4,s10,2efc <_vfprintf_r+0x1154>
    2e88:	000b0713          	mv	a4,s6
    2e8c:	01000c13          	li	s8,16
    2e90:	00090b13          	mv	s6,s2
    2e94:	00700a13          	li	s4,7
    2e98:	00070913          	mv	s2,a4
    2e9c:	00c0006f          	j	2ea8 <_vfprintf_r+0x1100>
    2ea0:	ff0d0d13          	add	s10,s10,-16
    2ea4:	05ac5663          	bge	s8,s10,2ef0 <_vfprintf_r+0x1148>
    2ea8:	01048493          	add	s1,s1,16
    2eac:	00178793          	add	a5,a5,1
    2eb0:	01242023          	sw	s2,0(s0)
    2eb4:	01842223          	sw	s8,4(s0)
    2eb8:	0a912423          	sw	s1,168(sp)
    2ebc:	0af12223          	sw	a5,164(sp)
    2ec0:	00840413          	add	s0,s0,8
    2ec4:	fcfa5ee3          	bge	s4,a5,2ea0 <_vfprintf_r+0x10f8>
    2ec8:	00812583          	lw	a1,8(sp)
    2ecc:	0a010613          	add	a2,sp,160
    2ed0:	00098513          	mv	a0,s3
    2ed4:	591010ef          	jal	4c64 <__sprint_r>
    2ed8:	ba051063          	bnez	a0,2278 <_vfprintf_r+0x4d0>
    2edc:	ff0d0d13          	add	s10,s10,-16
    2ee0:	0a812483          	lw	s1,168(sp)
    2ee4:	0a412783          	lw	a5,164(sp)
    2ee8:	0ac10413          	add	s0,sp,172
    2eec:	fbac4ee3          	blt	s8,s10,2ea8 <_vfprintf_r+0x1100>
    2ef0:	00090713          	mv	a4,s2
    2ef4:	000b0913          	mv	s2,s6
    2ef8:	00070b13          	mv	s6,a4
    2efc:	01a484b3          	add	s1,s1,s10
    2f00:	00178793          	add	a5,a5,1
    2f04:	01642023          	sw	s6,0(s0)
    2f08:	01a42223          	sw	s10,4(s0)
    2f0c:	0a912423          	sw	s1,168(sp)
    2f10:	0af12223          	sw	a5,164(sp)
    2f14:	00700713          	li	a4,7
    2f18:	9af75463          	bge	a4,a5,20c0 <_vfprintf_r+0x318>
    2f1c:	00812583          	lw	a1,8(sp)
    2f20:	0a010613          	add	a2,sp,160
    2f24:	00098513          	mv	a0,s3
    2f28:	53d010ef          	jal	4c64 <__sprint_r>
    2f2c:	b4051663          	bnez	a0,2278 <_vfprintf_r+0x4d0>
    2f30:	0a812483          	lw	s1,168(sp)
    2f34:	98cff06f          	j	20c0 <_vfprintf_r+0x318>
    2f38:	07c12683          	lw	a3,124(sp)
    2f3c:	30d05c63          	blez	a3,3254 <_vfprintf_r+0x14ac>
    2f40:	01812783          	lw	a5,24(sp)
    2f44:	000a0b13          	mv	s6,s4
    2f48:	0147d463          	bge	a5,s4,2f50 <_vfprintf_r+0x11a8>
    2f4c:	00078b13          	mv	s6,a5
    2f50:	03605863          	blez	s6,2f80 <_vfprintf_r+0x11d8>
    2f54:	0a412683          	lw	a3,164(sp)
    2f58:	016484b3          	add	s1,s1,s6
    2f5c:	01842023          	sw	s8,0(s0)
    2f60:	00168693          	add	a3,a3,1
    2f64:	01642223          	sw	s6,4(s0)
    2f68:	0a912423          	sw	s1,168(sp)
    2f6c:	0ad12223          	sw	a3,164(sp)
    2f70:	00700613          	li	a2,7
    2f74:	00840413          	add	s0,s0,8
    2f78:	00d65463          	bge	a2,a3,2f80 <_vfprintf_r+0x11d8>
    2f7c:	5c40106f          	j	4540 <_vfprintf_r+0x2798>
    2f80:	fffb4693          	not	a3,s6
    2f84:	41f6d693          	sra	a3,a3,0x1f
    2f88:	00db7733          	and	a4,s6,a3
    2f8c:	40ea0b33          	sub	s6,s4,a4
    2f90:	35604ae3          	bgtz	s6,3ae4 <_vfprintf_r+0x1d3c>
    2f94:	400ef713          	and	a4,t4,1024
    2f98:	014c0333          	add	t1,s8,s4
    2f9c:	00070463          	beqz	a4,2fa4 <_vfprintf_r+0x11fc>
    2fa0:	2980106f          	j	4238 <_vfprintf_r+0x2490>
    2fa4:	07c12d03          	lw	s10,124(sp)
    2fa8:	01812783          	lw	a5,24(sp)
    2fac:	5afd4063          	blt	s10,a5,354c <_vfprintf_r+0x17a4>
    2fb0:	001ef713          	and	a4,t4,1
    2fb4:	58071c63          	bnez	a4,354c <_vfprintf_r+0x17a4>
    2fb8:	01812703          	lw	a4,24(sp)
    2fbc:	00ec07b3          	add	a5,s8,a4
    2fc0:	41a70d33          	sub	s10,a4,s10
    2fc4:	40678b33          	sub	s6,a5,t1
    2fc8:	016d5463          	bge	s10,s6,2fd0 <_vfprintf_r+0x1228>
    2fcc:	000d0b13          	mv	s6,s10
    2fd0:	03605863          	blez	s6,3000 <_vfprintf_r+0x1258>
    2fd4:	0a412703          	lw	a4,164(sp)
    2fd8:	016484b3          	add	s1,s1,s6
    2fdc:	00642023          	sw	t1,0(s0)
    2fe0:	00170713          	add	a4,a4,1
    2fe4:	01642223          	sw	s6,4(s0)
    2fe8:	0a912423          	sw	s1,168(sp)
    2fec:	0ae12223          	sw	a4,164(sp)
    2ff0:	00700693          	li	a3,7
    2ff4:	00840413          	add	s0,s0,8
    2ff8:	00e6d463          	bge	a3,a4,3000 <_vfprintf_r+0x1258>
    2ffc:	5880106f          	j	4584 <_vfprintf_r+0x27dc>
    3000:	fffb4713          	not	a4,s6
    3004:	41f75713          	sra	a4,a4,0x1f
    3008:	00eb77b3          	and	a5,s6,a4
    300c:	40fd0d33          	sub	s10,s10,a5
    3010:	8ba05063          	blez	s10,20b0 <_vfprintf_r+0x308>
    3014:	01000713          	li	a4,16
    3018:	0a412783          	lw	a5,164(sp)
    301c:	0000c297          	auipc	t0,0xc
    3020:	46828293          	add	t0,t0,1128 # f484 <zeroes.0>
    3024:	23a750e3          	bge	a4,s10,3a44 <_vfprintf_r+0x1c9c>
    3028:	00048713          	mv	a4,s1
    302c:	01000c13          	li	s8,16
    3030:	00700b13          	li	s6,7
    3034:	000e8493          	mv	s1,t4
    3038:	00028a13          	mv	s4,t0
    303c:	00c0006f          	j	3048 <_vfprintf_r+0x12a0>
    3040:	ff0d0d13          	add	s10,s10,-16
    3044:	1fac5ae3          	bge	s8,s10,3a38 <_vfprintf_r+0x1c90>
    3048:	01070713          	add	a4,a4,16
    304c:	00178793          	add	a5,a5,1
    3050:	01442023          	sw	s4,0(s0)
    3054:	01842223          	sw	s8,4(s0)
    3058:	0ae12423          	sw	a4,168(sp)
    305c:	0af12223          	sw	a5,164(sp)
    3060:	00840413          	add	s0,s0,8
    3064:	fcfb5ee3          	bge	s6,a5,3040 <_vfprintf_r+0x1298>
    3068:	00812583          	lw	a1,8(sp)
    306c:	0a010613          	add	a2,sp,160
    3070:	00098513          	mv	a0,s3
    3074:	3f1010ef          	jal	4c64 <__sprint_r>
    3078:	a0051063          	bnez	a0,2278 <_vfprintf_r+0x4d0>
    307c:	0a812703          	lw	a4,168(sp)
    3080:	0a412783          	lw	a5,164(sp)
    3084:	0ac10413          	add	s0,sp,172
    3088:	fb9ff06f          	j	3040 <_vfprintf_r+0x1298>
    308c:	001ef613          	and	a2,t4,1
    3090:	ce061063          	bnez	a2,2570 <_vfprintf_r+0x7c8>
    3094:	00d42223          	sw	a3,4(s0)
    3098:	0a912423          	sw	s1,168(sp)
    309c:	0ba12223          	sw	s10,164(sp)
    30a0:	00700793          	li	a5,7
    30a4:	d7a7d863          	bge	a5,s10,2614 <_vfprintf_r+0x86c>
    30a8:	00812583          	lw	a1,8(sp)
    30ac:	0a010613          	add	a2,sp,160
    30b0:	00098513          	mv	a0,s3
    30b4:	03d12023          	sw	t4,32(sp)
    30b8:	3ad010ef          	jal	4c64 <__sprint_r>
    30bc:	9a051e63          	bnez	a0,2278 <_vfprintf_r+0x4d0>
    30c0:	0a812483          	lw	s1,168(sp)
    30c4:	0a412d03          	lw	s10,164(sp)
    30c8:	02012e83          	lw	t4,32(sp)
    30cc:	0ac10b13          	add	s6,sp,172
    30d0:	d44ff06f          	j	2614 <_vfprintf_r+0x86c>
    30d4:	01812703          	lw	a4,24(sp)
    30d8:	00100793          	li	a5,1
    30dc:	d2e7dc63          	bge	a5,a4,2614 <_vfprintf_r+0x86c>
    30e0:	01100793          	li	a5,17
    30e4:	0000c297          	auipc	t0,0xc
    30e8:	3a028293          	add	t0,t0,928 # f484 <zeroes.0>
    30ec:	18e7d4e3          	bge	a5,a4,3a74 <_vfprintf_r+0x1ccc>
    30f0:	00040a13          	mv	s4,s0
    30f4:	01000793          	li	a5,16
    30f8:	00700c13          	li	s8,7
    30fc:	03d12023          	sw	t4,32(sp)
    3100:	00028413          	mv	s0,t0
    3104:	00c0006f          	j	3110 <_vfprintf_r+0x1368>
    3108:	ff0a0a13          	add	s4,s4,-16
    310c:	1547dee3          	bge	a5,s4,3a68 <_vfprintf_r+0x1cc0>
    3110:	01048493          	add	s1,s1,16
    3114:	001d0d13          	add	s10,s10,1
    3118:	008b2023          	sw	s0,0(s6)
    311c:	00fb2223          	sw	a5,4(s6)
    3120:	0a912423          	sw	s1,168(sp)
    3124:	0ba12223          	sw	s10,164(sp)
    3128:	008b0b13          	add	s6,s6,8
    312c:	fdac5ee3          	bge	s8,s10,3108 <_vfprintf_r+0x1360>
    3130:	00812583          	lw	a1,8(sp)
    3134:	0a010613          	add	a2,sp,160
    3138:	00098513          	mv	a0,s3
    313c:	329010ef          	jal	4c64 <__sprint_r>
    3140:	92051c63          	bnez	a0,2278 <_vfprintf_r+0x4d0>
    3144:	0a812483          	lw	s1,168(sp)
    3148:	0a412d03          	lw	s10,164(sp)
    314c:	0ac10b13          	add	s6,sp,172
    3150:	01000793          	li	a5,16
    3154:	fb5ff06f          	j	3108 <_vfprintf_r+0x1360>
    3158:	01412703          	lw	a4,20(sp)
    315c:	010ef793          	and	a5,t4,16
    3160:	00072d03          	lw	s10,0(a4)
    3164:	00470713          	add	a4,a4,4
    3168:	00e12a23          	sw	a4,20(sp)
    316c:	1a079663          	bnez	a5,3318 <_vfprintf_r+0x1570>
    3170:	040ef793          	and	a5,t4,64
    3174:	18078e63          	beqz	a5,3310 <_vfprintf_r+0x1568>
    3178:	010d1d13          	sll	s10,s10,0x10
    317c:	010d5d13          	srl	s10,s10,0x10
    3180:	00000c93          	li	s9,0
    3184:	80dff06f          	j	2990 <_vfprintf_r+0xbe8>
    3188:	01412703          	lw	a4,20(sp)
    318c:	01067793          	and	a5,a2,16
    3190:	00072d03          	lw	s10,0(a4)
    3194:	00470713          	add	a4,a4,4
    3198:	00e12a23          	sw	a4,20(sp)
    319c:	14079a63          	bnez	a5,32f0 <_vfprintf_r+0x1548>
    31a0:	04067793          	and	a5,a2,64
    31a4:	14078063          	beqz	a5,32e4 <_vfprintf_r+0x153c>
    31a8:	010d1d13          	sll	s10,s10,0x10
    31ac:	010d5d13          	srl	s10,s10,0x10
    31b0:	00000c93          	li	s9,0
    31b4:	00100793          	li	a5,1
    31b8:	e34ff06f          	j	27ec <_vfprintf_r+0xa44>
    31bc:	01412703          	lw	a4,20(sp)
    31c0:	010ef793          	and	a5,t4,16
    31c4:	00072d03          	lw	s10,0(a4)
    31c8:	00470713          	add	a4,a4,4
    31cc:	00e12a23          	sw	a4,20(sp)
    31d0:	12079a63          	bnez	a5,3304 <_vfprintf_r+0x155c>
    31d4:	040ef793          	and	a5,t4,64
    31d8:	12078263          	beqz	a5,32fc <_vfprintf_r+0x1554>
    31dc:	010d1d13          	sll	s10,s10,0x10
    31e0:	410d5d13          	sra	s10,s10,0x10
    31e4:	41fd5c93          	sra	s9,s10,0x1f
    31e8:	000c8793          	mv	a5,s9
    31ec:	f207d663          	bgez	a5,2918 <_vfprintf_r+0xb70>
    31f0:	01a037b3          	snez	a5,s10
    31f4:	419000b3          	neg	ra,s9
    31f8:	40f08cb3          	sub	s9,ra,a5
    31fc:	41a00d33          	neg	s10,s10
    3200:	000e8613          	mv	a2,t4
    3204:	02d00713          	li	a4,45
    3208:	00100793          	li	a5,1
    320c:	de4ff06f          	j	27f0 <_vfprintf_r+0xa48>
    3210:	00812403          	lw	s0,8(sp)
    3214:	00f12623          	sw	a5,12(sp)
    3218:	05842503          	lw	a0,88(s0)
    321c:	c31fd0ef          	jal	e4c <__retarget_lock_acquire_recursive>
    3220:	00c41703          	lh	a4,12(s0)
    3224:	00c12783          	lw	a5,12(sp)
    3228:	c01fe06f          	j	1e28 <_vfprintf_r+0x80>
    322c:	001ef793          	and	a5,t4,1
    3230:	00079463          	bnez	a5,3238 <_vfprintf_r+0x1490>
    3234:	e7dfe06f          	j	20b0 <_vfprintf_r+0x308>
    3238:	85dff06f          	j	2a94 <_vfprintf_r+0xcec>
    323c:	000a0e93          	mv	t4,s4
    3240:	000b0313          	mv	t1,s6
    3244:	ea8ff06f          	j	28ec <_vfprintf_r+0xb44>
    3248:	00094e03          	lbu	t3,0(s2)
    324c:	00f12a23          	sw	a5,20(sp)
    3250:	d09fe06f          	j	1f58 <_vfprintf_r+0x1b0>
    3254:	0a412703          	lw	a4,164(sp)
    3258:	0000c617          	auipc	a2,0xc
    325c:	d7460613          	add	a2,a2,-652 # efcc <__fini_array_end+0x1d4>
    3260:	00c42023          	sw	a2,0(s0)
    3264:	00148493          	add	s1,s1,1
    3268:	00100613          	li	a2,1
    326c:	00170713          	add	a4,a4,1
    3270:	00c42223          	sw	a2,4(s0)
    3274:	0a912423          	sw	s1,168(sp)
    3278:	0ae12223          	sw	a4,164(sp)
    327c:	00700613          	li	a2,7
    3280:	00840413          	add	s0,s0,8
    3284:	2ee64ce3          	blt	a2,a4,3d7c <_vfprintf_r+0x1fd4>
    3288:	7e069e63          	bnez	a3,3a84 <_vfprintf_r+0x1cdc>
    328c:	01812783          	lw	a5,24(sp)
    3290:	001ef713          	and	a4,t4,1
    3294:	00f76733          	or	a4,a4,a5
    3298:	00071463          	bnez	a4,32a0 <_vfprintf_r+0x14f8>
    329c:	e15fe06f          	j	20b0 <_vfprintf_r+0x308>
    32a0:	03412703          	lw	a4,52(sp)
    32a4:	03012783          	lw	a5,48(sp)
    32a8:	00700693          	li	a3,7
    32ac:	00e42023          	sw	a4,0(s0)
    32b0:	0a412703          	lw	a4,164(sp)
    32b4:	009784b3          	add	s1,a5,s1
    32b8:	00f42223          	sw	a5,4(s0)
    32bc:	00170713          	add	a4,a4,1
    32c0:	0a912423          	sw	s1,168(sp)
    32c4:	0ae12223          	sw	a4,164(sp)
    32c8:	38e6c8e3          	blt	a3,a4,3e58 <_vfprintf_r+0x20b0>
    32cc:	00840413          	add	s0,s0,8
    32d0:	7e80006f          	j	3ab8 <_vfprintf_r+0x1d10>
    32d4:	03000793          	li	a5,48
    32d8:	14f107a3          	sb	a5,335(sp)
    32dc:	14f10c13          	add	s8,sp,335
    32e0:	d38ff06f          	j	2818 <_vfprintf_r+0xa70>
    32e4:	20067793          	and	a5,a2,512
    32e8:	00078463          	beqz	a5,32f0 <_vfprintf_r+0x1548>
    32ec:	0ffd7d13          	zext.b	s10,s10
    32f0:	00000c93          	li	s9,0
    32f4:	00100793          	li	a5,1
    32f8:	cf4ff06f          	j	27ec <_vfprintf_r+0xa44>
    32fc:	200ef793          	and	a5,t4,512
    3300:	2c0796e3          	bnez	a5,3dcc <_vfprintf_r+0x2024>
    3304:	41fd5c93          	sra	s9,s10,0x1f
    3308:	000c8793          	mv	a5,s9
    330c:	e08ff06f          	j	2914 <_vfprintf_r+0xb6c>
    3310:	200ef793          	and	a5,t4,512
    3314:	2a0790e3          	bnez	a5,3db4 <_vfprintf_r+0x200c>
    3318:	00000c93          	li	s9,0
    331c:	e74ff06f          	j	2990 <_vfprintf_r+0xbe8>
    3320:	01412783          	lw	a5,20(sp)
    3324:	06010513          	add	a0,sp,96
    3328:	03612223          	sw	s6,36(sp)
    332c:	0007a703          	lw	a4,0(a5)
    3330:	03c12023          	sw	t3,32(sp)
    3334:	00478b13          	add	s6,a5,4
    3338:	00072683          	lw	a3,0(a4)
    333c:	01412823          	sw	s4,16(sp)
    3340:	06d12023          	sw	a3,96(sp)
    3344:	00472683          	lw	a3,4(a4)
    3348:	06d12223          	sw	a3,100(sp)
    334c:	00872683          	lw	a3,8(a4)
    3350:	06d12423          	sw	a3,104(sp)
    3354:	00c72703          	lw	a4,12(a4)
    3358:	06e12623          	sw	a4,108(sp)
    335c:	4c80b0ef          	jal	e824 <__trunctfdf2>
    3360:	02012e03          	lw	t3,32(sp)
    3364:	02412303          	lw	t1,36(sp)
    3368:	02a12423          	sw	a0,40(sp)
    336c:	02b12623          	sw	a1,44(sp)
    3370:	01612a23          	sw	s6,20(sp)
    3374:	000a0e93          	mv	t4,s4
    3378:	fb1fe06f          	j	2328 <_vfprintf_r+0x580>
    337c:	010a7793          	and	a5,s4,16
    3380:	6c079a63          	bnez	a5,3a54 <_vfprintf_r+0x1cac>
    3384:	040a7793          	and	a5,s4,64
    3388:	24079ce3          	bnez	a5,3de0 <_vfprintf_r+0x2038>
    338c:	200a7f13          	and	t5,s4,512
    3390:	6c0f0263          	beqz	t5,3a54 <_vfprintf_r+0x1cac>
    3394:	01412783          	lw	a5,20(sp)
    3398:	00c12703          	lw	a4,12(sp)
    339c:	0007a783          	lw	a5,0(a5)
    33a0:	00e78023          	sb	a4,0(a5)
    33a4:	e6cff06f          	j	2a10 <_vfprintf_r+0xc68>
    33a8:	03c12783          	lw	a5,60(sp)
    33ac:	00094e03          	lbu	t3,0(s2)
    33b0:	00079463          	bnez	a5,33b8 <_vfprintf_r+0x1610>
    33b4:	ba5fe06f          	j	1f58 <_vfprintf_r+0x1b0>
    33b8:	0007c783          	lbu	a5,0(a5)
    33bc:	00079463          	bnez	a5,33c4 <_vfprintf_r+0x161c>
    33c0:	b99fe06f          	j	1f58 <_vfprintf_r+0x1b0>
    33c4:	400a6a13          	or	s4,s4,1024
    33c8:	b91fe06f          	j	1f58 <_vfprintf_r+0x1b0>
    33cc:	fff00b13          	li	s6,-1
    33d0:	00068913          	mv	s2,a3
    33d4:	b89fe06f          	j	1f5c <_vfprintf_r+0x1b4>
    33d8:	0000c797          	auipc	a5,0xc
    33dc:	bd878793          	add	a5,a5,-1064 # efb0 <__fini_array_end+0x1b8>
    33e0:	000a0e93          	mv	t4,s4
    33e4:	000b0313          	mv	t1,s6
    33e8:	02f12c23          	sw	a5,56(sp)
    33ec:	020ef793          	and	a5,t4,32
    33f0:	1c078263          	beqz	a5,35b4 <_vfprintf_r+0x180c>
    33f4:	01412783          	lw	a5,20(sp)
    33f8:	00778b13          	add	s6,a5,7
    33fc:	ff8b7b13          	and	s6,s6,-8
    3400:	000b2d03          	lw	s10,0(s6)
    3404:	004b2c83          	lw	s9,4(s6)
    3408:	008b0793          	add	a5,s6,8
    340c:	00f12a23          	sw	a5,20(sp)
    3410:	001ef793          	and	a5,t4,1
    3414:	00078e63          	beqz	a5,3430 <_vfprintf_r+0x1688>
    3418:	019d67b3          	or	a5,s10,s9
    341c:	00078a63          	beqz	a5,3430 <_vfprintf_r+0x1688>
    3420:	03000793          	li	a5,48
    3424:	06f10c23          	sb	a5,120(sp)
    3428:	07c10ca3          	sb	t3,121(sp)
    342c:	002eee93          	or	t4,t4,2
    3430:	bffef613          	and	a2,t4,-1025
    3434:	00200793          	li	a5,2
    3438:	bb4ff06f          	j	27ec <_vfprintf_r+0xa44>
    343c:	000b0313          	mv	t1,s6
    3440:	000a0613          	mv	a2,s4
    3444:	b80ff06f          	j	27c4 <_vfprintf_r+0xa1c>
    3448:	000a0e93          	mv	t4,s4
    344c:	000b0313          	mv	t1,s6
    3450:	d1cff06f          	j	296c <_vfprintf_r+0xbc4>
    3454:	0000c797          	auipc	a5,0xc
    3458:	b4878793          	add	a5,a5,-1208 # ef9c <__fini_array_end+0x1a4>
    345c:	000a0e93          	mv	t4,s4
    3460:	000b0313          	mv	t1,s6
    3464:	02f12c23          	sw	a5,56(sp)
    3468:	f85ff06f          	j	33ec <_vfprintf_r+0x1644>
    346c:	00194e03          	lbu	t3,1(s2)
    3470:	020a6a13          	or	s4,s4,32
    3474:	00190913          	add	s2,s2,1
    3478:	ae1fe06f          	j	1f58 <_vfprintf_r+0x1b0>
    347c:	00194e03          	lbu	t3,1(s2)
    3480:	200a6a13          	or	s4,s4,512
    3484:	00190913          	add	s2,s2,1
    3488:	ad1fe06f          	j	1f58 <_vfprintf_r+0x1b0>
    348c:	00812583          	lw	a1,8(sp)
    3490:	0a010613          	add	a2,sp,160
    3494:	00098513          	mv	a0,s3
    3498:	03d12023          	sw	t4,32(sp)
    349c:	7c8010ef          	jal	4c64 <__sprint_r>
    34a0:	00050463          	beqz	a0,34a8 <_vfprintf_r+0x1700>
    34a4:	dd5fe06f          	j	2278 <_vfprintf_r+0x4d0>
    34a8:	0a812483          	lw	s1,168(sp)
    34ac:	02012e83          	lw	t4,32(sp)
    34b0:	0ac10413          	add	s0,sp,172
    34b4:	e10ff06f          	j	2ac4 <_vfprintf_r+0xd1c>
    34b8:	00600793          	li	a5,6
    34bc:	00030c93          	mv	s9,t1
    34c0:	0e67e6e3          	bltu	a5,t1,3dac <_vfprintf_r+0x2004>
    34c4:	01612a23          	sw	s6,20(sp)
    34c8:	00012823          	sw	zero,16(sp)
    34cc:	000c8d13          	mv	s10,s9
    34d0:	00000613          	li	a2,0
    34d4:	00000313          	li	t1,0
    34d8:	02012223          	sw	zero,36(sp)
    34dc:	02012023          	sw	zero,32(sp)
    34e0:	00000a13          	li	s4,0
    34e4:	0000cc17          	auipc	s8,0xc
    34e8:	ae0c0c13          	add	s8,s8,-1312 # efc4 <__fini_array_end+0x1cc>
    34ec:	afdfe06f          	j	1fe8 <_vfprintf_r+0x240>
    34f0:	00800613          	li	a2,8
    34f4:	00000593          	li	a1,0
    34f8:	09810513          	add	a0,sp,152
    34fc:	03c12023          	sw	t3,32(sp)
    3500:	01d12823          	sw	t4,16(sp)
    3504:	951fd0ef          	jal	e54 <memset>
    3508:	01412783          	lw	a5,20(sp)
    350c:	0ec10c13          	add	s8,sp,236
    3510:	09810693          	add	a3,sp,152
    3514:	0007a603          	lw	a2,0(a5)
    3518:	000c0593          	mv	a1,s8
    351c:	00098513          	mv	a0,s3
    3520:	530070ef          	jal	aa50 <_wcrtomb_r>
    3524:	fff00793          	li	a5,-1
    3528:	01012e83          	lw	t4,16(sp)
    352c:	02012e03          	lw	t3,32(sp)
    3530:	00050d13          	mv	s10,a0
    3534:	00f51463          	bne	a0,a5,353c <_vfprintf_r+0x1794>
    3538:	4980106f          	j	49d0 <_vfprintf_r+0x2c28>
    353c:	fff54813          	not	a6,a0
    3540:	41f85813          	sra	a6,a6,0x1f
    3544:	01057cb3          	and	s9,a0,a6
    3548:	97cff06f          	j	26c4 <_vfprintf_r+0x91c>
    354c:	03412703          	lw	a4,52(sp)
    3550:	03012783          	lw	a5,48(sp)
    3554:	00700693          	li	a3,7
    3558:	00e42023          	sw	a4,0(s0)
    355c:	0a412703          	lw	a4,164(sp)
    3560:	00f484b3          	add	s1,s1,a5
    3564:	00f42223          	sw	a5,4(s0)
    3568:	00170713          	add	a4,a4,1
    356c:	0a912423          	sw	s1,168(sp)
    3570:	0ae12223          	sw	a4,164(sp)
    3574:	00840413          	add	s0,s0,8
    3578:	a4e6d0e3          	bge	a3,a4,2fb8 <_vfprintf_r+0x1210>
    357c:	00812583          	lw	a1,8(sp)
    3580:	0a010613          	add	a2,sp,160
    3584:	00098513          	mv	a0,s3
    3588:	02612223          	sw	t1,36(sp)
    358c:	03d12023          	sw	t4,32(sp)
    3590:	6d4010ef          	jal	4c64 <__sprint_r>
    3594:	00050463          	beqz	a0,359c <_vfprintf_r+0x17f4>
    3598:	ce1fe06f          	j	2278 <_vfprintf_r+0x4d0>
    359c:	07c12d03          	lw	s10,124(sp)
    35a0:	0a812483          	lw	s1,168(sp)
    35a4:	02412303          	lw	t1,36(sp)
    35a8:	02012e83          	lw	t4,32(sp)
    35ac:	0ac10413          	add	s0,sp,172
    35b0:	a09ff06f          	j	2fb8 <_vfprintf_r+0x1210>
    35b4:	01412703          	lw	a4,20(sp)
    35b8:	010ef793          	and	a5,t4,16
    35bc:	00072d03          	lw	s10,0(a4)
    35c0:	00470713          	add	a4,a4,4
    35c4:	00e12a23          	sw	a4,20(sp)
    35c8:	08079863          	bnez	a5,3658 <_vfprintf_r+0x18b0>
    35cc:	040ef793          	and	a5,t4,64
    35d0:	08078063          	beqz	a5,3650 <_vfprintf_r+0x18a8>
    35d4:	010d1d13          	sll	s10,s10,0x10
    35d8:	010d5d13          	srl	s10,s10,0x10
    35dc:	00000c93          	li	s9,0
    35e0:	e31ff06f          	j	3410 <_vfprintf_r+0x1668>
    35e4:	00000d13          	li	s10,0
    35e8:	15010c13          	add	s8,sp,336
    35ec:	a2cff06f          	j	2818 <_vfprintf_r+0xa70>
    35f0:	00812583          	lw	a1,8(sp)
    35f4:	0a010613          	add	a2,sp,160
    35f8:	00098513          	mv	a0,s3
    35fc:	03d12023          	sw	t4,32(sp)
    3600:	664010ef          	jal	4c64 <__sprint_r>
    3604:	00050463          	beqz	a0,360c <_vfprintf_r+0x1864>
    3608:	c71fe06f          	j	2278 <_vfprintf_r+0x4d0>
    360c:	0a812483          	lw	s1,168(sp)
    3610:	0a412d03          	lw	s10,164(sp)
    3614:	02012e83          	lw	t4,32(sp)
    3618:	0ac10b13          	add	s6,sp,172
    361c:	f71fe06f          	j	258c <_vfprintf_r+0x7e4>
    3620:	00812583          	lw	a1,8(sp)
    3624:	0a010613          	add	a2,sp,160
    3628:	00098513          	mv	a0,s3
    362c:	03d12023          	sw	t4,32(sp)
    3630:	634010ef          	jal	4c64 <__sprint_r>
    3634:	00050463          	beqz	a0,363c <_vfprintf_r+0x1894>
    3638:	c41fe06f          	j	2278 <_vfprintf_r+0x4d0>
    363c:	0a812483          	lw	s1,168(sp)
    3640:	0a412d03          	lw	s10,164(sp)
    3644:	02012e83          	lw	t4,32(sp)
    3648:	0ac10b13          	add	s6,sp,172
    364c:	f71fe06f          	j	25bc <_vfprintf_r+0x814>
    3650:	200ef793          	and	a5,t4,512
    3654:	76079663          	bnez	a5,3dc0 <_vfprintf_r+0x2018>
    3658:	00000c93          	li	s9,0
    365c:	db5ff06f          	j	3410 <_vfprintf_r+0x1668>
    3660:	00000793          	li	a5,0
    3664:	15010b13          	add	s6,sp,336
    3668:	01212823          	sw	s2,16(sp)
    366c:	00078913          	mv	s2,a5
    3670:	00098793          	mv	a5,s3
    3674:	04812823          	sw	s0,80(sp)
    3678:	000b0993          	mv	s3,s6
    367c:	03c12403          	lw	s0,60(sp)
    3680:	40067493          	and	s1,a2,1024
    3684:	0ff00a13          	li	s4,255
    3688:	03c12023          	sw	t3,32(sp)
    368c:	02c12223          	sw	a2,36(sp)
    3690:	04612223          	sw	t1,68(sp)
    3694:	00078b13          	mv	s6,a5
    3698:	0280006f          	j	36c0 <_vfprintf_r+0x1918>
    369c:	00a00613          	li	a2,10
    36a0:	00000693          	li	a3,0
    36a4:	000d0513          	mv	a0,s10
    36a8:	000c8593          	mv	a1,s9
    36ac:	581070ef          	jal	b42c <__udivdi3>
    36b0:	6a0c8ee3          	beqz	s9,456c <_vfprintf_r+0x27c4>
    36b4:	00050d13          	mv	s10,a0
    36b8:	00058c93          	mv	s9,a1
    36bc:	000c0993          	mv	s3,s8
    36c0:	00a00613          	li	a2,10
    36c4:	00000693          	li	a3,0
    36c8:	000d0513          	mv	a0,s10
    36cc:	000c8593          	mv	a1,s9
    36d0:	408080ef          	jal	bad8 <__umoddi3>
    36d4:	03050513          	add	a0,a0,48
    36d8:	fea98fa3          	sb	a0,-1(s3)
    36dc:	fff98c13          	add	s8,s3,-1
    36e0:	00190913          	add	s2,s2,1
    36e4:	fa048ce3          	beqz	s1,369c <_vfprintf_r+0x18f4>
    36e8:	00044783          	lbu	a5,0(s0)
    36ec:	faf918e3          	bne	s2,a5,369c <_vfprintf_r+0x18f4>
    36f0:	fb4906e3          	beq	s2,s4,369c <_vfprintf_r+0x18f4>
    36f4:	560c9ae3          	bnez	s9,4468 <_vfprintf_r+0x26c0>
    36f8:	00900793          	li	a5,9
    36fc:	57a7e6e3          	bltu	a5,s10,4468 <_vfprintf_r+0x26c0>
    3700:	02412603          	lw	a2,36(sp)
    3704:	15010793          	add	a5,sp,336
    3708:	02812e23          	sw	s0,60(sp)
    370c:	01212c23          	sw	s2,24(sp)
    3710:	02012e03          	lw	t3,32(sp)
    3714:	01012903          	lw	s2,16(sp)
    3718:	04412303          	lw	t1,68(sp)
    371c:	05012403          	lw	s0,80(sp)
    3720:	000b0993          	mv	s3,s6
    3724:	41878d33          	sub	s10,a5,s8
    3728:	00060e93          	mv	t4,a2
    372c:	8ecff06f          	j	2818 <_vfprintf_r+0xa70>
    3730:	00812583          	lw	a1,8(sp)
    3734:	0a010613          	add	a2,sp,160
    3738:	00098513          	mv	a0,s3
    373c:	04612e23          	sw	t1,92(sp)
    3740:	05c12c23          	sw	t3,88(sp)
    3744:	05d12a23          	sw	t4,84(sp)
    3748:	05f12823          	sw	t6,80(sp)
    374c:	04512223          	sw	t0,68(sp)
    3750:	514010ef          	jal	4c64 <__sprint_r>
    3754:	00050463          	beqz	a0,375c <_vfprintf_r+0x19b4>
    3758:	b21fe06f          	j	2278 <_vfprintf_r+0x4d0>
    375c:	07714603          	lbu	a2,119(sp)
    3760:	0a812483          	lw	s1,168(sp)
    3764:	05c12303          	lw	t1,92(sp)
    3768:	05812e03          	lw	t3,88(sp)
    376c:	05412e83          	lw	t4,84(sp)
    3770:	05012f83          	lw	t6,80(sp)
    3774:	04412283          	lw	t0,68(sp)
    3778:	0ac10413          	add	s0,sp,172
    377c:	88dfe06f          	j	2008 <_vfprintf_r+0x260>
    3780:	02812883          	lw	a7,40(sp)
    3784:	02c12703          	lw	a4,44(sp)
    3788:	02612223          	sw	t1,36(sp)
    378c:	00088613          	mv	a2,a7
    3790:	00088513          	mv	a0,a7
    3794:	00070693          	mv	a3,a4
    3798:	00070593          	mv	a1,a4
    379c:	03c12023          	sw	t3,32(sp)
    37a0:	01d12823          	sw	t4,16(sp)
    37a4:	62d0a0ef          	jal	e5d0 <__unorddf2>
    37a8:	01012e83          	lw	t4,16(sp)
    37ac:	02012e03          	lw	t3,32(sp)
    37b0:	02412303          	lw	t1,36(sp)
    37b4:	00050463          	beqz	a0,37bc <_vfprintf_r+0x1a14>
    37b8:	0e00106f          	j	4898 <_vfprintf_r+0x2af0>
    37bc:	06100713          	li	a4,97
    37c0:	08ee0263          	beq	t3,a4,3844 <_vfprintf_r+0x1a9c>
    37c4:	04100713          	li	a4,65
    37c8:	05800793          	li	a5,88
    37cc:	06ee0e63          	beq	t3,a4,3848 <_vfprintf_r+0x1aa0>
    37d0:	fff00713          	li	a4,-1
    37d4:	00e31463          	bne	t1,a4,37dc <_vfprintf_r+0x1a34>
    37d8:	01c0106f          	j	47f4 <_vfprintf_r+0x2a4c>
    37dc:	fdfe7713          	and	a4,t3,-33
    37e0:	04700693          	li	a3,71
    37e4:	00012823          	sw	zero,16(sp)
    37e8:	00d71663          	bne	a4,a3,37f4 <_vfprintf_r+0x1a4c>
    37ec:	00031463          	bnez	t1,37f4 <_vfprintf_r+0x1a4c>
    37f0:	00100313          	li	t1,1
    37f4:	100ee793          	or	a5,t4,256
    37f8:	00078b13          	mv	s6,a5
    37fc:	02c12783          	lw	a5,44(sp)
    3800:	04012223          	sw	zero,68(sp)
    3804:	00078493          	mv	s1,a5
    3808:	0007da63          	bgez	a5,381c <_vfprintf_r+0x1a74>
    380c:	800004b7          	lui	s1,0x80000
    3810:	00f4c4b3          	xor	s1,s1,a5
    3814:	02d00793          	li	a5,45
    3818:	04f12223          	sw	a5,68(sp)
    381c:	fbfe0713          	add	a4,t3,-65
    3820:	02500693          	li	a3,37
    3824:	3ae6e463          	bltu	a3,a4,3bcc <_vfprintf_r+0x1e24>
    3828:	0000c697          	auipc	a3,0xc
    382c:	bc468693          	add	a3,a3,-1084 # f3ec <_ctype_+0x270>
    3830:	00271713          	sll	a4,a4,0x2
    3834:	00d70733          	add	a4,a4,a3
    3838:	00072703          	lw	a4,0(a4)
    383c:	00d70733          	add	a4,a4,a3
    3840:	00070067          	jr	a4
    3844:	07800793          	li	a5,120
    3848:	03000713          	li	a4,48
    384c:	06e10c23          	sb	a4,120(sp)
    3850:	06f10ca3          	sb	a5,121(sp)
    3854:	06300713          	li	a4,99
    3858:	00012823          	sw	zero,16(sp)
    385c:	002eee93          	or	t4,t4,2
    3860:	0ec10c13          	add	s8,sp,236
    3864:	f86758e3          	bge	a4,t1,37f4 <_vfprintf_r+0x1a4c>
    3868:	00130593          	add	a1,t1,1
    386c:	00098513          	mv	a0,s3
    3870:	03c12023          	sw	t3,32(sp)
    3874:	01d12c23          	sw	t4,24(sp)
    3878:	00612823          	sw	t1,16(sp)
    387c:	d35fd0ef          	jal	15b0 <_malloc_r>
    3880:	01012303          	lw	t1,16(sp)
    3884:	01812e83          	lw	t4,24(sp)
    3888:	02012e03          	lw	t3,32(sp)
    388c:	00050c13          	mv	s8,a0
    3890:	00051463          	bnez	a0,3898 <_vfprintf_r+0x1af0>
    3894:	13c0106f          	j	49d0 <_vfprintf_r+0x2c28>
    3898:	00a12823          	sw	a0,16(sp)
    389c:	f59ff06f          	j	37f4 <_vfprintf_r+0x1a4c>
    38a0:	00098513          	mv	a0,s3
    38a4:	1d0030ef          	jal	6a74 <__sinit>
    38a8:	00c12783          	lw	a5,12(sp)
    38ac:	d5cfe06f          	j	1e08 <_vfprintf_r+0x60>
    38b0:	00812583          	lw	a1,8(sp)
    38b4:	0a010613          	add	a2,sp,160
    38b8:	00098513          	mv	a0,s3
    38bc:	03d12023          	sw	t4,32(sp)
    38c0:	3a4010ef          	jal	4c64 <__sprint_r>
    38c4:	00050463          	beqz	a0,38cc <_vfprintf_r+0x1b24>
    38c8:	9b1fe06f          	j	2278 <_vfprintf_r+0x4d0>
    38cc:	0a812483          	lw	s1,168(sp)
    38d0:	02012e83          	lw	t4,32(sp)
    38d4:	0ac10413          	add	s0,sp,172
    38d8:	9b0ff06f          	j	2a88 <_vfprintf_r+0xce0>
    38dc:	00800613          	li	a2,8
    38e0:	00000593          	li	a1,0
    38e4:	09810513          	add	a0,sp,152
    38e8:	02612023          	sw	t1,32(sp)
    38ec:	01c12a23          	sw	t3,20(sp)
    38f0:	01d12823          	sw	t4,16(sp)
    38f4:	09812223          	sw	s8,132(sp)
    38f8:	d5cfd0ef          	jal	e54 <memset>
    38fc:	02012303          	lw	t1,32(sp)
    3900:	01012e83          	lw	t4,16(sp)
    3904:	01412e03          	lw	t3,20(sp)
    3908:	3a0340e3          	bltz	t1,44a8 <_vfprintf_r+0x2700>
    390c:	00000d13          	li	s10,0
    3910:	01212823          	sw	s2,16(sp)
    3914:	000c0c93          	mv	s9,s8
    3918:	fff00493          	li	s1,-1
    391c:	000b0c13          	mv	s8,s6
    3920:	000e8a13          	mv	s4,t4
    3924:	00040b13          	mv	s6,s0
    3928:	000d0913          	mv	s2,s10
    392c:	00030413          	mv	s0,t1
    3930:	0300006f          	j	3960 <_vfprintf_r+0x1bb8>
    3934:	09810693          	add	a3,sp,152
    3938:	0ec10593          	add	a1,sp,236
    393c:	00098513          	mv	a0,s3
    3940:	110070ef          	jal	aa50 <_wcrtomb_r>
    3944:	68950ae3          	beq	a0,s1,47d8 <_vfprintf_r+0x2a30>
    3948:	00a907b3          	add	a5,s2,a0
    394c:	02f44263          	blt	s0,a5,3970 <_vfprintf_r+0x1bc8>
    3950:	004d0d13          	add	s10,s10,4
    3954:	00879463          	bne	a5,s0,395c <_vfprintf_r+0x1bb4>
    3958:	7990006f          	j	48f0 <_vfprintf_r+0x2b48>
    395c:	00078913          	mv	s2,a5
    3960:	08412783          	lw	a5,132(sp)
    3964:	01a787b3          	add	a5,a5,s10
    3968:	0007a603          	lw	a2,0(a5)
    396c:	fc0614e3          	bnez	a2,3934 <_vfprintf_r+0x1b8c>
    3970:	00090d13          	mv	s10,s2
    3974:	01412e03          	lw	t3,20(sp)
    3978:	01012903          	lw	s2,16(sp)
    397c:	000b0413          	mv	s0,s6
    3980:	000a0e93          	mv	t4,s4
    3984:	000c0b13          	mv	s6,s8
    3988:	000c8c13          	mv	s8,s9
    398c:	340d0ce3          	beqz	s10,44e4 <_vfprintf_r+0x273c>
    3990:	06300793          	li	a5,99
    3994:	59a7dee3          	bge	a5,s10,4730 <_vfprintf_r+0x2988>
    3998:	001d0593          	add	a1,s10,1
    399c:	00098513          	mv	a0,s3
    39a0:	01c12a23          	sw	t3,20(sp)
    39a4:	01d12823          	sw	t4,16(sp)
    39a8:	c09fd0ef          	jal	15b0 <_malloc_r>
    39ac:	01012e83          	lw	t4,16(sp)
    39b0:	01412e03          	lw	t3,20(sp)
    39b4:	00050c13          	mv	s8,a0
    39b8:	620500e3          	beqz	a0,47d8 <_vfprintf_r+0x2a30>
    39bc:	00a12823          	sw	a0,16(sp)
    39c0:	00800613          	li	a2,8
    39c4:	00000593          	li	a1,0
    39c8:	09810513          	add	a0,sp,152
    39cc:	03c12023          	sw	t3,32(sp)
    39d0:	01d12a23          	sw	t4,20(sp)
    39d4:	c80fd0ef          	jal	e54 <memset>
    39d8:	09810713          	add	a4,sp,152
    39dc:	000d0693          	mv	a3,s10
    39e0:	08410613          	add	a2,sp,132
    39e4:	000c0593          	mv	a1,s8
    39e8:	00098513          	mv	a0,s3
    39ec:	0f0070ef          	jal	aadc <_wcsrtombs_r>
    39f0:	01412e83          	lw	t4,20(sp)
    39f4:	02012e03          	lw	t3,32(sp)
    39f8:	00ad0463          	beq	s10,a0,3a00 <_vfprintf_r+0x1c58>
    39fc:	0240106f          	j	4a20 <_vfprintf_r+0x2c78>
    3a00:	01ac0733          	add	a4,s8,s10
    3a04:	00070023          	sb	zero,0(a4)
    3a08:	07714603          	lbu	a2,119(sp)
    3a0c:	fffd4813          	not	a6,s10
    3a10:	41f85813          	sra	a6,a6,0x1f
    3a14:	01612a23          	sw	s6,20(sp)
    3a18:	02012223          	sw	zero,36(sp)
    3a1c:	02012023          	sw	zero,32(sp)
    3a20:	010d7cb3          	and	s9,s10,a6
    3a24:	00000313          	li	t1,0
    3a28:	00000a13          	li	s4,0
    3a2c:	00061463          	bnez	a2,3a34 <_vfprintf_r+0x1c8c>
    3a30:	db8fe06f          	j	1fe8 <_vfprintf_r+0x240>
    3a34:	9d5fe06f          	j	2408 <_vfprintf_r+0x660>
    3a38:	00048e93          	mv	t4,s1
    3a3c:	000a0293          	mv	t0,s4
    3a40:	00070493          	mv	s1,a4
    3a44:	01a484b3          	add	s1,s1,s10
    3a48:	00178793          	add	a5,a5,1
    3a4c:	00542023          	sw	t0,0(s0)
    3a50:	e48fe06f          	j	2098 <_vfprintf_r+0x2f0>
    3a54:	01412783          	lw	a5,20(sp)
    3a58:	00c12703          	lw	a4,12(sp)
    3a5c:	0007a783          	lw	a5,0(a5)
    3a60:	00e7a023          	sw	a4,0(a5)
    3a64:	fadfe06f          	j	2a10 <_vfprintf_r+0xc68>
    3a68:	02012e83          	lw	t4,32(sp)
    3a6c:	00040293          	mv	t0,s0
    3a70:	000a0413          	mv	s0,s4
    3a74:	008484b3          	add	s1,s1,s0
    3a78:	001d0d13          	add	s10,s10,1
    3a7c:	005b2023          	sw	t0,0(s6)
    3a80:	b7dfe06f          	j	25fc <_vfprintf_r+0x854>
    3a84:	03412703          	lw	a4,52(sp)
    3a88:	03012783          	lw	a5,48(sp)
    3a8c:	00700613          	li	a2,7
    3a90:	00e42023          	sw	a4,0(s0)
    3a94:	0a412703          	lw	a4,164(sp)
    3a98:	009784b3          	add	s1,a5,s1
    3a9c:	00f42223          	sw	a5,4(s0)
    3aa0:	00170713          	add	a4,a4,1
    3aa4:	0a912423          	sw	s1,168(sp)
    3aa8:	0ae12223          	sw	a4,164(sp)
    3aac:	00840413          	add	s0,s0,8
    3ab0:	3ae64463          	blt	a2,a4,3e58 <_vfprintf_r+0x20b0>
    3ab4:	3e06cee3          	bltz	a3,46b0 <_vfprintf_r+0x2908>
    3ab8:	01812783          	lw	a5,24(sp)
    3abc:	00170713          	add	a4,a4,1
    3ac0:	01842023          	sw	s8,0(s0)
    3ac4:	009784b3          	add	s1,a5,s1
    3ac8:	00f42223          	sw	a5,4(s0)
    3acc:	0a912423          	sw	s1,168(sp)
    3ad0:	0ae12223          	sw	a4,164(sp)
    3ad4:	00700793          	li	a5,7
    3ad8:	00e7c463          	blt	a5,a4,3ae0 <_vfprintf_r+0x1d38>
    3adc:	dd0fe06f          	j	20ac <_vfprintf_r+0x304>
    3ae0:	b61fe06f          	j	2640 <_vfprintf_r+0x898>
    3ae4:	01000613          	li	a2,16
    3ae8:	0a412683          	lw	a3,164(sp)
    3aec:	0000c297          	auipc	t0,0xc
    3af0:	99828293          	add	t0,t0,-1640 # f484 <zeroes.0>
    3af4:	09665463          	bge	a2,s6,3b7c <_vfprintf_r+0x1dd4>
    3af8:	00040793          	mv	a5,s0
    3afc:	00048713          	mv	a4,s1
    3b00:	00812403          	lw	s0,8(sp)
    3b04:	01000893          	li	a7,16
    3b08:	00700d13          	li	s10,7
    3b0c:	05d12223          	sw	t4,68(sp)
    3b10:	00028493          	mv	s1,t0
    3b14:	00c0006f          	j	3b20 <_vfprintf_r+0x1d78>
    3b18:	ff0b0b13          	add	s6,s6,-16
    3b1c:	0568d863          	bge	a7,s6,3b6c <_vfprintf_r+0x1dc4>
    3b20:	01070713          	add	a4,a4,16
    3b24:	00168693          	add	a3,a3,1
    3b28:	0097a023          	sw	s1,0(a5)
    3b2c:	0117a223          	sw	a7,4(a5)
    3b30:	0ae12423          	sw	a4,168(sp)
    3b34:	0ad12223          	sw	a3,164(sp)
    3b38:	00878793          	add	a5,a5,8
    3b3c:	fcdd5ee3          	bge	s10,a3,3b18 <_vfprintf_r+0x1d70>
    3b40:	0a010613          	add	a2,sp,160
    3b44:	00040593          	mv	a1,s0
    3b48:	00098513          	mv	a0,s3
    3b4c:	118010ef          	jal	4c64 <__sprint_r>
    3b50:	00050463          	beqz	a0,3b58 <_vfprintf_r+0x1db0>
    3b54:	f24fe06f          	j	2278 <_vfprintf_r+0x4d0>
    3b58:	0a812703          	lw	a4,168(sp)
    3b5c:	0a412683          	lw	a3,164(sp)
    3b60:	0ac10793          	add	a5,sp,172
    3b64:	01000893          	li	a7,16
    3b68:	fb1ff06f          	j	3b18 <_vfprintf_r+0x1d70>
    3b6c:	04412e83          	lw	t4,68(sp)
    3b70:	00048293          	mv	t0,s1
    3b74:	00078413          	mv	s0,a5
    3b78:	00070493          	mv	s1,a4
    3b7c:	016484b3          	add	s1,s1,s6
    3b80:	00168693          	add	a3,a3,1
    3b84:	00542023          	sw	t0,0(s0)
    3b88:	01642223          	sw	s6,4(s0)
    3b8c:	0a912423          	sw	s1,168(sp)
    3b90:	0ad12223          	sw	a3,164(sp)
    3b94:	00700713          	li	a4,7
    3b98:	00840413          	add	s0,s0,8
    3b9c:	bed75c63          	bge	a4,a3,2f94 <_vfprintf_r+0x11ec>
    3ba0:	00812583          	lw	a1,8(sp)
    3ba4:	0a010613          	add	a2,sp,160
    3ba8:	00098513          	mv	a0,s3
    3bac:	05d12223          	sw	t4,68(sp)
    3bb0:	0b4010ef          	jal	4c64 <__sprint_r>
    3bb4:	00050463          	beqz	a0,3bbc <_vfprintf_r+0x1e14>
    3bb8:	ec0fe06f          	j	2278 <_vfprintf_r+0x4d0>
    3bbc:	0a812483          	lw	s1,168(sp)
    3bc0:	04412e83          	lw	t4,68(sp)
    3bc4:	0ac10413          	add	s0,sp,172
    3bc8:	bccff06f          	j	2f94 <_vfprintf_r+0x11ec>
    3bcc:	02812703          	lw	a4,40(sp)
    3bd0:	09810893          	add	a7,sp,152
    3bd4:	08410813          	add	a6,sp,132
    3bd8:	00070513          	mv	a0,a4
    3bdc:	00050593          	mv	a1,a0
    3be0:	00030713          	mv	a4,t1
    3be4:	07c10793          	add	a5,sp,124
    3be8:	00200693          	li	a3,2
    3bec:	00048613          	mv	a2,s1
    3bf0:	00098513          	mv	a0,s3
    3bf4:	03c12223          	sw	t3,36(sp)
    3bf8:	03d12023          	sw	t4,32(sp)
    3bfc:	00612c23          	sw	t1,24(sp)
    3c00:	3a8040ef          	jal	7fa8 <_dtoa_r>
    3c04:	02012e83          	lw	t4,32(sp)
    3c08:	01812303          	lw	t1,24(sp)
    3c0c:	02412e03          	lw	t3,36(sp)
    3c10:	001ef713          	and	a4,t4,1
    3c14:	00050c13          	mv	s8,a0
    3c18:	1a0712e3          	bnez	a4,45bc <_vfprintf_r+0x2814>
    3c1c:	09812783          	lw	a5,152(sp)
    3c20:	07c12a03          	lw	s4,124(sp)
    3c24:	40a787b3          	sub	a5,a5,a0
    3c28:	00f12c23          	sw	a5,24(sp)
    3c2c:	ffd00713          	li	a4,-3
    3c30:	00ea4463          	blt	s4,a4,3c38 <_vfprintf_r+0x1e90>
    3c34:	5b435663          	bge	t1,s4,41e0 <_vfprintf_r+0x2438>
    3c38:	ffee0e13          	add	t3,t3,-2
    3c3c:	fffa0d13          	add	s10,s4,-1
    3c40:	07a12e23          	sw	s10,124(sp)
    3c44:	0ffe7693          	zext.b	a3,t3
    3c48:	00000613          	li	a2,0
    3c4c:	08d10423          	sb	a3,136(sp)
    3c50:	02b00693          	li	a3,43
    3c54:	000d5863          	bgez	s10,3c64 <_vfprintf_r+0x1ebc>
    3c58:	00100713          	li	a4,1
    3c5c:	41470d33          	sub	s10,a4,s4
    3c60:	02d00693          	li	a3,45
    3c64:	08d104a3          	sb	a3,137(sp)
    3c68:	00900693          	li	a3,9
    3c6c:	33a6d8e3          	bge	a3,s10,479c <_vfprintf_r+0x29f4>
    3c70:	000c0793          	mv	a5,s8
    3c74:	09f10493          	add	s1,sp,159
    3c78:	03212023          	sw	s2,32(sp)
    3c7c:	00040c13          	mv	s8,s0
    3c80:	06300a13          	li	s4,99
    3c84:	000d0413          	mv	s0,s10
    3c88:	03d12223          	sw	t4,36(sp)
    3c8c:	05c12023          	sw	t3,64(sp)
    3c90:	00048913          	mv	s2,s1
    3c94:	00098c93          	mv	s9,s3
    3c98:	00078d13          	mv	s10,a5
    3c9c:	00a00593          	li	a1,10
    3ca0:	00040513          	mv	a0,s0
    3ca4:	09c0b0ef          	jal	ed40 <__modsi3>
    3ca8:	03050713          	add	a4,a0,48
    3cac:	00090b13          	mv	s6,s2
    3cb0:	00040513          	mv	a0,s0
    3cb4:	feeb0fa3          	sb	a4,-1(s6)
    3cb8:	00a00593          	li	a1,10
    3cbc:	00040993          	mv	s3,s0
    3cc0:	7fd0a0ef          	jal	ecbc <__divsi3>
    3cc4:	fff90913          	add	s2,s2,-1
    3cc8:	00050413          	mv	s0,a0
    3ccc:	fd3a48e3          	blt	s4,s3,3c9c <_vfprintf_r+0x1ef4>
    3cd0:	000c8993          	mv	s3,s9
    3cd4:	03050713          	add	a4,a0,48
    3cd8:	00090c93          	mv	s9,s2
    3cdc:	ffeb0693          	add	a3,s6,-2
    3ce0:	feec8fa3          	sb	a4,-1(s9)
    3ce4:	000c0413          	mv	s0,s8
    3ce8:	02412e83          	lw	t4,36(sp)
    3cec:	04012e03          	lw	t3,64(sp)
    3cf0:	02012903          	lw	s2,32(sp)
    3cf4:	000d0c13          	mv	s8,s10
    3cf8:	4c96f6e3          	bgeu	a3,s1,49c4 <_vfprintf_r+0x2c1c>
    3cfc:	08a10713          	add	a4,sp,138
    3d00:	0006c783          	lbu	a5,0(a3)
    3d04:	00168693          	add	a3,a3,1
    3d08:	00170713          	add	a4,a4,1
    3d0c:	fef70fa3          	sb	a5,-1(a4)
    3d10:	fe9698e3          	bne	a3,s1,3d00 <_vfprintf_r+0x1f58>
    3d14:	15010793          	add	a5,sp,336
    3d18:	41678633          	sub	a2,a5,s6
    3d1c:	f5360793          	add	a5,a2,-173
    3d20:	04f12023          	sw	a5,64(sp)
    3d24:	01812783          	lw	a5,24(sp)
    3d28:	04012683          	lw	a3,64(sp)
    3d2c:	00100713          	li	a4,1
    3d30:	00d78d33          	add	s10,a5,a3
    3d34:	28f75ce3          	bge	a4,a5,47cc <_vfprintf_r+0x2a24>
    3d38:	03012783          	lw	a5,48(sp)
    3d3c:	00fd0d33          	add	s10,s10,a5
    3d40:	fffd4813          	not	a6,s10
    3d44:	bffeff13          	and	t5,t4,-1025
    3d48:	41f85813          	sra	a6,a6,0x1f
    3d4c:	100f6e93          	or	t4,t5,256
    3d50:	010d7cb3          	and	s9,s10,a6
    3d54:	02012223          	sw	zero,36(sp)
    3d58:	02012023          	sw	zero,32(sp)
    3d5c:	00000a13          	li	s4,0
    3d60:	04412783          	lw	a5,68(sp)
    3d64:	46079263          	bnez	a5,41c8 <_vfprintf_r+0x2420>
    3d68:	07714603          	lbu	a2,119(sp)
    3d6c:	00000313          	li	t1,0
    3d70:	00061463          	bnez	a2,3d78 <_vfprintf_r+0x1fd0>
    3d74:	a74fe06f          	j	1fe8 <_vfprintf_r+0x240>
    3d78:	e90fe06f          	j	2408 <_vfprintf_r+0x660>
    3d7c:	00812583          	lw	a1,8(sp)
    3d80:	0a010613          	add	a2,sp,160
    3d84:	00098513          	mv	a0,s3
    3d88:	03d12023          	sw	t4,32(sp)
    3d8c:	6d9000ef          	jal	4c64 <__sprint_r>
    3d90:	00050463          	beqz	a0,3d98 <_vfprintf_r+0x1ff0>
    3d94:	ce4fe06f          	j	2278 <_vfprintf_r+0x4d0>
    3d98:	07c12683          	lw	a3,124(sp)
    3d9c:	0a812483          	lw	s1,168(sp)
    3da0:	02012e83          	lw	t4,32(sp)
    3da4:	0ac10413          	add	s0,sp,172
    3da8:	ce0ff06f          	j	3288 <_vfprintf_r+0x14e0>
    3dac:	00600c93          	li	s9,6
    3db0:	f14ff06f          	j	34c4 <_vfprintf_r+0x171c>
    3db4:	0ffd7d13          	zext.b	s10,s10
    3db8:	00000c93          	li	s9,0
    3dbc:	bd5fe06f          	j	2990 <_vfprintf_r+0xbe8>
    3dc0:	0ffd7d13          	zext.b	s10,s10
    3dc4:	00000c93          	li	s9,0
    3dc8:	e48ff06f          	j	3410 <_vfprintf_r+0x1668>
    3dcc:	018d1d13          	sll	s10,s10,0x18
    3dd0:	418d5d13          	sra	s10,s10,0x18
    3dd4:	41fd5c93          	sra	s9,s10,0x1f
    3dd8:	000c8793          	mv	a5,s9
    3ddc:	b39fe06f          	j	2914 <_vfprintf_r+0xb6c>
    3de0:	01412783          	lw	a5,20(sp)
    3de4:	00c12703          	lw	a4,12(sp)
    3de8:	0007a783          	lw	a5,0(a5)
    3dec:	00e79023          	sh	a4,0(a5)
    3df0:	c21fe06f          	j	2a10 <_vfprintf_r+0xc68>
    3df4:	000c0513          	mv	a0,s8
    3df8:	05d12223          	sw	t4,68(sp)
    3dfc:	ad8fd0ef          	jal	10d4 <strlen>
    3e00:	07714603          	lbu	a2,119(sp)
    3e04:	fff54813          	not	a6,a0
    3e08:	41f85813          	sra	a6,a6,0x1f
    3e0c:	01612a23          	sw	s6,20(sp)
    3e10:	02012223          	sw	zero,36(sp)
    3e14:	02012023          	sw	zero,32(sp)
    3e18:	00012823          	sw	zero,16(sp)
    3e1c:	04412e83          	lw	t4,68(sp)
    3e20:	00050d13          	mv	s10,a0
    3e24:	01057cb3          	and	s9,a0,a6
    3e28:	00000313          	li	t1,0
    3e2c:	07300e13          	li	t3,115
    3e30:	00061463          	bnez	a2,3e38 <_vfprintf_r+0x2090>
    3e34:	9b4fe06f          	j	1fe8 <_vfprintf_r+0x240>
    3e38:	dd0fe06f          	j	2408 <_vfprintf_r+0x660>
    3e3c:	00812583          	lw	a1,8(sp)
    3e40:	0a010613          	add	a2,sp,160
    3e44:	00098513          	mv	a0,s3
    3e48:	61d000ef          	jal	4c64 <__sprint_r>
    3e4c:	00051463          	bnez	a0,3e54 <_vfprintf_r+0x20ac>
    3e50:	be8fe06f          	j	2238 <_vfprintf_r+0x490>
    3e54:	c38fe06f          	j	228c <_vfprintf_r+0x4e4>
    3e58:	00812583          	lw	a1,8(sp)
    3e5c:	0a010613          	add	a2,sp,160
    3e60:	00098513          	mv	a0,s3
    3e64:	03d12023          	sw	t4,32(sp)
    3e68:	5fd000ef          	jal	4c64 <__sprint_r>
    3e6c:	00050463          	beqz	a0,3e74 <_vfprintf_r+0x20cc>
    3e70:	c08fe06f          	j	2278 <_vfprintf_r+0x4d0>
    3e74:	07c12683          	lw	a3,124(sp)
    3e78:	0a812483          	lw	s1,168(sp)
    3e7c:	0a412703          	lw	a4,164(sp)
    3e80:	02012e83          	lw	t4,32(sp)
    3e84:	0ac10413          	add	s0,sp,172
    3e88:	c2dff06f          	j	3ab4 <_vfprintf_r+0x1d0c>
    3e8c:	05862503          	lw	a0,88(a2)
    3e90:	00f12623          	sw	a5,12(sp)
    3e94:	fbdfc0ef          	jal	e50 <__retarget_lock_release_recursive>
    3e98:	00c12783          	lw	a5,12(sp)
    3e9c:	ab8fe06f          	j	2154 <_vfprintf_r+0x3ac>
    3ea0:	00130a13          	add	s4,t1,1
    3ea4:	00200693          	li	a3,2
    3ea8:	02812703          	lw	a4,40(sp)
    3eac:	09810893          	add	a7,sp,152
    3eb0:	08410813          	add	a6,sp,132
    3eb4:	00070513          	mv	a0,a4
    3eb8:	00050593          	mv	a1,a0
    3ebc:	000a0713          	mv	a4,s4
    3ec0:	07c10793          	add	a5,sp,124
    3ec4:	00048613          	mv	a2,s1
    3ec8:	00098513          	mv	a0,s3
    3ecc:	02612223          	sw	t1,36(sp)
    3ed0:	03c12023          	sw	t3,32(sp)
    3ed4:	01d12c23          	sw	t4,24(sp)
    3ed8:	0d0040ef          	jal	7fa8 <_dtoa_r>
    3edc:	02012e03          	lw	t3,32(sp)
    3ee0:	04600693          	li	a3,70
    3ee4:	01812e83          	lw	t4,24(sp)
    3ee8:	fdfe7d13          	and	s10,t3,-33
    3eec:	02412303          	lw	t1,36(sp)
    3ef0:	00050c13          	mv	s8,a0
    3ef4:	01450733          	add	a4,a0,s4
    3ef8:	34dd14e3          	bne	s10,a3,4a40 <_vfprintf_r+0x2c98>
    3efc:	000c4603          	lbu	a2,0(s8)
    3f00:	03000693          	li	a3,48
    3f04:	6cd60263          	beq	a2,a3,45c8 <_vfprintf_r+0x2820>
    3f08:	07c12683          	lw	a3,124(sp)
    3f0c:	00d70733          	add	a4,a4,a3
    3f10:	02812683          	lw	a3,40(sp)
    3f14:	00048593          	mv	a1,s1
    3f18:	00000613          	li	a2,0
    3f1c:	00068513          	mv	a0,a3
    3f20:	00000693          	li	a3,0
    3f24:	04e12823          	sw	a4,80(sp)
    3f28:	02612223          	sw	t1,36(sp)
    3f2c:	03c12023          	sw	t3,32(sp)
    3f30:	01d12c23          	sw	t4,24(sp)
    3f34:	370090ef          	jal	d2a4 <__eqdf2>
    3f38:	01812e83          	lw	t4,24(sp)
    3f3c:	02012e03          	lw	t3,32(sp)
    3f40:	02412303          	lw	t1,36(sp)
    3f44:	05012703          	lw	a4,80(sp)
    3f48:	62050863          	beqz	a0,4578 <_vfprintf_r+0x27d0>
    3f4c:	09812783          	lw	a5,152(sp)
    3f50:	00e7fe63          	bgeu	a5,a4,3f6c <_vfprintf_r+0x21c4>
    3f54:	03000613          	li	a2,48
    3f58:	00178693          	add	a3,a5,1
    3f5c:	08d12c23          	sw	a3,152(sp)
    3f60:	00c78023          	sb	a2,0(a5)
    3f64:	09812783          	lw	a5,152(sp)
    3f68:	fee7e8e3          	bltu	a5,a4,3f58 <_vfprintf_r+0x21b0>
    3f6c:	07c12a03          	lw	s4,124(sp)
    3f70:	418787b3          	sub	a5,a5,s8
    3f74:	04700713          	li	a4,71
    3f78:	00f12c23          	sw	a5,24(sp)
    3f7c:	caed08e3          	beq	s10,a4,3c2c <_vfprintf_r+0x1e84>
    3f80:	04600713          	li	a4,70
    3f84:	68ed0863          	beq	s10,a4,4614 <_vfprintf_r+0x286c>
    3f88:	fffa0d13          	add	s10,s4,-1
    3f8c:	cb5ff06f          	j	3c40 <_vfprintf_r+0x1e98>
    3f90:	02812703          	lw	a4,40(sp)
    3f94:	07c10613          	add	a2,sp,124
    3f98:	00048593          	mv	a1,s1
    3f9c:	00070513          	mv	a0,a4
    3fa0:	02612223          	sw	t1,36(sp)
    3fa4:	03c12023          	sw	t3,32(sp)
    3fa8:	01d12c23          	sw	t4,24(sp)
    3fac:	4e9030ef          	jal	7c94 <frexp>
    3fb0:	7fffc717          	auipc	a4,0x7fffc
    3fb4:	6f870713          	add	a4,a4,1784 # 800006a8 <__global_locale+0x174>
    3fb8:	00072603          	lw	a2,0(a4)
    3fbc:	00472683          	lw	a3,4(a4)
    3fc0:	578090ef          	jal	d538 <__muldf3>
    3fc4:	00000613          	li	a2,0
    3fc8:	00000693          	li	a3,0
    3fcc:	00050a13          	mv	s4,a0
    3fd0:	00058d13          	mv	s10,a1
    3fd4:	2d0090ef          	jal	d2a4 <__eqdf2>
    3fd8:	01812e83          	lw	t4,24(sp)
    3fdc:	02012e03          	lw	t3,32(sp)
    3fe0:	02412303          	lw	t1,36(sp)
    3fe4:	00051663          	bnez	a0,3ff0 <_vfprintf_r+0x2248>
    3fe8:	00100713          	li	a4,1
    3fec:	06e12e23          	sw	a4,124(sp)
    3ff0:	0000b797          	auipc	a5,0xb
    3ff4:	fc078793          	add	a5,a5,-64 # efb0 <__fini_array_end+0x1b8>
    3ff8:	06100713          	li	a4,97
    3ffc:	02f12023          	sw	a5,32(sp)
    4000:	00ee1863          	bne	t3,a4,4010 <_vfprintf_r+0x2268>
    4004:	0000b797          	auipc	a5,0xb
    4008:	f9878793          	add	a5,a5,-104 # ef9c <__fini_array_end+0x1a4>
    400c:	02f12023          	sw	a5,32(sp)
    4010:	7fffc717          	auipc	a4,0x7fffc
    4014:	6a070713          	add	a4,a4,1696 # 800006b0 <__global_locale+0x17c>
    4018:	00072783          	lw	a5,0(a4)
    401c:	00472803          	lw	a6,4(a4)
    4020:	000c0493          	mv	s1,s8
    4024:	00f12c23          	sw	a5,24(sp)
    4028:	000d0793          	mv	a5,s10
    402c:	03212223          	sw	s2,36(sp)
    4030:	000c0d13          	mv	s10,s8
    4034:	02012903          	lw	s2,32(sp)
    4038:	00098c13          	mv	s8,s3
    403c:	01012e23          	sw	a6,28(sp)
    4040:	fff30b13          	add	s6,t1,-1
    4044:	fff00c93          	li	s9,-1
    4048:	05d12023          	sw	t4,64(sp)
    404c:	05c12823          	sw	t3,80(sp)
    4050:	04812a23          	sw	s0,84(sp)
    4054:	00078993          	mv	s3,a5
    4058:	01c0006f          	j	4074 <_vfprintf_r+0x22cc>
    405c:	00000613          	li	a2,0
    4060:	00000693          	li	a3,0
    4064:	fffb0413          	add	s0,s6,-1
    4068:	23c090ef          	jal	d2a4 <__eqdf2>
    406c:	0a0504e3          	beqz	a0,4914 <_vfprintf_r+0x2b6c>
    4070:	00040b13          	mv	s6,s0
    4074:	01812603          	lw	a2,24(sp)
    4078:	01c12683          	lw	a3,28(sp)
    407c:	000a0513          	mv	a0,s4
    4080:	00098593          	mv	a1,s3
    4084:	4b4090ef          	jal	d538 <__muldf3>
    4088:	00058a13          	mv	s4,a1
    408c:	00050993          	mv	s3,a0
    4090:	5940a0ef          	jal	e624 <__fixdfsi>
    4094:	00050413          	mv	s0,a0
    4098:	6100a0ef          	jal	e6a8 <__floatsidf>
    409c:	00050613          	mv	a2,a0
    40a0:	00058693          	mv	a3,a1
    40a4:	00098513          	mv	a0,s3
    40a8:	000a0593          	mv	a1,s4
    40ac:	41d090ef          	jal	dcc8 <__subdf3>
    40b0:	00890733          	add	a4,s2,s0
    40b4:	00074703          	lbu	a4,0(a4)
    40b8:	00048813          	mv	a6,s1
    40bc:	00050a13          	mv	s4,a0
    40c0:	00e48023          	sb	a4,0(s1) # 80000000 <_impure_data>
    40c4:	00058993          	mv	s3,a1
    40c8:	00148493          	add	s1,s1,1
    40cc:	f99b18e3          	bne	s6,s9,405c <_vfprintf_r+0x22b4>
    40d0:	7fffc697          	auipc	a3,0x7fffc
    40d4:	5e868693          	add	a3,a3,1512 # 800006b8 <__global_locale+0x184>
    40d8:	0006a303          	lw	t1,0(a3)
    40dc:	0046a383          	lw	t2,4(a3)
    40e0:	05012e03          	lw	t3,80(sp)
    40e4:	00030613          	mv	a2,t1
    40e8:	00038693          	mv	a3,t2
    40ec:	01012c23          	sw	a6,24(sp)
    40f0:	02412903          	lw	s2,36(sp)
    40f4:	000c0993          	mv	s3,s8
    40f8:	03c12223          	sw	t3,36(sp)
    40fc:	000d0c13          	mv	s8,s10
    4100:	00058d13          	mv	s10,a1
    4104:	22c090ef          	jal	d330 <__gedf2>
    4108:	7fffc797          	auipc	a5,0x7fffc
    410c:	5b078793          	add	a5,a5,1456 # 800006b8 <__global_locale+0x184>
    4110:	00040b13          	mv	s6,s0
    4114:	0007a303          	lw	t1,0(a5)
    4118:	05412403          	lw	s0,84(sp)
    411c:	0047a383          	lw	t2,4(a5)
    4120:	01812803          	lw	a6,24(sp)
    4124:	02412e03          	lw	t3,36(sp)
    4128:	04012e83          	lw	t4,64(sp)
    412c:	0aa05ce3          	blez	a0,49e4 <_vfprintf_r+0x2c3c>
    4130:	02012783          	lw	a5,32(sp)
    4134:	09012c23          	sw	a6,152(sp)
    4138:	fff4c603          	lbu	a2,-1(s1)
    413c:	00f7c583          	lbu	a1,15(a5)
    4140:	00048693          	mv	a3,s1
    4144:	02b61063          	bne	a2,a1,4164 <_vfprintf_r+0x23bc>
    4148:	03000513          	li	a0,48
    414c:	fea68fa3          	sb	a0,-1(a3)
    4150:	09812683          	lw	a3,152(sp)
    4154:	fff68793          	add	a5,a3,-1
    4158:	08f12c23          	sw	a5,152(sp)
    415c:	fff6c603          	lbu	a2,-1(a3)
    4160:	feb606e3          	beq	a2,a1,414c <_vfprintf_r+0x23a4>
    4164:	00160593          	add	a1,a2,1
    4168:	03900513          	li	a0,57
    416c:	0ff5f593          	zext.b	a1,a1
    4170:	04a60463          	beq	a2,a0,41b8 <_vfprintf_r+0x2410>
    4174:	feb68fa3          	sb	a1,-1(a3)
    4178:	00048793          	mv	a5,s1
    417c:	07c12a03          	lw	s4,124(sp)
    4180:	418787b3          	sub	a5,a5,s8
    4184:	06100613          	li	a2,97
    4188:	fffa0d13          	add	s10,s4,-1
    418c:	00f12c23          	sw	a5,24(sp)
    4190:	07a12e23          	sw	s10,124(sp)
    4194:	07000693          	li	a3,112
    4198:	00ce0663          	beq	t3,a2,41a4 <_vfprintf_r+0x23fc>
    419c:	05000693          	li	a3,80
    41a0:	04100e13          	li	t3,65
    41a4:	00100613          	li	a2,1
    41a8:	aa5ff06f          	j	3c4c <_vfprintf_r+0x1ea4>
    41ac:	00030a13          	mv	s4,t1
    41b0:	00300693          	li	a3,3
    41b4:	cf5ff06f          	j	3ea8 <_vfprintf_r+0x2100>
    41b8:	02012783          	lw	a5,32(sp)
    41bc:	00a7c583          	lbu	a1,10(a5)
    41c0:	feb68fa3          	sb	a1,-1(a3)
    41c4:	fb5ff06f          	j	4178 <_vfprintf_r+0x23d0>
    41c8:	02d00713          	li	a4,45
    41cc:	06e10ba3          	sb	a4,119(sp)
    41d0:	02d00613          	li	a2,45
    41d4:	00000313          	li	t1,0
    41d8:	001c8c93          	add	s9,s9,1
    41dc:	e0dfd06f          	j	1fe8 <_vfprintf_r+0x240>
    41e0:	01812783          	lw	a5,24(sp)
    41e4:	46fa4063          	blt	s4,a5,4644 <_vfprintf_r+0x289c>
    41e8:	001ef713          	and	a4,t4,1
    41ec:	000a0d13          	mv	s10,s4
    41f0:	00070663          	beqz	a4,41fc <_vfprintf_r+0x2454>
    41f4:	03012783          	lw	a5,48(sp)
    41f8:	00fa0d33          	add	s10,s4,a5
    41fc:	400eff13          	and	t5,t4,1024
    4200:	000f0463          	beqz	t5,4208 <_vfprintf_r+0x2460>
    4204:	5f404e63          	bgtz	s4,4800 <_vfprintf_r+0x2a58>
    4208:	fffd4813          	not	a6,s10
    420c:	41f85813          	sra	a6,a6,0x1f
    4210:	010d7cb3          	and	s9,s10,a6
    4214:	06700e13          	li	t3,103
    4218:	000b0e93          	mv	t4,s6
    421c:	02012223          	sw	zero,36(sp)
    4220:	02012023          	sw	zero,32(sp)
    4224:	b3dff06f          	j	3d60 <_vfprintf_r+0x1fb8>
    4228:	02d00793          	li	a5,45
    422c:	06f10ba3          	sb	a5,119(sp)
    4230:	02d00613          	li	a2,45
    4234:	998fe06f          	j	23cc <_vfprintf_r+0x624>
    4238:	01812783          	lw	a5,24(sp)
    423c:	02012a03          	lw	s4,32(sp)
    4240:	05212823          	sw	s2,80(sp)
    4244:	00fc07b3          	add	a5,s8,a5
    4248:	05712c23          	sw	s7,88(sp)
    424c:	05912e23          	sw	s9,92(sp)
    4250:	00040713          	mv	a4,s0
    4254:	04f12223          	sw	a5,68(sp)
    4258:	02412403          	lw	s0,36(sp)
    425c:	05d12a23          	sw	t4,84(sp)
    4260:	03812223          	sw	s8,36(sp)
    4264:	03c12b83          	lw	s7,60(sp)
    4268:	04c12c83          	lw	s9,76(sp)
    426c:	00812903          	lw	s2,8(sp)
    4270:	00700693          	li	a3,7
    4274:	01000d13          	li	s10,16
    4278:	0000bb17          	auipc	s6,0xb
    427c:	20cb0b13          	add	s6,s6,524 # f484 <zeroes.0>
    4280:	00048613          	mv	a2,s1
    4284:	00030c13          	mv	s8,t1
    4288:	09405863          	blez	s4,4318 <_vfprintf_r+0x2570>
    428c:	16805e63          	blez	s0,4408 <_vfprintf_r+0x2660>
    4290:	fff40413          	add	s0,s0,-1
    4294:	04812783          	lw	a5,72(sp)
    4298:	01960633          	add	a2,a2,s9
    429c:	01972223          	sw	s9,4(a4)
    42a0:	00f72023          	sw	a5,0(a4)
    42a4:	0a412783          	lw	a5,164(sp)
    42a8:	0ac12423          	sw	a2,168(sp)
    42ac:	00870713          	add	a4,a4,8
    42b0:	00178793          	add	a5,a5,1
    42b4:	0af12223          	sw	a5,164(sp)
    42b8:	14f6ce63          	blt	a3,a5,4414 <_vfprintf_r+0x266c>
    42bc:	04412783          	lw	a5,68(sp)
    42c0:	000bc583          	lbu	a1,0(s7)
    42c4:	418784b3          	sub	s1,a5,s8
    42c8:	0095d463          	bge	a1,s1,42d0 <_vfprintf_r+0x2528>
    42cc:	00058493          	mv	s1,a1
    42d0:	02905663          	blez	s1,42fc <_vfprintf_r+0x2554>
    42d4:	0a412583          	lw	a1,164(sp)
    42d8:	00960633          	add	a2,a2,s1
    42dc:	01872023          	sw	s8,0(a4)
    42e0:	00158593          	add	a1,a1,1
    42e4:	00972223          	sw	s1,4(a4)
    42e8:	0ac12423          	sw	a2,168(sp)
    42ec:	0ab12223          	sw	a1,164(sp)
    42f0:	14b6c663          	blt	a3,a1,443c <_vfprintf_r+0x2694>
    42f4:	000bc583          	lbu	a1,0(s7)
    42f8:	00870713          	add	a4,a4,8
    42fc:	fff4c513          	not	a0,s1
    4300:	41f55513          	sra	a0,a0,0x1f
    4304:	00a4f7b3          	and	a5,s1,a0
    4308:	40f584b3          	sub	s1,a1,a5
    430c:	04904663          	bgtz	s1,4358 <_vfprintf_r+0x25b0>
    4310:	00bc0c33          	add	s8,s8,a1
    4314:	f7404ce3          	bgtz	s4,428c <_vfprintf_r+0x24e4>
    4318:	f6804ce3          	bgtz	s0,4290 <_vfprintf_r+0x24e8>
    431c:	01812783          	lw	a5,24(sp)
    4320:	000c0313          	mv	t1,s8
    4324:	02412c03          	lw	s8,36(sp)
    4328:	03712e23          	sw	s7,60(sp)
    432c:	00070413          	mv	s0,a4
    4330:	00fc0733          	add	a4,s8,a5
    4334:	05012903          	lw	s2,80(sp)
    4338:	05412e83          	lw	t4,84(sp)
    433c:	05812b83          	lw	s7,88(sp)
    4340:	05c12c83          	lw	s9,92(sp)
    4344:	00060493          	mv	s1,a2
    4348:	00676463          	bltu	a4,t1,4350 <_vfprintf_r+0x25a8>
    434c:	c59fe06f          	j	2fa4 <_vfprintf_r+0x11fc>
    4350:	00070313          	mv	t1,a4
    4354:	c51fe06f          	j	2fa4 <_vfprintf_r+0x11fc>
    4358:	0a412583          	lw	a1,164(sp)
    435c:	0000be97          	auipc	t4,0xb
    4360:	128e8e93          	add	t4,t4,296 # f484 <zeroes.0>
    4364:	069d5c63          	bge	s10,s1,43dc <_vfprintf_r+0x2634>
    4368:	02812023          	sw	s0,32(sp)
    436c:	00048413          	mv	s0,s1
    4370:	000b0493          	mv	s1,s6
    4374:	00c0006f          	j	4380 <_vfprintf_r+0x25d8>
    4378:	ff040413          	add	s0,s0,-16
    437c:	048d5a63          	bge	s10,s0,43d0 <_vfprintf_r+0x2628>
    4380:	01060613          	add	a2,a2,16
    4384:	00158593          	add	a1,a1,1
    4388:	01672023          	sw	s6,0(a4)
    438c:	01a72223          	sw	s10,4(a4)
    4390:	0ac12423          	sw	a2,168(sp)
    4394:	0ab12223          	sw	a1,164(sp)
    4398:	00870713          	add	a4,a4,8
    439c:	fcb6dee3          	bge	a3,a1,4378 <_vfprintf_r+0x25d0>
    43a0:	0a010613          	add	a2,sp,160
    43a4:	00090593          	mv	a1,s2
    43a8:	00098513          	mv	a0,s3
    43ac:	0b9000ef          	jal	4c64 <__sprint_r>
    43b0:	00050463          	beqz	a0,43b8 <_vfprintf_r+0x2610>
    43b4:	ec5fd06f          	j	2278 <_vfprintf_r+0x4d0>
    43b8:	ff040413          	add	s0,s0,-16
    43bc:	0a812603          	lw	a2,168(sp)
    43c0:	0a412583          	lw	a1,164(sp)
    43c4:	0ac10713          	add	a4,sp,172
    43c8:	00700693          	li	a3,7
    43cc:	fa8d4ae3          	blt	s10,s0,4380 <_vfprintf_r+0x25d8>
    43d0:	00048e93          	mv	t4,s1
    43d4:	00040493          	mv	s1,s0
    43d8:	02012403          	lw	s0,32(sp)
    43dc:	00960633          	add	a2,a2,s1
    43e0:	00158593          	add	a1,a1,1
    43e4:	01d72023          	sw	t4,0(a4)
    43e8:	00972223          	sw	s1,4(a4)
    43ec:	0ac12423          	sw	a2,168(sp)
    43f0:	0ab12223          	sw	a1,164(sp)
    43f4:	10b6ce63          	blt	a3,a1,4510 <_vfprintf_r+0x2768>
    43f8:	000bc583          	lbu	a1,0(s7)
    43fc:	00870713          	add	a4,a4,8
    4400:	00bc0c33          	add	s8,s8,a1
    4404:	f11ff06f          	j	4314 <_vfprintf_r+0x256c>
    4408:	fffb8b93          	add	s7,s7,-1
    440c:	fffa0a13          	add	s4,s4,-1
    4410:	e85ff06f          	j	4294 <_vfprintf_r+0x24ec>
    4414:	0a010613          	add	a2,sp,160
    4418:	00090593          	mv	a1,s2
    441c:	00098513          	mv	a0,s3
    4420:	045000ef          	jal	4c64 <__sprint_r>
    4424:	00050463          	beqz	a0,442c <_vfprintf_r+0x2684>
    4428:	e51fd06f          	j	2278 <_vfprintf_r+0x4d0>
    442c:	0a812603          	lw	a2,168(sp)
    4430:	0ac10713          	add	a4,sp,172
    4434:	00700693          	li	a3,7
    4438:	e85ff06f          	j	42bc <_vfprintf_r+0x2514>
    443c:	0a010613          	add	a2,sp,160
    4440:	00090593          	mv	a1,s2
    4444:	00098513          	mv	a0,s3
    4448:	01d000ef          	jal	4c64 <__sprint_r>
    444c:	00050463          	beqz	a0,4454 <_vfprintf_r+0x26ac>
    4450:	e29fd06f          	j	2278 <_vfprintf_r+0x4d0>
    4454:	000bc583          	lbu	a1,0(s7)
    4458:	0a812603          	lw	a2,168(sp)
    445c:	0ac10713          	add	a4,sp,172
    4460:	00700693          	li	a3,7
    4464:	e99ff06f          	j	42fc <_vfprintf_r+0x2554>
    4468:	04c12783          	lw	a5,76(sp)
    446c:	04812583          	lw	a1,72(sp)
    4470:	00000913          	li	s2,0
    4474:	40fc0c33          	sub	s8,s8,a5
    4478:	00078613          	mv	a2,a5
    447c:	000c0513          	mv	a0,s8
    4480:	468030ef          	jal	78e8 <strncpy>
    4484:	00144783          	lbu	a5,1(s0)
    4488:	00a00613          	li	a2,10
    448c:	00000693          	li	a3,0
    4490:	00f037b3          	snez	a5,a5
    4494:	000d0513          	mv	a0,s10
    4498:	000c8593          	mv	a1,s9
    449c:	00f40433          	add	s0,s0,a5
    44a0:	78d060ef          	jal	b42c <__udivdi3>
    44a4:	a10ff06f          	j	36b4 <_vfprintf_r+0x190c>
    44a8:	09810713          	add	a4,sp,152
    44ac:	00000693          	li	a3,0
    44b0:	08410613          	add	a2,sp,132
    44b4:	00000593          	li	a1,0
    44b8:	00098513          	mv	a0,s3
    44bc:	01c12a23          	sw	t3,20(sp)
    44c0:	01d12823          	sw	t4,16(sp)
    44c4:	618060ef          	jal	aadc <_wcsrtombs_r>
    44c8:	fff00713          	li	a4,-1
    44cc:	01012e83          	lw	t4,16(sp)
    44d0:	01412e03          	lw	t3,20(sp)
    44d4:	00050d13          	mv	s10,a0
    44d8:	30e50063          	beq	a0,a4,47d8 <_vfprintf_r+0x2a30>
    44dc:	09812223          	sw	s8,132(sp)
    44e0:	cacff06f          	j	398c <_vfprintf_r+0x1be4>
    44e4:	07714603          	lbu	a2,119(sp)
    44e8:	01612a23          	sw	s6,20(sp)
    44ec:	02012223          	sw	zero,36(sp)
    44f0:	02012023          	sw	zero,32(sp)
    44f4:	00012823          	sw	zero,16(sp)
    44f8:	00000c93          	li	s9,0
    44fc:	00000313          	li	t1,0
    4500:	00000a13          	li	s4,0
    4504:	00061463          	bnez	a2,450c <_vfprintf_r+0x2764>
    4508:	ae1fd06f          	j	1fe8 <_vfprintf_r+0x240>
    450c:	efdfd06f          	j	2408 <_vfprintf_r+0x660>
    4510:	0a010613          	add	a2,sp,160
    4514:	00090593          	mv	a1,s2
    4518:	00098513          	mv	a0,s3
    451c:	748000ef          	jal	4c64 <__sprint_r>
    4520:	00050463          	beqz	a0,4528 <_vfprintf_r+0x2780>
    4524:	d55fd06f          	j	2278 <_vfprintf_r+0x4d0>
    4528:	000bc583          	lbu	a1,0(s7)
    452c:	0a812603          	lw	a2,168(sp)
    4530:	0ac10713          	add	a4,sp,172
    4534:	00700693          	li	a3,7
    4538:	00bc0c33          	add	s8,s8,a1
    453c:	dd9ff06f          	j	4314 <_vfprintf_r+0x256c>
    4540:	00812583          	lw	a1,8(sp)
    4544:	0a010613          	add	a2,sp,160
    4548:	00098513          	mv	a0,s3
    454c:	05d12223          	sw	t4,68(sp)
    4550:	714000ef          	jal	4c64 <__sprint_r>
    4554:	00050463          	beqz	a0,455c <_vfprintf_r+0x27b4>
    4558:	d21fd06f          	j	2278 <_vfprintf_r+0x4d0>
    455c:	0a812483          	lw	s1,168(sp)
    4560:	04412e83          	lw	t4,68(sp)
    4564:	0ac10413          	add	s0,sp,172
    4568:	a19fe06f          	j	2f80 <_vfprintf_r+0x11d8>
    456c:	00900793          	li	a5,9
    4570:	95a7e263          	bltu	a5,s10,36b4 <_vfprintf_r+0x190c>
    4574:	98cff06f          	j	3700 <_vfprintf_r+0x1958>
    4578:	07c12a03          	lw	s4,124(sp)
    457c:	00070793          	mv	a5,a4
    4580:	9f1ff06f          	j	3f70 <_vfprintf_r+0x21c8>
    4584:	00812583          	lw	a1,8(sp)
    4588:	0a010613          	add	a2,sp,160
    458c:	00098513          	mv	a0,s3
    4590:	03d12023          	sw	t4,32(sp)
    4594:	6d0000ef          	jal	4c64 <__sprint_r>
    4598:	00050463          	beqz	a0,45a0 <_vfprintf_r+0x27f8>
    459c:	cddfd06f          	j	2278 <_vfprintf_r+0x4d0>
    45a0:	07c12d03          	lw	s10,124(sp)
    45a4:	01812783          	lw	a5,24(sp)
    45a8:	0a812483          	lw	s1,168(sp)
    45ac:	02012e83          	lw	t4,32(sp)
    45b0:	0ac10413          	add	s0,sp,172
    45b4:	41a78d33          	sub	s10,a5,s10
    45b8:	a49fe06f          	j	3000 <_vfprintf_r+0x1258>
    45bc:	00650733          	add	a4,a0,t1
    45c0:	04700d13          	li	s10,71
    45c4:	94dff06f          	j	3f10 <_vfprintf_r+0x2168>
    45c8:	02812603          	lw	a2,40(sp)
    45cc:	00048593          	mv	a1,s1
    45d0:	00000693          	li	a3,0
    45d4:	00060513          	mv	a0,a2
    45d8:	00000613          	li	a2,0
    45dc:	04e12823          	sw	a4,80(sp)
    45e0:	02612223          	sw	t1,36(sp)
    45e4:	03c12023          	sw	t3,32(sp)
    45e8:	01d12c23          	sw	t4,24(sp)
    45ec:	4b9080ef          	jal	d2a4 <__eqdf2>
    45f0:	01812e83          	lw	t4,24(sp)
    45f4:	02012e03          	lw	t3,32(sp)
    45f8:	02412303          	lw	t1,36(sp)
    45fc:	05012703          	lw	a4,80(sp)
    4600:	34051e63          	bnez	a0,495c <_vfprintf_r+0x2bb4>
    4604:	07c12a03          	lw	s4,124(sp)
    4608:	01470733          	add	a4,a4,s4
    460c:	418707b3          	sub	a5,a4,s8
    4610:	00f12c23          	sw	a5,24(sp)
    4614:	001ef713          	and	a4,t4,1
    4618:	00676733          	or	a4,a4,t1
    461c:	37405a63          	blez	s4,4990 <_vfprintf_r+0x2be8>
    4620:	26071263          	bnez	a4,4884 <_vfprintf_r+0x2adc>
    4624:	000a0d13          	mv	s10,s4
    4628:	06600e13          	li	t3,102
    462c:	400eff13          	and	t5,t4,1024
    4630:	1c0f1a63          	bnez	t5,4804 <_vfprintf_r+0x2a5c>
    4634:	fffd4813          	not	a6,s10
    4638:	41f85813          	sra	a6,a6,0x1f
    463c:	010d7cb3          	and	s9,s10,a6
    4640:	bd9ff06f          	j	4218 <_vfprintf_r+0x2470>
    4644:	01812783          	lw	a5,24(sp)
    4648:	03012703          	lw	a4,48(sp)
    464c:	06700e13          	li	t3,103
    4650:	00e78d33          	add	s10,a5,a4
    4654:	fd404ce3          	bgtz	s4,462c <_vfprintf_r+0x2884>
    4658:	414d06b3          	sub	a3,s10,s4
    465c:	00168d13          	add	s10,a3,1
    4660:	fffd4813          	not	a6,s10
    4664:	41f85813          	sra	a6,a6,0x1f
    4668:	010d7cb3          	and	s9,s10,a6
    466c:	badff06f          	j	4218 <_vfprintf_r+0x2470>
    4670:	000e8613          	mv	a2,t4
    4674:	ad8fe06f          	j	294c <_vfprintf_r+0xba4>
    4678:	00812783          	lw	a5,8(sp)
    467c:	0647a783          	lw	a5,100(a5)
    4680:	0017f793          	and	a5,a5,1
    4684:	02079063          	bnez	a5,46a4 <_vfprintf_r+0x28fc>
    4688:	00812783          	lw	a5,8(sp)
    468c:	00c7d783          	lhu	a5,12(a5)
    4690:	2007f793          	and	a5,a5,512
    4694:	00079863          	bnez	a5,46a4 <_vfprintf_r+0x28fc>
    4698:	00812783          	lw	a5,8(sp)
    469c:	0587a503          	lw	a0,88(a5)
    46a0:	fb0fc0ef          	jal	e50 <__retarget_lock_release_recursive>
    46a4:	fff00793          	li	a5,-1
    46a8:	00f12623          	sw	a5,12(sp)
    46ac:	c2dfd06f          	j	22d8 <_vfprintf_r+0x530>
    46b0:	ff000613          	li	a2,-16
    46b4:	40d00d33          	neg	s10,a3
    46b8:	0000b297          	auipc	t0,0xb
    46bc:	dcc28293          	add	t0,t0,-564 # f484 <zeroes.0>
    46c0:	08c6d463          	bge	a3,a2,4748 <_vfprintf_r+0x29a0>
    46c4:	03212023          	sw	s2,32(sp)
    46c8:	01000693          	li	a3,16
    46cc:	00700b13          	li	s6,7
    46d0:	000e8a13          	mv	s4,t4
    46d4:	00028913          	mv	s2,t0
    46d8:	00c0006f          	j	46e4 <_vfprintf_r+0x293c>
    46dc:	ff0d0d13          	add	s10,s10,-16
    46e0:	05a6de63          	bge	a3,s10,473c <_vfprintf_r+0x2994>
    46e4:	01048493          	add	s1,s1,16
    46e8:	00170713          	add	a4,a4,1
    46ec:	01242023          	sw	s2,0(s0)
    46f0:	00d42223          	sw	a3,4(s0)
    46f4:	0a912423          	sw	s1,168(sp)
    46f8:	0ae12223          	sw	a4,164(sp)
    46fc:	00840413          	add	s0,s0,8
    4700:	fceb5ee3          	bge	s6,a4,46dc <_vfprintf_r+0x2934>
    4704:	00812583          	lw	a1,8(sp)
    4708:	0a010613          	add	a2,sp,160
    470c:	00098513          	mv	a0,s3
    4710:	554000ef          	jal	4c64 <__sprint_r>
    4714:	00050463          	beqz	a0,471c <_vfprintf_r+0x2974>
    4718:	b61fd06f          	j	2278 <_vfprintf_r+0x4d0>
    471c:	0a812483          	lw	s1,168(sp)
    4720:	0a412703          	lw	a4,164(sp)
    4724:	0ac10413          	add	s0,sp,172
    4728:	01000693          	li	a3,16
    472c:	fb1ff06f          	j	46dc <_vfprintf_r+0x2934>
    4730:	00012823          	sw	zero,16(sp)
    4734:	0ec10c13          	add	s8,sp,236
    4738:	a88ff06f          	j	39c0 <_vfprintf_r+0x1c18>
    473c:	00090293          	mv	t0,s2
    4740:	02012903          	lw	s2,32(sp)
    4744:	000a0e93          	mv	t4,s4
    4748:	01a484b3          	add	s1,s1,s10
    474c:	00170713          	add	a4,a4,1
    4750:	00542023          	sw	t0,0(s0)
    4754:	01a42223          	sw	s10,4(s0)
    4758:	0a912423          	sw	s1,168(sp)
    475c:	0ae12223          	sw	a4,164(sp)
    4760:	00700693          	li	a3,7
    4764:	00e6c463          	blt	a3,a4,476c <_vfprintf_r+0x29c4>
    4768:	b65fe06f          	j	32cc <_vfprintf_r+0x1524>
    476c:	00812583          	lw	a1,8(sp)
    4770:	0a010613          	add	a2,sp,160
    4774:	00098513          	mv	a0,s3
    4778:	03d12023          	sw	t4,32(sp)
    477c:	4e8000ef          	jal	4c64 <__sprint_r>
    4780:	00050463          	beqz	a0,4788 <_vfprintf_r+0x29e0>
    4784:	af5fd06f          	j	2278 <_vfprintf_r+0x4d0>
    4788:	0a812483          	lw	s1,168(sp)
    478c:	0a412703          	lw	a4,164(sp)
    4790:	02012e83          	lw	t4,32(sp)
    4794:	0ac10413          	add	s0,sp,172
    4798:	b20ff06f          	j	3ab8 <_vfprintf_r+0x1d10>
    479c:	08a10693          	add	a3,sp,138
    47a0:	00061863          	bnez	a2,47b0 <_vfprintf_r+0x2a08>
    47a4:	03000693          	li	a3,48
    47a8:	08d10523          	sb	a3,138(sp)
    47ac:	08b10693          	add	a3,sp,139
    47b0:	15010793          	add	a5,sp,336
    47b4:	40f68633          	sub	a2,a3,a5
    47b8:	030d0713          	add	a4,s10,48
    47bc:	0c960793          	add	a5,a2,201
    47c0:	00e68023          	sb	a4,0(a3)
    47c4:	04f12023          	sw	a5,64(sp)
    47c8:	d5cff06f          	j	3d24 <_vfprintf_r+0x1f7c>
    47cc:	001ef713          	and	a4,t4,1
    47d0:	d6070863          	beqz	a4,3d40 <_vfprintf_r+0x1f98>
    47d4:	d64ff06f          	j	3d38 <_vfprintf_r+0x1f90>
    47d8:	00812783          	lw	a5,8(sp)
    47dc:	00000293          	li	t0,0
    47e0:	00c79783          	lh	a5,12(a5)
    47e4:	0407e793          	or	a5,a5,64
    47e8:	00812703          	lw	a4,8(sp)
    47ec:	00f71623          	sh	a5,12(a4)
    47f0:	a8dfd06f          	j	227c <_vfprintf_r+0x4d4>
    47f4:	00012823          	sw	zero,16(sp)
    47f8:	00600313          	li	t1,6
    47fc:	ff9fe06f          	j	37f4 <_vfprintf_r+0x1a4c>
    4800:	06700e13          	li	t3,103
    4804:	03c12783          	lw	a5,60(sp)
    4808:	0ff00613          	li	a2,255
    480c:	0007c703          	lbu	a4,0(a5)
    4810:	22c70263          	beq	a4,a2,4a34 <_vfprintf_r+0x2c8c>
    4814:	00000593          	li	a1,0
    4818:	00000693          	li	a3,0
    481c:	01475e63          	bge	a4,s4,4838 <_vfprintf_r+0x2a90>
    4820:	40ea0a33          	sub	s4,s4,a4
    4824:	0017c703          	lbu	a4,1(a5)
    4828:	04070863          	beqz	a4,4878 <_vfprintf_r+0x2ad0>
    482c:	00168693          	add	a3,a3,1
    4830:	00178793          	add	a5,a5,1
    4834:	fec714e3          	bne	a4,a2,481c <_vfprintf_r+0x2a74>
    4838:	02f12e23          	sw	a5,60(sp)
    483c:	02d12023          	sw	a3,32(sp)
    4840:	02b12223          	sw	a1,36(sp)
    4844:	02012783          	lw	a5,32(sp)
    4848:	02412703          	lw	a4,36(sp)
    484c:	04c12583          	lw	a1,76(sp)
    4850:	05c12823          	sw	t3,80(sp)
    4854:	00e78533          	add	a0,a5,a4
    4858:	3a80a0ef          	jal	ec00 <__mulsi3>
    485c:	01a50d33          	add	s10,a0,s10
    4860:	fffd4813          	not	a6,s10
    4864:	41f85813          	sra	a6,a6,0x1f
    4868:	05012e03          	lw	t3,80(sp)
    486c:	010d7cb3          	and	s9,s10,a6
    4870:	000b0e93          	mv	t4,s6
    4874:	cecff06f          	j	3d60 <_vfprintf_r+0x1fb8>
    4878:	0007c703          	lbu	a4,0(a5)
    487c:	00158593          	add	a1,a1,1
    4880:	fb5ff06f          	j	4834 <_vfprintf_r+0x2a8c>
    4884:	03012783          	lw	a5,48(sp)
    4888:	06600e13          	li	t3,102
    488c:	00f306b3          	add	a3,t1,a5
    4890:	01468d33          	add	s10,a3,s4
    4894:	d99ff06f          	j	462c <_vfprintf_r+0x2884>
    4898:	02c12783          	lw	a5,44(sp)
    489c:	0a07c863          	bltz	a5,494c <_vfprintf_r+0x2ba4>
    48a0:	07714603          	lbu	a2,119(sp)
    48a4:	04700713          	li	a4,71
    48a8:	0000ac17          	auipc	s8,0xa
    48ac:	6f0c0c13          	add	s8,s8,1776 # ef98 <__fini_array_end+0x1a0>
    48b0:	01c75463          	bge	a4,t3,48b8 <_vfprintf_r+0x2b10>
    48b4:	b31fd06f          	j	23e4 <_vfprintf_r+0x63c>
    48b8:	0000ac17          	auipc	s8,0xa
    48bc:	6dcc0c13          	add	s8,s8,1756 # ef94 <__fini_array_end+0x19c>
    48c0:	b25fd06f          	j	23e4 <_vfprintf_r+0x63c>
    48c4:	07714603          	lbu	a2,119(sp)
    48c8:	01612a23          	sw	s6,20(sp)
    48cc:	02012223          	sw	zero,36(sp)
    48d0:	02012023          	sw	zero,32(sp)
    48d4:	00030c93          	mv	s9,t1
    48d8:	00030d13          	mv	s10,t1
    48dc:	07300e13          	li	t3,115
    48e0:	00000313          	li	t1,0
    48e4:	00061463          	bnez	a2,48ec <_vfprintf_r+0x2b44>
    48e8:	f00fd06f          	j	1fe8 <_vfprintf_r+0x240>
    48ec:	b1dfd06f          	j	2408 <_vfprintf_r+0x660>
    48f0:	00040313          	mv	t1,s0
    48f4:	01012903          	lw	s2,16(sp)
    48f8:	000b0413          	mv	s0,s6
    48fc:	01412e03          	lw	t3,20(sp)
    4900:	000c0b13          	mv	s6,s8
    4904:	000a0e93          	mv	t4,s4
    4908:	000c8c13          	mv	s8,s9
    490c:	00030d13          	mv	s10,t1
    4910:	87cff06f          	j	398c <_vfprintf_r+0x1be4>
    4914:	001b0793          	add	a5,s6,1
    4918:	000c0993          	mv	s3,s8
    491c:	02412903          	lw	s2,36(sp)
    4920:	04012e83          	lw	t4,64(sp)
    4924:	05012e03          	lw	t3,80(sp)
    4928:	05412403          	lw	s0,84(sp)
    492c:	000d0c13          	mv	s8,s10
    4930:	00f487b3          	add	a5,s1,a5
    4934:	03000693          	li	a3,48
    4938:	840b40e3          	bltz	s6,4178 <_vfprintf_r+0x23d0>
    493c:	00148493          	add	s1,s1,1
    4940:	fed48fa3          	sb	a3,-1(s1)
    4944:	fe979ce3          	bne	a5,s1,493c <_vfprintf_r+0x2b94>
    4948:	835ff06f          	j	417c <_vfprintf_r+0x23d4>
    494c:	02d00793          	li	a5,45
    4950:	06f10ba3          	sb	a5,119(sp)
    4954:	02d00613          	li	a2,45
    4958:	f4dff06f          	j	48a4 <_vfprintf_r+0x2afc>
    495c:	00100693          	li	a3,1
    4960:	414686b3          	sub	a3,a3,s4
    4964:	06d12e23          	sw	a3,124(sp)
    4968:	da4ff06f          	j	3f0c <_vfprintf_r+0x2164>
    496c:	01412783          	lw	a5,20(sp)
    4970:	0007ab03          	lw	s6,0(a5)
    4974:	00478793          	add	a5,a5,4
    4978:	000b5463          	bgez	s6,4980 <_vfprintf_r+0x2bd8>
    497c:	fff00b13          	li	s6,-1
    4980:	00194e03          	lbu	t3,1(s2)
    4984:	00f12a23          	sw	a5,20(sp)
    4988:	00068913          	mv	s2,a3
    498c:	dccfd06f          	j	1f58 <_vfprintf_r+0x1b0>
    4990:	00071a63          	bnez	a4,49a4 <_vfprintf_r+0x2bfc>
    4994:	00100c93          	li	s9,1
    4998:	06600e13          	li	t3,102
    499c:	00100d13          	li	s10,1
    49a0:	879ff06f          	j	4218 <_vfprintf_r+0x2470>
    49a4:	03012783          	lw	a5,48(sp)
    49a8:	06600e13          	li	t3,102
    49ac:	00178693          	add	a3,a5,1
    49b0:	00668d33          	add	s10,a3,t1
    49b4:	fffd4813          	not	a6,s10
    49b8:	41f85813          	sra	a6,a6,0x1f
    49bc:	010d7cb3          	and	s9,s10,a6
    49c0:	859ff06f          	j	4218 <_vfprintf_r+0x2470>
    49c4:	00200793          	li	a5,2
    49c8:	04f12023          	sw	a5,64(sp)
    49cc:	b58ff06f          	j	3d24 <_vfprintf_r+0x1f7c>
    49d0:	00812703          	lw	a4,8(sp)
    49d4:	00c71783          	lh	a5,12(a4)
    49d8:	0407e793          	or	a5,a5,64
    49dc:	00f71623          	sh	a5,12(a4)
    49e0:	8b5fd06f          	j	2294 <_vfprintf_r+0x4ec>
    49e4:	000a0513          	mv	a0,s4
    49e8:	000d0593          	mv	a1,s10
    49ec:	00030613          	mv	a2,t1
    49f0:	00038693          	mv	a3,t2
    49f4:	05012023          	sw	a6,64(sp)
    49f8:	03c12223          	sw	t3,36(sp)
    49fc:	01d12c23          	sw	t4,24(sp)
    4a00:	0a5080ef          	jal	d2a4 <__eqdf2>
    4a04:	01812e83          	lw	t4,24(sp)
    4a08:	02412e03          	lw	t3,36(sp)
    4a0c:	04012803          	lw	a6,64(sp)
    4a10:	f6051463          	bnez	a0,4178 <_vfprintf_r+0x23d0>
    4a14:	001b7693          	and	a3,s6,1
    4a18:	f6068063          	beqz	a3,4178 <_vfprintf_r+0x23d0>
    4a1c:	f14ff06f          	j	4130 <_vfprintf_r+0x2388>
    4a20:	00812783          	lw	a5,8(sp)
    4a24:	01012283          	lw	t0,16(sp)
    4a28:	00c79783          	lh	a5,12(a5)
    4a2c:	0407e793          	or	a5,a5,64
    4a30:	db9ff06f          	j	47e8 <_vfprintf_r+0x2a40>
    4a34:	02012223          	sw	zero,36(sp)
    4a38:	02012023          	sw	zero,32(sp)
    4a3c:	e09ff06f          	j	4844 <_vfprintf_r+0x2a9c>
    4a40:	04500d13          	li	s10,69
    4a44:	cccff06f          	j	3f10 <_vfprintf_r+0x2168>

00004a48 <__sbprintf>:
    4a48:	b7010113          	add	sp,sp,-1168
    4a4c:	00c59783          	lh	a5,12(a1)
    4a50:	00e5d703          	lhu	a4,14(a1)
    4a54:	48812423          	sw	s0,1160(sp)
    4a58:	00058413          	mv	s0,a1
    4a5c:	000105b7          	lui	a1,0x10
    4a60:	ffd58593          	add	a1,a1,-3 # fffd <__crt0_copy_data_src_begin+0x78d>
    4a64:	06442303          	lw	t1,100(s0)
    4a68:	01c42883          	lw	a7,28(s0)
    4a6c:	02442803          	lw	a6,36(s0)
    4a70:	01071713          	sll	a4,a4,0x10
    4a74:	00b7f7b3          	and	a5,a5,a1
    4a78:	00e7e7b3          	or	a5,a5,a4
    4a7c:	40000593          	li	a1,1024
    4a80:	49212023          	sw	s2,1152(sp)
    4a84:	00f12a23          	sw	a5,20(sp)
    4a88:	00050913          	mv	s2,a0
    4a8c:	07010793          	add	a5,sp,112
    4a90:	06010513          	add	a0,sp,96
    4a94:	48112623          	sw	ra,1164(sp)
    4a98:	48912223          	sw	s1,1156(sp)
    4a9c:	47312e23          	sw	s3,1148(sp)
    4aa0:	00060493          	mv	s1,a2
    4aa4:	00068993          	mv	s3,a3
    4aa8:	06612623          	sw	t1,108(sp)
    4aac:	03112223          	sw	a7,36(sp)
    4ab0:	03012623          	sw	a6,44(sp)
    4ab4:	00f12423          	sw	a5,8(sp)
    4ab8:	00f12c23          	sw	a5,24(sp)
    4abc:	00b12823          	sw	a1,16(sp)
    4ac0:	00b12e23          	sw	a1,28(sp)
    4ac4:	02012023          	sw	zero,32(sp)
    4ac8:	b7cfc0ef          	jal	e44 <__retarget_lock_init_recursive>
    4acc:	00048613          	mv	a2,s1
    4ad0:	00098693          	mv	a3,s3
    4ad4:	00810593          	add	a1,sp,8
    4ad8:	00090513          	mv	a0,s2
    4adc:	accfd0ef          	jal	1da8 <_vfprintf_r>
    4ae0:	00050493          	mv	s1,a0
    4ae4:	04055263          	bgez	a0,4b28 <__sbprintf+0xe0>
    4ae8:	01415783          	lhu	a5,20(sp)
    4aec:	0407f793          	and	a5,a5,64
    4af0:	00078863          	beqz	a5,4b00 <__sbprintf+0xb8>
    4af4:	00c45783          	lhu	a5,12(s0)
    4af8:	0407e793          	or	a5,a5,64
    4afc:	00f41623          	sh	a5,12(s0)
    4b00:	06012503          	lw	a0,96(sp)
    4b04:	b44fc0ef          	jal	e48 <__retarget_lock_close_recursive>
    4b08:	48c12083          	lw	ra,1164(sp)
    4b0c:	48812403          	lw	s0,1160(sp)
    4b10:	48012903          	lw	s2,1152(sp)
    4b14:	47c12983          	lw	s3,1148(sp)
    4b18:	00048513          	mv	a0,s1
    4b1c:	48412483          	lw	s1,1156(sp)
    4b20:	49010113          	add	sp,sp,1168
    4b24:	00008067          	ret
    4b28:	00810593          	add	a1,sp,8
    4b2c:	00090513          	mv	a0,s2
    4b30:	449010ef          	jal	6778 <_fflush_r>
    4b34:	fa050ae3          	beqz	a0,4ae8 <__sbprintf+0xa0>
    4b38:	fff00493          	li	s1,-1
    4b3c:	fadff06f          	j	4ae8 <__sbprintf+0xa0>

00004b40 <__sprint_r.part.0>:
    4b40:	0645a783          	lw	a5,100(a1)
    4b44:	fd010113          	add	sp,sp,-48
    4b48:	01612823          	sw	s6,16(sp)
    4b4c:	02112623          	sw	ra,44(sp)
    4b50:	01279713          	sll	a4,a5,0x12
    4b54:	00060b13          	mv	s6,a2
    4b58:	0e075863          	bgez	a4,4c48 <__sprint_r.part.0+0x108>
    4b5c:	00862783          	lw	a5,8(a2)
    4b60:	03212023          	sw	s2,32(sp)
    4b64:	01312e23          	sw	s3,28(sp)
    4b68:	01512a23          	sw	s5,20(sp)
    4b6c:	01712623          	sw	s7,12(sp)
    4b70:	00058913          	mv	s2,a1
    4b74:	00062b83          	lw	s7,0(a2)
    4b78:	00050993          	mv	s3,a0
    4b7c:	fff00a93          	li	s5,-1
    4b80:	0a078863          	beqz	a5,4c30 <__sprint_r.part.0+0xf0>
    4b84:	02812423          	sw	s0,40(sp)
    4b88:	02912223          	sw	s1,36(sp)
    4b8c:	01412c23          	sw	s4,24(sp)
    4b90:	01812423          	sw	s8,8(sp)
    4b94:	004bac03          	lw	s8,4(s7)
    4b98:	000ba403          	lw	s0,0(s7)
    4b9c:	002c5a13          	srl	s4,s8,0x2
    4ba0:	060a0663          	beqz	s4,4c0c <__sprint_r.part.0+0xcc>
    4ba4:	00000493          	li	s1,0
    4ba8:	00c0006f          	j	4bb4 <__sprint_r.part.0+0x74>
    4bac:	00440413          	add	s0,s0,4
    4bb0:	049a0c63          	beq	s4,s1,4c08 <__sprint_r.part.0+0xc8>
    4bb4:	00042583          	lw	a1,0(s0)
    4bb8:	00090613          	mv	a2,s2
    4bbc:	00098513          	mv	a0,s3
    4bc0:	399020ef          	jal	7758 <_fputwc_r>
    4bc4:	00148493          	add	s1,s1,1
    4bc8:	ff5512e3          	bne	a0,s5,4bac <__sprint_r.part.0+0x6c>
    4bcc:	02812403          	lw	s0,40(sp)
    4bd0:	02412483          	lw	s1,36(sp)
    4bd4:	02012903          	lw	s2,32(sp)
    4bd8:	01c12983          	lw	s3,28(sp)
    4bdc:	01812a03          	lw	s4,24(sp)
    4be0:	01412a83          	lw	s5,20(sp)
    4be4:	00c12b83          	lw	s7,12(sp)
    4be8:	00812c03          	lw	s8,8(sp)
    4bec:	fff00513          	li	a0,-1
    4bf0:	02c12083          	lw	ra,44(sp)
    4bf4:	000b2423          	sw	zero,8(s6)
    4bf8:	000b2223          	sw	zero,4(s6)
    4bfc:	01012b03          	lw	s6,16(sp)
    4c00:	03010113          	add	sp,sp,48
    4c04:	00008067          	ret
    4c08:	008b2783          	lw	a5,8(s6)
    4c0c:	ffcc7c13          	and	s8,s8,-4
    4c10:	418787b3          	sub	a5,a5,s8
    4c14:	00fb2423          	sw	a5,8(s6)
    4c18:	008b8b93          	add	s7,s7,8
    4c1c:	f6079ce3          	bnez	a5,4b94 <__sprint_r.part.0+0x54>
    4c20:	02812403          	lw	s0,40(sp)
    4c24:	02412483          	lw	s1,36(sp)
    4c28:	01812a03          	lw	s4,24(sp)
    4c2c:	00812c03          	lw	s8,8(sp)
    4c30:	02012903          	lw	s2,32(sp)
    4c34:	01c12983          	lw	s3,28(sp)
    4c38:	01412a83          	lw	s5,20(sp)
    4c3c:	00c12b83          	lw	s7,12(sp)
    4c40:	00000513          	li	a0,0
    4c44:	fadff06f          	j	4bf0 <__sprint_r.part.0+0xb0>
    4c48:	6b5010ef          	jal	6afc <__sfvwrite_r>
    4c4c:	02c12083          	lw	ra,44(sp)
    4c50:	000b2423          	sw	zero,8(s6)
    4c54:	000b2223          	sw	zero,4(s6)
    4c58:	01012b03          	lw	s6,16(sp)
    4c5c:	03010113          	add	sp,sp,48
    4c60:	00008067          	ret

00004c64 <__sprint_r>:
    4c64:	00862703          	lw	a4,8(a2)
    4c68:	00070463          	beqz	a4,4c70 <__sprint_r+0xc>
    4c6c:	ed5ff06f          	j	4b40 <__sprint_r.part.0>
    4c70:	00062223          	sw	zero,4(a2)
    4c74:	00000513          	li	a0,0
    4c78:	00008067          	ret

00004c7c <_vfiprintf_r>:
    4c7c:	eb010113          	add	sp,sp,-336
    4c80:	14812423          	sw	s0,328(sp)
    4c84:	13312e23          	sw	s3,316(sp)
    4c88:	13812423          	sw	s8,296(sp)
    4c8c:	00050413          	mv	s0,a0
    4c90:	00058993          	mv	s3,a1
    4c94:	00060c13          	mv	s8,a2
    4c98:	00000593          	li	a1,0
    4c9c:	00800613          	li	a2,8
    4ca0:	05010513          	add	a0,sp,80
    4ca4:	13512a23          	sw	s5,308(sp)
    4ca8:	14112623          	sw	ra,332(sp)
    4cac:	00068a93          	mv	s5,a3
    4cb0:	9a4fc0ef          	jal	e54 <memset>
    4cb4:	00040863          	beqz	s0,4cc4 <_vfiprintf_r+0x48>
    4cb8:	03442783          	lw	a5,52(s0)
    4cbc:	00079463          	bnez	a5,4cc4 <_vfiprintf_r+0x48>
    4cc0:	49c0106f          	j	615c <_vfiprintf_r+0x14e0>
    4cc4:	0649a703          	lw	a4,100(s3)
    4cc8:	00c99783          	lh	a5,12(s3)
    4ccc:	00177713          	and	a4,a4,1
    4cd0:	00071863          	bnez	a4,4ce0 <_vfiprintf_r+0x64>
    4cd4:	2007f713          	and	a4,a5,512
    4cd8:	00071463          	bnez	a4,4ce0 <_vfiprintf_r+0x64>
    4cdc:	0b80106f          	j	5d94 <_vfiprintf_r+0x1118>
    4ce0:	01279713          	sll	a4,a5,0x12
    4ce4:	02074663          	bltz	a4,4d10 <_vfiprintf_r+0x94>
    4ce8:	0649a703          	lw	a4,100(s3)
    4cec:	00002637          	lui	a2,0x2
    4cf0:	ffffe6b7          	lui	a3,0xffffe
    4cf4:	00c7e7b3          	or	a5,a5,a2
    4cf8:	fff68693          	add	a3,a3,-1 # ffffdfff <__crt0_ram_last+0x7ff7e000>
    4cfc:	01079793          	sll	a5,a5,0x10
    4d00:	4107d793          	sra	a5,a5,0x10
    4d04:	00d77733          	and	a4,a4,a3
    4d08:	00f99623          	sh	a5,12(s3)
    4d0c:	06e9a223          	sw	a4,100(s3)
    4d10:	0087f713          	and	a4,a5,8
    4d14:	2e070463          	beqz	a4,4ffc <_vfiprintf_r+0x380>
    4d18:	0109a703          	lw	a4,16(s3)
    4d1c:	2e070063          	beqz	a4,4ffc <_vfiprintf_r+0x380>
    4d20:	01a7f713          	and	a4,a5,26
    4d24:	00a00693          	li	a3,10
    4d28:	2ed70c63          	beq	a4,a3,5020 <_vfiprintf_r+0x3a4>
    4d2c:	13412c23          	sw	s4,312(sp)
    4d30:	06c10a13          	add	s4,sp,108
    4d34:	14912223          	sw	s1,324(sp)
    4d38:	15212023          	sw	s2,320(sp)
    4d3c:	13612823          	sw	s6,304(sp)
    4d40:	13712623          	sw	s7,300(sp)
    4d44:	13912223          	sw	s9,292(sp)
    4d48:	13a12023          	sw	s10,288(sp)
    4d4c:	000c0c93          	mv	s9,s8
    4d50:	11b12e23          	sw	s11,284(sp)
    4d54:	07412023          	sw	s4,96(sp)
    4d58:	06012423          	sw	zero,104(sp)
    4d5c:	06012223          	sw	zero,100(sp)
    4d60:	00012a23          	sw	zero,20(sp)
    4d64:	02012623          	sw	zero,44(sp)
    4d68:	02012823          	sw	zero,48(sp)
    4d6c:	02012a23          	sw	zero,52(sp)
    4d70:	00012623          	sw	zero,12(sp)
    4d74:	7fffb497          	auipc	s1,0x7fffb
    4d78:	7c048493          	add	s1,s1,1984 # 80000534 <__global_locale>
    4d7c:	02500913          	li	s2,37
    4d80:	0000ab97          	auipc	s7,0xa
    4d84:	724b8b93          	add	s7,s7,1828 # f4a4 <blanks.1+0x10>
    4d88:	0000bb17          	auipc	s6,0xb
    4d8c:	888b0b13          	add	s6,s6,-1912 # f610 <zeroes.0>
    4d90:	000a0c13          	mv	s8,s4
    4d94:	000c8d93          	mv	s11,s9
    4d98:	0e44ad03          	lw	s10,228(s1)
    4d9c:	3f9020ef          	jal	7994 <__locale_mb_cur_max>
    4da0:	00050693          	mv	a3,a0
    4da4:	05010713          	add	a4,sp,80
    4da8:	000d8613          	mv	a2,s11
    4dac:	04810593          	add	a1,sp,72
    4db0:	00040513          	mv	a0,s0
    4db4:	000d00e7          	jalr	s10
    4db8:	2e050e63          	beqz	a0,50b4 <_vfiprintf_r+0x438>
    4dbc:	2c054e63          	bltz	a0,5098 <_vfiprintf_r+0x41c>
    4dc0:	04812783          	lw	a5,72(sp)
    4dc4:	01278663          	beq	a5,s2,4dd0 <_vfiprintf_r+0x154>
    4dc8:	00ad8db3          	add	s11,s11,a0
    4dcc:	fcdff06f          	j	4d98 <_vfiprintf_r+0x11c>
    4dd0:	00050d13          	mv	s10,a0
    4dd4:	419d87b3          	sub	a5,s11,s9
    4dd8:	2f9d9463          	bne	s11,s9,50c0 <_vfiprintf_r+0x444>
    4ddc:	00000e13          	li	t3,0
    4de0:	001dc683          	lbu	a3,1(s11)
    4de4:	001d8c93          	add	s9,s11,1
    4de8:	040101a3          	sb	zero,67(sp)
    4dec:	fff00713          	li	a4,-1
    4df0:	00000893          	li	a7,0
    4df4:	05a00d13          	li	s10,90
    4df8:	000e0d93          	mv	s11,t3
    4dfc:	001c8c93          	add	s9,s9,1
    4e00:	fe068793          	add	a5,a3,-32
    4e04:	04fd6663          	bltu	s10,a5,4e50 <_vfiprintf_r+0x1d4>
    4e08:	00279793          	sll	a5,a5,0x2
    4e0c:	017787b3          	add	a5,a5,s7
    4e10:	0007a783          	lw	a5,0(a5)
    4e14:	017787b3          	add	a5,a5,s7
    4e18:	00078067          	jr	a5
    4e1c:	00000893          	li	a7,0
    4e20:	fd068793          	add	a5,a3,-48
    4e24:	00900593          	li	a1,9
    4e28:	000cc683          	lbu	a3,0(s9)
    4e2c:	00289613          	sll	a2,a7,0x2
    4e30:	011608b3          	add	a7,a2,a7
    4e34:	00189893          	sll	a7,a7,0x1
    4e38:	011788b3          	add	a7,a5,a7
    4e3c:	fd068793          	add	a5,a3,-48
    4e40:	001c8c93          	add	s9,s9,1
    4e44:	fef5f2e3          	bgeu	a1,a5,4e28 <_vfiprintf_r+0x1ac>
    4e48:	fe068793          	add	a5,a3,-32
    4e4c:	fafd7ee3          	bgeu	s10,a5,4e08 <_vfiprintf_r+0x18c>
    4e50:	000d8e13          	mv	t3,s11
    4e54:	2c068663          	beqz	a3,5120 <_vfiprintf_r+0x4a4>
    4e58:	0ad10623          	sb	a3,172(sp)
    4e5c:	040101a3          	sb	zero,67(sp)
    4e60:	00100e93          	li	t4,1
    4e64:	00100d13          	li	s10,1
    4e68:	0ac10813          	add	a6,sp,172
    4e6c:	00012823          	sw	zero,16(sp)
    4e70:	00000713          	li	a4,0
    4e74:	00000f93          	li	t6,0
    4e78:	06412603          	lw	a2,100(sp)
    4e7c:	084e7293          	and	t0,t3,132
    4e80:	06812783          	lw	a5,104(sp)
    4e84:	00160593          	add	a1,a2,1 # 2001 <_vfprintf_r+0x259>
    4e88:	00058f13          	mv	t5,a1
    4e8c:	00029663          	bnez	t0,4e98 <_vfiprintf_r+0x21c>
    4e90:	41d88db3          	sub	s11,a7,t4
    4e94:	47b046e3          	bgtz	s11,5b00 <_vfiprintf_r+0xe84>
    4e98:	04314583          	lbu	a1,67(sp)
    4e9c:	02058a63          	beqz	a1,4ed0 <_vfiprintf_r+0x254>
    4ea0:	04310613          	add	a2,sp,67
    4ea4:	00178793          	add	a5,a5,1
    4ea8:	00100693          	li	a3,1
    4eac:	00cc2023          	sw	a2,0(s8)
    4eb0:	00dc2223          	sw	a3,4(s8)
    4eb4:	06f12423          	sw	a5,104(sp)
    4eb8:	07e12223          	sw	t5,100(sp)
    4ebc:	00700613          	li	a2,7
    4ec0:	35e64ce3          	blt	a2,t5,5a18 <_vfiprintf_r+0xd9c>
    4ec4:	000f0613          	mv	a2,t5
    4ec8:	008c0c13          	add	s8,s8,8
    4ecc:	001f0f13          	add	t5,t5,1
    4ed0:	080f8063          	beqz	t6,4f50 <_vfiprintf_r+0x2d4>
    4ed4:	00200613          	li	a2,2
    4ed8:	00278793          	add	a5,a5,2
    4edc:	04410693          	add	a3,sp,68
    4ee0:	00cc2223          	sw	a2,4(s8)
    4ee4:	00dc2023          	sw	a3,0(s8)
    4ee8:	06f12423          	sw	a5,104(sp)
    4eec:	07e12223          	sw	t5,100(sp)
    4ef0:	00700613          	li	a2,7
    4ef4:	3be652e3          	bge	a2,t5,5a98 <_vfiprintf_r+0xe1c>
    4ef8:	60078ae3          	beqz	a5,5d0c <_vfiprintf_r+0x1090>
    4efc:	06010613          	add	a2,sp,96
    4f00:	00098593          	mv	a1,s3
    4f04:	00040513          	mv	a0,s0
    4f08:	03d12c23          	sw	t4,56(sp)
    4f0c:	02e12423          	sw	a4,40(sp)
    4f10:	03112223          	sw	a7,36(sp)
    4f14:	03012023          	sw	a6,32(sp)
    4f18:	00512e23          	sw	t0,28(sp)
    4f1c:	01c12c23          	sw	t3,24(sp)
    4f20:	c21ff0ef          	jal	4b40 <__sprint_r.part.0>
    4f24:	22051463          	bnez	a0,514c <_vfiprintf_r+0x4d0>
    4f28:	06412603          	lw	a2,100(sp)
    4f2c:	06812783          	lw	a5,104(sp)
    4f30:	03812e83          	lw	t4,56(sp)
    4f34:	02812703          	lw	a4,40(sp)
    4f38:	02412883          	lw	a7,36(sp)
    4f3c:	02012803          	lw	a6,32(sp)
    4f40:	01c12283          	lw	t0,28(sp)
    4f44:	01812e03          	lw	t3,24(sp)
    4f48:	000a0c13          	mv	s8,s4
    4f4c:	00160f13          	add	t5,a2,1
    4f50:	08000593          	li	a1,128
    4f54:	06b286e3          	beq	t0,a1,57c0 <_vfiprintf_r+0xb44>
    4f58:	41a70733          	sub	a4,a4,s10
    4f5c:	1ae04ae3          	bgtz	a4,5910 <_vfiprintf_r+0xc94>
    4f60:	00fd07b3          	add	a5,s10,a5
    4f64:	010c2023          	sw	a6,0(s8)
    4f68:	01ac2223          	sw	s10,4(s8)
    4f6c:	06f12423          	sw	a5,104(sp)
    4f70:	07e12223          	sw	t5,100(sp)
    4f74:	00700713          	li	a4,7
    4f78:	03e758e3          	bge	a4,t5,57a8 <_vfiprintf_r+0xb2c>
    4f7c:	24078063          	beqz	a5,51bc <_vfiprintf_r+0x540>
    4f80:	06010613          	add	a2,sp,96
    4f84:	00098593          	mv	a1,s3
    4f88:	00040513          	mv	a0,s0
    4f8c:	03d12023          	sw	t4,32(sp)
    4f90:	01112e23          	sw	a7,28(sp)
    4f94:	01c12c23          	sw	t3,24(sp)
    4f98:	ba9ff0ef          	jal	4b40 <__sprint_r.part.0>
    4f9c:	1a051863          	bnez	a0,514c <_vfiprintf_r+0x4d0>
    4fa0:	06812783          	lw	a5,104(sp)
    4fa4:	02012e83          	lw	t4,32(sp)
    4fa8:	01c12883          	lw	a7,28(sp)
    4fac:	01812e03          	lw	t3,24(sp)
    4fb0:	000a0c13          	mv	s8,s4
    4fb4:	004e7e13          	and	t3,t3,4
    4fb8:	000e0663          	beqz	t3,4fc4 <_vfiprintf_r+0x348>
    4fbc:	41d88db3          	sub	s11,a7,t4
    4fc0:	21b04a63          	bgtz	s11,51d4 <_vfiprintf_r+0x558>
    4fc4:	01d8d463          	bge	a7,t4,4fcc <_vfiprintf_r+0x350>
    4fc8:	000e8893          	mv	a7,t4
    4fcc:	00c12703          	lw	a4,12(sp)
    4fd0:	01170733          	add	a4,a4,a7
