
main.elf:     file format elf32-littleriscv


Disassembly of section .text:

00000000 <__crt0_entry>:
       0:	f14020f3          	csrr	ra,mhartid
       4:	80080217          	auipc	tp,0x80080
       8:	ffb20213          	add	tp,tp,-5 # 8007ffff <__crt0_ram_last>
       c:	ff027113          	and	sp,tp,-16
      10:	80000197          	auipc	gp,0x80000
      14:	7f018193          	add	gp,gp,2032 # 80000800 <__global_pointer>
      18:	000022b7          	lui	t0,0x2
      1c:	80028293          	add	t0,t0,-2048 # 1800 <_malloc_r+0x600>
      20:	30029073          	csrw	mstatus,t0
      24:	00000317          	auipc	t1,0x0
      28:	18030313          	add	t1,t1,384 # 1a4 <__crt0_trap>
      2c:	30531073          	csrw	mtvec,t1
      30:	30401073          	csrw	mie,zero
      34:	0000f397          	auipc	t2,0xf
      38:	31c38393          	add	t2,t2,796 # f350 <__crt0_copy_data_src_begin>
      3c:	80000417          	auipc	s0,0x80000
      40:	fc440413          	add	s0,s0,-60 # 80000000 <_impure_data>
      44:	80000497          	auipc	s1,0x80000
      48:	6d048493          	add	s1,s1,1744 # 80000714 <curr_heap.0>
      4c:	80000517          	auipc	a0,0x80000
      50:	6c850513          	add	a0,a0,1736 # 80000714 <curr_heap.0>
      54:	80001597          	auipc	a1,0x80001
      58:	8c058593          	add	a1,a1,-1856 # 80000914 <__crt0_bss_end>
      5c:	00000613          	li	a2,0
      60:	00000693          	li	a3,0
      64:	00000713          	li	a4,0
      68:	00000793          	li	a5,0
      6c:	00000813          	li	a6,0
      70:	00000893          	li	a7,0
      74:	00000913          	li	s2,0
      78:	00000993          	li	s3,0
      7c:	00000a13          	li	s4,0
      80:	00000a93          	li	s5,0
      84:	00000b13          	li	s6,0
      88:	00000b93          	li	s7,0
      8c:	00000c13          	li	s8,0
      90:	00000c93          	li	s9,0
      94:	00000d13          	li	s10,0
      98:	00000d93          	li	s11,0
      9c:	00000e13          	li	t3,0
      a0:	00000e93          	li	t4,0
      a4:	00000f13          	li	t5,0
      a8:	00000f93          	li	t6,0

000000ac <__crt0_smp_check>:
      ac:	02008a63          	beqz	ra,e0 <__crt0_smp_primary>
      b0:	00000797          	auipc	a5,0x0
      b4:	01878793          	add	a5,a5,24 # c8 <__crt0_smp_wakeup>
      b8:	30579073          	csrw	mtvec,a5
      bc:	30446073          	csrs	mie,8
      c0:	30046073          	csrs	mstatus,8
      c4:	0d80006f          	j	19c <__crt0_sleep>

000000c8 <__crt0_smp_wakeup>:
      c8:	fff44737          	lui	a4,0xfff44
      cc:	00872103          	lw	sp,8(a4) # fff44008 <__crt0_ram_last+0x7fec4009>
      d0:	00c72603          	lw	a2,12(a4)
      d4:	fff40737          	lui	a4,0xfff40
      d8:	00072223          	sw	zero,4(a4) # fff40004 <__crt0_ram_last+0x7fec0005>
      dc:	05c0006f          	j	138 <__crt0_main_entry>

000000e0 <__crt0_smp_primary>:
      e0:	00838e63          	beq	t2,s0,fc <__crt0_bss_clear>

000000e4 <__crt0_data_copy>:
      e4:	00945c63          	bge	s0,s1,fc <__crt0_bss_clear>
      e8:	0003a783          	lw	a5,0(t2)
      ec:	00f42023          	sw	a5,0(s0)
      f0:	00438393          	add	t2,t2,4
      f4:	00440413          	add	s0,s0,4
      f8:	fedff06f          	j	e4 <__crt0_data_copy>

000000fc <__crt0_bss_clear>:
      fc:	00b55863          	bge	a0,a1,10c <__crt0_bss_clear_end>
     100:	00052023          	sw	zero,0(a0)
     104:	00450513          	add	a0,a0,4
     108:	ff5ff06f          	j	fc <__crt0_bss_clear>

0000010c <__crt0_bss_clear_end>:
     10c:	0000f417          	auipc	s0,0xf
     110:	85040413          	add	s0,s0,-1968 # e95c <__fini_array_end>
     114:	0000f497          	auipc	s1,0xf
     118:	84848493          	add	s1,s1,-1976 # e95c <__fini_array_end>

0000011c <__crt0_constructors>:
     11c:	00945a63          	bge	s0,s1,130 <__crt0_constructors_end>
     120:	00042083          	lw	ra,0(s0)
     124:	000080e7          	jalr	ra
     128:	00440413          	add	s0,s0,4
     12c:	ff1ff06f          	j	11c <__crt0_constructors>

00000130 <__crt0_constructors_end>:
     130:	00000617          	auipc	a2,0x0
     134:	22860613          	add	a2,a2,552 # 358 <main>

00000138 <__crt0_main_entry>:
     138:	80000197          	auipc	gp,0x80000
     13c:	6c818193          	add	gp,gp,1736 # 80000800 <__global_pointer>
     140:	0ff0000f          	fence
     144:	0000100f          	fence.i
     148:	30029073          	csrw	mstatus,t0
     14c:	00000513          	li	a0,0
     150:	00000593          	li	a1,0
     154:	000600e7          	jalr	a2

00000158 <__crt0_main_exit>:
     158:	30401073          	csrw	mie,zero
     15c:	34051073          	csrw	mscratch,a0
     160:	00000517          	auipc	a0,0x0
     164:	04450513          	add	a0,a0,68 # 1a4 <__crt0_trap>
     168:	30551073          	csrw	mtvec,a0
     16c:	f1402473          	csrr	s0,mhartid
     170:	02041463          	bnez	s0,198 <__crt0_destructors_end>
     174:	0000e417          	auipc	s0,0xe
     178:	7e840413          	add	s0,s0,2024 # e95c <__fini_array_end>
     17c:	0000e497          	auipc	s1,0xe
     180:	7e048493          	add	s1,s1,2016 # e95c <__fini_array_end>

00000184 <__crt0_destructors>:
     184:	00945a63          	bge	s0,s1,198 <__crt0_destructors_end>
     188:	00042083          	lw	ra,0(s0)
     18c:	000080e7          	jalr	ra
     190:	00440413          	add	s0,s0,4
     194:	ff1ff06f          	j	184 <__crt0_destructors>

00000198 <__crt0_destructors_end>:
     198:	00100073          	ebreak

0000019c <__crt0_sleep>:
     19c:	10500073          	wfi
     1a0:	ffdff06f          	j	19c <__crt0_sleep>

000001a4 <__crt0_trap>:
     1a4:	34041073          	csrw	mscratch,s0
     1a8:	34202473          	csrr	s0,mcause
     1ac:	01f45413          	srl	s0,s0,0x1f
     1b0:	02041663          	bnez	s0,1dc <__crt0_trap_end>
     1b4:	34102473          	csrr	s0,mepc
     1b8:	00440413          	add	s0,s0,4
     1bc:	34141073          	csrw	mepc,s0
     1c0:	34a02473          	csrr	s0,0x34a
     1c4:	00347413          	and	s0,s0,3
     1c8:	ffd40413          	add	s0,s0,-3
     1cc:	00040863          	beqz	s0,1dc <__crt0_trap_end>
     1d0:	34102473          	csrr	s0,mepc
     1d4:	ffe40413          	add	s0,s0,-2
     1d8:	34141073          	csrw	mepc,s0

000001dc <__crt0_trap_end>:
     1dc:	34002473          	csrr	s0,mscratch
     1e0:	30200073          	mret

000001e4 <rdcycle>:
   ======================= */
static inline uint64_t rdcycle(void) {
#if __riscv_xlen == 32 || !defined(__riscv_xlen)
  uint32_t hi1, lo, hi2;
  do {
    __asm__ volatile ("csrr %0, mcycleh" : "=r"(hi1));
     1e4:	b80025f3          	csrr	a1,mcycleh
    __asm__ volatile ("csrr %0, mcycle"  : "=r"(lo));
     1e8:	b0002573          	csrr	a0,mcycle
    __asm__ volatile ("csrr %0, mcycleh" : "=r"(hi2));
     1ec:	b80027f3          	csrr	a5,mcycleh
  } while (hi1 != hi2);
     1f0:	fef59ae3          	bne	a1,a5,1e4 <rdcycle>
  return ((uint64_t)hi1 << 32) | lo;
#else
  uint64_t v; __asm__ volatile ("csrr %0, mcycle" : "=r"(v)); return v;
#endif
}
     1f4:	00008067          	ret

000001f8 <rdinstret>:
static inline uint64_t rdinstret(void) {
#if __riscv_xlen == 32 || !defined(__riscv_xlen)
  uint32_t hi1, lo, hi2;
  do {
    __asm__ volatile ("csrr %0, minstreth" : "=r"(hi1));
     1f8:	b82025f3          	csrr	a1,minstreth
    __asm__ volatile ("csrr %0, minstret"  : "=r"(lo));
     1fc:	b0202573          	csrr	a0,minstret
    __asm__ volatile ("csrr %0, minstreth" : "=r"(hi2));
     200:	b82027f3          	csrr	a5,minstreth
  } while (hi1 != hi2);
     204:	fef59ae3          	bne	a1,a5,1f8 <rdinstret>
  return ((uint64_t)hi1 << 32) | lo;
#else
  uint64_t v; __asm__ volatile ("csrr %0, minstret" : "=r"(v)); return v;
#endif
}
     208:	00008067          	ret

0000020c <print_i32_2x2>:
}

/* =======================
   Utilities
   ======================= */
static void print_i32_2x2(const char* name, const int32_t C[2][2]) {
     20c:	ff010113          	add	sp,sp,-16
     210:	00812423          	sw	s0,8(sp)
     214:	00058413          	mv	s0,a1
  printf("%s:\n", name);
     218:	00050593          	mv	a1,a0
     21c:	0000f537          	lui	a0,0xf
     220:	96050513          	add	a0,a0,-1696 # e960 <__fini_array_end+0x4>
static void print_i32_2x2(const char* name, const int32_t C[2][2]) {
     224:	00112623          	sw	ra,12(sp)
     228:	00912223          	sw	s1,4(sp)
  printf("%s:\n", name);
     22c:	029000ef          	jal	a54 <printf>
  printf("%6ld %6ld\n", (long)C[0][0], (long)C[0][1]);
     230:	00442603          	lw	a2,4(s0)
     234:	00042583          	lw	a1,0(s0)
     238:	0000f4b7          	lui	s1,0xf
     23c:	96848513          	add	a0,s1,-1688 # e968 <__fini_array_end+0xc>
     240:	015000ef          	jal	a54 <printf>
  printf("%6ld %6ld\n", (long)C[1][0], (long)C[1][1]);
     244:	00c42603          	lw	a2,12(s0)
     248:	00842583          	lw	a1,8(s0)
}
     24c:	00812403          	lw	s0,8(sp)
     250:	00c12083          	lw	ra,12(sp)
  printf("%6ld %6ld\n", (long)C[1][0], (long)C[1][1]);
     254:	96848513          	add	a0,s1,-1688
}
     258:	00412483          	lw	s1,4(sp)
     25c:	01010113          	add	sp,sp,16
  printf("%6ld %6ld\n", (long)C[1][0], (long)C[1][1]);
     260:	7f40006f          	j	a54 <printf>

00000264 <print_speedup_fixed>:

/* Print speedup as fixed-point with 3 decimals: (num/den) ≈ X.YYYx */
static void print_speedup_fixed(const char* label, uint64_t num, uint64_t den) {
     264:	fe010113          	add	sp,sp,-32
     268:	01212823          	sw	s2,16(sp)
     26c:	00112e23          	sw	ra,28(sp)
     270:	00812c23          	sw	s0,24(sp)
     274:	00912a23          	sw	s1,20(sp)
  if (den == 0) { printf("%s: n/a\n", label); return; }
     278:	00e6e7b3          	or	a5,a3,a4
static void print_speedup_fixed(const char* label, uint64_t num, uint64_t den) {
     27c:	00050913          	mv	s2,a0
  if (den == 0) { printf("%s: n/a\n", label); return; }
     280:	02079463          	bnez	a5,2a8 <print_speedup_fixed+0x44>
  uint64_t scaled = (num * 1000ull + den/2) / den; /* rounded */
  uint64_t i = scaled / 1000ull;
  uint64_t f = scaled % 1000ull;
  printf("%s: %" PRIu64 ".%03" PRIu64 "x\n", label, i, f);
}
     284:	01812403          	lw	s0,24(sp)
     288:	01c12083          	lw	ra,28(sp)
     28c:	01412483          	lw	s1,20(sp)
     290:	01012903          	lw	s2,16(sp)
  if (den == 0) { printf("%s: n/a\n", label); return; }
     294:	00050593          	mv	a1,a0
     298:	0000f537          	lui	a0,0xf
     29c:	97450513          	add	a0,a0,-1676 # e974 <__fini_array_end+0x18>
}
     2a0:	02010113          	add	sp,sp,32
  if (den == 0) { printf("%s: n/a\n", label); return; }
     2a4:	7b00006f          	j	a54 <printf>
     2a8:	00068493          	mv	s1,a3
     2ac:	00058513          	mv	a0,a1
  uint64_t scaled = (num * 1000ull + den/2) / den; /* rounded */
     2b0:	00000693          	li	a3,0
     2b4:	00060593          	mv	a1,a2
     2b8:	3e800613          	li	a2,1000
     2bc:	00070413          	mv	s0,a4
     2c0:	4c80e0ef          	jal	e788 <__muldi3>
     2c4:	01f41713          	sll	a4,s0,0x1f
     2c8:	0014d813          	srl	a6,s1,0x1
     2cc:	01076833          	or	a6,a4,a6
     2d0:	00050793          	mv	a5,a0
     2d4:	00145713          	srl	a4,s0,0x1
     2d8:	01050533          	add	a0,a0,a6
     2dc:	00f537b3          	sltu	a5,a0,a5
     2e0:	00e585b3          	add	a1,a1,a4
     2e4:	00b785b3          	add	a1,a5,a1
     2e8:	00048613          	mv	a2,s1
     2ec:	00040693          	mv	a3,s0
     2f0:	4a10a0ef          	jal	af90 <__udivdi3>
  uint64_t f = scaled % 1000ull;
     2f4:	3e800613          	li	a2,1000
     2f8:	00000693          	li	a3,0
  uint64_t scaled = (num * 1000ull + den/2) / den; /* rounded */
     2fc:	00050493          	mv	s1,a0
     300:	00058413          	mv	s0,a1
  uint64_t f = scaled % 1000ull;
     304:	3380b0ef          	jal	b63c <__umoddi3>
     308:	00a12623          	sw	a0,12(sp)
     30c:	00b12423          	sw	a1,8(sp)
  uint64_t i = scaled / 1000ull;
     310:	3e800613          	li	a2,1000
     314:	00000693          	li	a3,0
     318:	00048513          	mv	a0,s1
     31c:	00040593          	mv	a1,s0
     320:	4710a0ef          	jal	af90 <__udivdi3>
}
     324:	01812403          	lw	s0,24(sp)
  printf("%s: %" PRIu64 ".%03" PRIu64 "x\n", label, i, f);
     328:	00c12703          	lw	a4,12(sp)
     32c:	00812783          	lw	a5,8(sp)
}
     330:	01c12083          	lw	ra,28(sp)
     334:	01412483          	lw	s1,20(sp)
  uint64_t i = scaled / 1000ull;
     338:	00058693          	mv	a3,a1
  printf("%s: %" PRIu64 ".%03" PRIu64 "x\n", label, i, f);
     33c:	00090593          	mv	a1,s2
}
     340:	01012903          	lw	s2,16(sp)
  uint64_t i = scaled / 1000ull;
     344:	00050613          	mv	a2,a0
  printf("%s: %" PRIu64 ".%03" PRIu64 "x\n", label, i, f);
     348:	0000f537          	lui	a0,0xf
     34c:	98050513          	add	a0,a0,-1664 # e980 <__fini_array_end+0x24>
}
     350:	02010113          	add	sp,sp,32
  printf("%s: %" PRIu64 ".%03" PRIu64 "x\n", label, i, f);
     354:	7000006f          	j	a54 <printf>

00000358 <main>:
  /* B = [[5,6],[7,8]] */
  BKx2[0*LDB2 + 0] = 5;  BKx2[0*LDB2 + 1] = 6;
  BKx2[1*LDB2 + 0] = 7;  BKx2[1*LDB2 + 1] = 8;
}

int main(void) {
     358:	f5010113          	add	sp,sp,-176
     35c:	09612823          	sw	s6,144(sp)
static inline uint32_t cfs_read (uint32_t off)             { return CFS_REG(off); }
     360:	ffeb0b37          	lui	s6,0xffeb0
     364:	000b2583          	lw	a1,0(s6) # ffeb0000 <__crt0_ram_last+0x7fe30001>
  /* Check ID */
  uint32_t id = cfs_read(CFS_CTL);
  printf("CFS ID = 0x%08" PRIX32 " (expect 0xCAFEBABE)\n", id);
     368:	0000f537          	lui	a0,0xf
     36c:	9bc50513          	add	a0,a0,-1604 # e9bc <__fini_array_end+0x60>
int main(void) {
     370:	0a112623          	sw	ra,172(sp)
     374:	0a812423          	sw	s0,168(sp)
     378:	0a912223          	sw	s1,164(sp)
     37c:	0b212023          	sw	s2,160(sp)
     380:	09312e23          	sw	s3,156(sp)
     384:	09412c23          	sw	s4,152(sp)
     388:	09512a23          	sw	s5,148(sp)
     38c:	09712623          	sw	s7,140(sp)
     390:	09812423          	sw	s8,136(sp)
     394:	09912223          	sw	s9,132(sp)
     398:	09a12023          	sw	s10,128(sp)
     39c:	07b12e23          	sw	s11,124(sp)
  printf("CFS ID = 0x%08" PRIX32 " (expect 0xCAFEBABE)\n", id);
     3a0:	6b4000ef          	jal	a54 <printf>
  int8_t A2xK[2*2], BKx2[2*2]; int K;
  make_example_2x2(A2xK, LDA2, BKx2, LDB2, &K);

  /* ===== SW multiply timing ===== */
  int32_t C_sw[2][2];
  uint64_t c0 = rdcycle(), i0 = rdinstret();
     3a4:	e41ff0ef          	jal	1e4 <rdcycle>
     3a8:	00058a13          	mv	s4,a1
     3ac:	00050913          	mv	s2,a0
     3b0:	e49ff0ef          	jal	1f8 <rdinstret>
     3b4:	01300793          	li	a5,19
     3b8:	00f12823          	sw	a5,16(sp)
     3bc:	01600793          	li	a5,22
     3c0:	00f12a23          	sw	a5,20(sp)
     3c4:	02b00793          	li	a5,43
     3c8:	00f12c23          	sw	a5,24(sp)
     3cc:	03200793          	li	a5,50
     3d0:	00058a93          	mv	s5,a1
     3d4:	00f12e23          	sw	a5,28(sp)
     3d8:	00050493          	mv	s1,a0
  gemm_ref_2xK_Kx2(A2xK, LDA2, BKx2, LDB2, K, C_sw);
  uint64_t i1 = rdinstret(), c1 = rdcycle();
     3dc:	e1dff0ef          	jal	1f8 <rdinstret>
     3e0:	00050993          	mv	s3,a0
     3e4:	00058413          	mv	s0,a1
     3e8:	dfdff0ef          	jal	1e4 <rdcycle>
  uint64_t sw_cycles  = c1 - c0;
     3ec:	41250933          	sub	s2,a0,s2
     3f0:	012537b3          	sltu	a5,a0,s2
     3f4:	414585b3          	sub	a1,a1,s4
  uint64_t sw_instret = i1 - i0;
     3f8:	409984b3          	sub	s1,s3,s1
  uint64_t sw_cycles  = c1 - c0;
     3fc:	40f58a33          	sub	s4,a1,a5
  uint64_t sw_instret = i1 - i0;
     400:	0099b9b3          	sltu	s3,s3,s1

  /* ===== CFS multiply timing ===== */
  int32_t C_hw[2][2];
  c0 = rdcycle(); i0 = rdinstret();
     404:	de1ff0ef          	jal	1e4 <rdcycle>
  uint64_t sw_instret = i1 - i0;
     408:	41540433          	sub	s0,s0,s5
     40c:	41340433          	sub	s0,s0,s3
  c0 = rdcycle(); i0 = rdinstret();
     410:	00b12023          	sw	a1,0(sp)
     414:	00050993          	mv	s3,a0
     418:	de1ff0ef          	jal	1f8 <rdinstret>
     41c:	00a12223          	sw	a0,4(sp)
  for (int i = 0; i < 4*LDA; ++i) A_flat[i] = 0;
     420:	80000537          	lui	a0,0x80000
     424:	03e00613          	li	a2,62
  c0 = rdcycle(); i0 = rdinstret();
     428:	00058a93          	mv	s5,a1
  for (int i = 0; i < 4*LDA; ++i) A_flat[i] = 0;
     42c:	77650513          	add	a0,a0,1910 # 80000776 <A_flat.1+0x2>
     430:	00000593          	li	a1,0
     434:	670000ef          	jal	aa4 <memset>
  for (int k = 0; k < MAXK*LDB; ++k) B_flat[k] = 0;
     438:	80000537          	lui	a0,0x80000
     43c:	03e00613          	li	a2,62
     440:	00000593          	li	a1,0
     444:	73650513          	add	a0,a0,1846 # 80000736 <B_flat.0+0x2>
     448:	65c000ef          	jal	aa4 <memset>
    for (int k = 0; k < K; ++k) A_flat[i*LDA + k] = A2xK[i*LDA2 + k];
     44c:	80000637          	lui	a2,0x80000
     450:	20100793          	li	a5,513
     454:	76f61a23          	sh	a5,1908(a2) # 80000774 <A_flat.1>
     458:	40300713          	li	a4,1027
     45c:	77460793          	add	a5,a2,1908
     460:	00e79823          	sh	a4,16(a5)
    B_flat[k*LDB + 0] = B_Kx2[k*LDB2 + 0];
     464:	800005b7          	lui	a1,0x80000
     468:	60500793          	li	a5,1541
     46c:	72f59a23          	sh	a5,1844(a1) # 80000734 <B_flat.0>
     470:	000017b7          	lui	a5,0x1
     474:	73458713          	add	a4,a1,1844
     478:	80778793          	add	a5,a5,-2041 # 807 <_kill+0x7>
     47c:	00f71223          	sh	a5,4(a4)
static inline void     cfs_write(uint32_t off, uint32_t val){ CFS_REG(off)=val; }
     480:	ffeb0bb7          	lui	s7,0xffeb0
     484:	00200793          	li	a5,2
     488:	ffeb00b7          	lui	ra,0xffeb0
     48c:	ffeb03b7          	lui	t2,0xffeb0
     490:	ffeb02b7          	lui	t0,0xffeb0
     494:	ffeb0fb7          	lui	t6,0xffeb0
     498:	ffeb0f37          	lui	t5,0xffeb0
     49c:	ffeb0eb7          	lui	t4,0xffeb0
     4a0:	00fb2023          	sw	a5,0(s6)
  for (int t = 0; t < T; t += 4) {
     4a4:	00000813          	li	a6,0
     4a8:	77460613          	add	a2,a2,1908
     4ac:	73458593          	add	a1,a1,1844
        if (k >= 0 && k < K) a_bytes[i][s] = A_flat[i*LDA + k];
     4b0:	00100713          	li	a4,1
      for (int s = 0; s < 4; ++s) {
     4b4:	00400c13          	li	s8,4
static inline void     cfs_write(uint32_t off, uint32_t val){ CFS_REG(off)=val; }
     4b8:	ffeb08b7          	lui	a7,0xffeb0
     4bc:	004b8b93          	add	s7,s7,4 # ffeb0004 <__crt0_ram_last+0x7fe30005>
     4c0:	008b0b13          	add	s6,s6,8
     4c4:	00c08093          	add	ra,ra,12 # ffeb000c <__crt0_ram_last+0x7fe3000d>
     4c8:	01038393          	add	t2,t2,16 # ffeb0010 <__crt0_ram_last+0x7fe30011>
     4cc:	01428293          	add	t0,t0,20 # ffeb0014 <__crt0_ram_last+0x7fe30015>
     4d0:	018f8f93          	add	t6,t6,24 # ffeb0018 <__crt0_ram_last+0x7fe30019>
     4d4:	01cf0f13          	add	t5,t5,28 # ffeb001c <__crt0_ram_last+0x7fe3001d>
     4d8:	020e8e93          	add	t4,t4,32 # ffeb0020 <__crt0_ram_last+0x7fe30021>
    int8_t a_bytes[4][4] = {{0}};
     4dc:	02012023          	sw	zero,32(sp)
     4e0:	02012223          	sw	zero,36(sp)
     4e4:	02012423          	sw	zero,40(sp)
     4e8:	02012623          	sw	zero,44(sp)
    int8_t b_bytes[4][4] = {{0}};
     4ec:	02012823          	sw	zero,48(sp)
     4f0:	02012a23          	sw	zero,52(sp)
     4f4:	02012c23          	sw	zero,56(sp)
     4f8:	02012e23          	sw	zero,60(sp)
    for (int i = 0; i < 4; ++i)
     4fc:	00060e13          	mv	t3,a2
     500:	02010313          	add	t1,sp,32
     504:	00000513          	li	a0,0
      for (int s = 0; s < 4; ++s) {
     508:	40a806b3          	sub	a3,a6,a0
     50c:	00000793          	li	a5,0
        if (k >= 0 && k < K) a_bytes[i][s] = A_flat[i*LDA + k];
     510:	00d76a63          	bltu	a4,a3,524 <main+0x1cc>
     514:	00de0d33          	add	s10,t3,a3
     518:	000d4d03          	lbu	s10,0(s10)
     51c:	00f30cb3          	add	s9,t1,a5
     520:	01ac8023          	sb	s10,0(s9)
      for (int s = 0; s < 4; ++s) {
     524:	00178793          	add	a5,a5,1
     528:	00168693          	add	a3,a3,1
     52c:	ff8792e3          	bne	a5,s8,510 <main+0x1b8>
    for (int i = 0; i < 4; ++i)
     530:	00150513          	add	a0,a0,1
     534:	010e0e13          	add	t3,t3,16
     538:	00430313          	add	t1,t1,4
     53c:	fd8516e3          	bne	a0,s8,508 <main+0x1b0>
     540:	03010e13          	add	t3,sp,48
    for (int j = 0; j < 4; ++j)
     544:	00000793          	li	a5,0
     548:	000e0693          	mv	a3,t3
      for (int s = 0; s < 4; ++s) {
     54c:	40f80333          	sub	t1,a6,a5
     550:	00000513          	li	a0,0
        if (k >= 0 && k < K) b_bytes[j][s] = B_flat[k*LDB + j];
     554:	00f58d33          	add	s10,a1,a5
     558:	00676c63          	bltu	a4,t1,570 <main+0x218>
     55c:	00231d93          	sll	s11,t1,0x2
     560:	01bd0db3          	add	s11,s10,s11
     564:	000dcd83          	lbu	s11,0(s11)
     568:	00ae0cb3          	add	s9,t3,a0
     56c:	01bc8023          	sb	s11,0(s9)
      for (int s = 0; s < 4; ++s) {
     570:	00150513          	add	a0,a0,1
     574:	00130313          	add	t1,t1,1
     578:	ff8510e3          	bne	a0,s8,558 <main+0x200>
    for (int j = 0; j < 4; ++j)
     57c:	00178793          	add	a5,a5,1
     580:	004e0e13          	add	t3,t3,4
     584:	fca794e3          	bne	a5,a0,54c <main+0x1f4>
         (((uint32_t)(uint8_t)x2) << 16) |
     588:	02012503          	lw	a0,32(sp)
static inline void     cfs_write(uint32_t off, uint32_t val){ CFS_REG(off)=val; }
     58c:	00aba023          	sw	a0,0(s7)
         (((uint32_t)(uint8_t)x2) << 16) |
     590:	02412503          	lw	a0,36(sp)
static inline void     cfs_write(uint32_t off, uint32_t val){ CFS_REG(off)=val; }
     594:	00ab2023          	sw	a0,0(s6)
         (((uint32_t)(uint8_t)x2) << 16) |
     598:	02812503          	lw	a0,40(sp)
static inline void     cfs_write(uint32_t off, uint32_t val){ CFS_REG(off)=val; }
     59c:	00a0a023          	sw	a0,0(ra)
         (((uint32_t)(uint8_t)x2) << 16) |
     5a0:	02c12503          	lw	a0,44(sp)
static inline void     cfs_write(uint32_t off, uint32_t val){ CFS_REG(off)=val; }
     5a4:	00a3a023          	sw	a0,0(t2)
         (((uint32_t)(uint8_t)x2) << 16) |
     5a8:	03012503          	lw	a0,48(sp)
static inline void     cfs_write(uint32_t off, uint32_t val){ CFS_REG(off)=val; }
     5ac:	00a2a023          	sw	a0,0(t0)
         (((uint32_t)(uint8_t)x2) << 16) |
     5b0:	03412503          	lw	a0,52(sp)
static inline void     cfs_write(uint32_t off, uint32_t val){ CFS_REG(off)=val; }
     5b4:	00afa023          	sw	a0,0(t6)
         (((uint32_t)(uint8_t)x2) << 16) |
     5b8:	03812503          	lw	a0,56(sp)
static inline void     cfs_write(uint32_t off, uint32_t val){ CFS_REG(off)=val; }
     5bc:	00af2023          	sw	a0,0(t5)
         (((uint32_t)(uint8_t)x2) << 16) |
     5c0:	03c12503          	lw	a0,60(sp)
static inline void     cfs_write(uint32_t off, uint32_t val){ CFS_REG(off)=val; }
     5c4:	00aea023          	sw	a0,0(t4)
     5c8:	00e8a023          	sw	a4,0(a7) # ffeb0000 <__crt0_ram_last+0x7fe30001>
     5cc:	00e8a023          	sw	a4,0(a7)
     5d0:	00e8a023          	sw	a4,0(a7)
     5d4:	00e8a023          	sw	a4,0(a7)
  for (int t = 0; t < T; t += 4) {
     5d8:	1cf81e63          	bne	a6,a5,7b4 <main+0x45c>
static inline uint32_t cfs_read (uint32_t off)             { return CFS_REG(off); }
     5dc:	ffeb05b7          	lui	a1,0xffeb0
  for (int t = 0; t < T; t += 4) {
     5e0:	00000713          	li	a4,0
static inline uint32_t cfs_read (uint32_t off)             { return CFS_REG(off); }
     5e4:	04058593          	add	a1,a1,64 # ffeb0040 <__crt0_ram_last+0x7fe30041>
    for (int j = 0; j < 4; ++j)
     5e8:	01000513          	li	a0,16
     5ec:	00271613          	sll	a2,a4,0x2
      dst[i][j] = (int32_t)cfs_read(CFS_C0 + i*4 + j);
     5f0:	00000793          	li	a5,0
static inline uint32_t cfs_read (uint32_t off)             { return CFS_REG(off); }
     5f4:	00b60633          	add	a2,a2,a1
     5f8:	00f60833          	add	a6,a2,a5
     5fc:	00082883          	lw	a7,0(a6)
      dst[i][j] = (int32_t)cfs_read(CFS_C0 + i*4 + j);
     600:	00f68833          	add	a6,a3,a5
    for (int j = 0; j < 4; ++j)
     604:	00478793          	add	a5,a5,4
      dst[i][j] = (int32_t)cfs_read(CFS_C0 + i*4 + j);
     608:	01182023          	sw	a7,0(a6)
    for (int j = 0; j < 4; ++j)
     60c:	fea796e3          	bne	a5,a0,5f8 <main+0x2a0>
  for (int i = 0; i < 4; ++i)
     610:	00470713          	add	a4,a4,4
     614:	01068693          	add	a3,a3,16
     618:	fcf71ae3          	bne	a4,a5,5ec <main+0x294>
  C2x2[0][0] = C4[0][0]; C2x2[0][1] = C4[0][1];
     61c:	03012703          	lw	a4,48(sp)
     620:	03412783          	lw	a5,52(sp)
  C2x2[1][0] = C4[1][0]; C2x2[1][1] = C4[1][1];
     624:	04012d83          	lw	s11,64(sp)
     628:	04412d03          	lw	s10,68(sp)
  C2x2[0][0] = C4[0][0]; C2x2[0][1] = C4[0][1];
     62c:	02e12023          	sw	a4,32(sp)
     630:	00e12623          	sw	a4,12(sp)
     634:	02f12223          	sw	a5,36(sp)
     638:	00f12423          	sw	a5,8(sp)
  C2x2[1][0] = C4[1][0]; C2x2[1][1] = C4[1][1];
     63c:	03b12423          	sw	s11,40(sp)
     640:	03a12623          	sw	s10,44(sp)
  cfs_gemm_2xK_Kx2(A2xK, LDA2, BKx2, LDB2, K, C_hw);
  i1 = rdinstret(); c1 = rdcycle();
     644:	bb5ff0ef          	jal	1f8 <rdinstret>
     648:	00050c13          	mv	s8,a0
     64c:	00058b13          	mv	s6,a1
     650:	b95ff0ef          	jal	1e4 <rdcycle>
  uint64_t cfs_cycles  = c1 - c0;
     654:	00012783          	lw	a5,0(sp)
     658:	413509b3          	sub	s3,a0,s3
     65c:	01353533          	sltu	a0,a0,s3
     660:	40f58bb3          	sub	s7,a1,a5
  uint64_t cfs_instret = i1 - i0;
     664:	00412783          	lw	a5,4(sp)
  uint64_t cfs_cycles  = c1 - c0;
     668:	40ab8bb3          	sub	s7,s7,a0

  /* Output */
  print_i32_2x2("C (HW)", C_hw);
     66c:	0000f537          	lui	a0,0xf
     670:	02010593          	add	a1,sp,32
     674:	9e450513          	add	a0,a0,-1564 # e9e4 <__fini_array_end+0x88>
  uint64_t cfs_instret = i1 - i0;
     678:	40fc0cb3          	sub	s9,s8,a5
  print_i32_2x2("C (HW)", C_hw);
     67c:	b91ff0ef          	jal	20c <print_i32_2x2>
  print_i32_2x2("C (SW)", C_sw);
     680:	0000f537          	lui	a0,0xf
     684:	01010593          	add	a1,sp,16
     688:	9ec50513          	add	a0,a0,-1556 # e9ec <__fini_array_end+0x90>
     68c:	b81ff0ef          	jal	20c <print_i32_2x2>

  int pass = (C_hw[0][0]==C_sw[0][0]) && (C_hw[0][1]==C_sw[0][1]) &&
             (C_hw[1][0]==C_sw[1][0]) && (C_hw[1][1]==C_sw[1][1]);
     690:	01012683          	lw	a3,16(sp)
     694:	00c12703          	lw	a4,12(sp)
  uint64_t cfs_instret = i1 - i0;
     698:	415b0b33          	sub	s6,s6,s5
     69c:	019c3c33          	sltu	s8,s8,s9
             (C_hw[1][0]==C_sw[1][0]) && (C_hw[1][1]==C_sw[1][1]);
     6a0:	00812783          	lw	a5,8(sp)
  uint64_t cfs_instret = i1 - i0;
     6a4:	418b0b33          	sub	s6,s6,s8
             (C_hw[1][0]==C_sw[1][0]) && (C_hw[1][1]==C_sw[1][1]);
     6a8:	00000a93          	li	s5,0
     6ac:	02e69063          	bne	a3,a4,6cc <main+0x374>
  int pass = (C_hw[0][0]==C_sw[0][0]) && (C_hw[0][1]==C_sw[0][1]) &&
     6b0:	01412703          	lw	a4,20(sp)
     6b4:	00f71c63          	bne	a4,a5,6cc <main+0x374>
     6b8:	01812783          	lw	a5,24(sp)
     6bc:	01b79863          	bne	a5,s11,6cc <main+0x374>
             (C_hw[1][0]==C_sw[1][0]) && (C_hw[1][1]==C_sw[1][1]);
     6c0:	01c12a83          	lw	s5,28(sp)
     6c4:	41aa8ab3          	sub	s5,s5,s10
     6c8:	001aba93          	seqz	s5,s5

  printf("\nSW:  cycles=%" PRIu64 "  instret=%" PRIu64 "\n", sw_cycles,  sw_instret);
     6cc:	0000f537          	lui	a0,0xf
     6d0:	00048713          	mv	a4,s1
     6d4:	00040793          	mv	a5,s0
     6d8:	00090613          	mv	a2,s2
     6dc:	000a0693          	mv	a3,s4
     6e0:	9f450513          	add	a0,a0,-1548 # e9f4 <__fini_array_end+0x98>
     6e4:	370000ef          	jal	a54 <printf>
  printf("CFS: cycles=%" PRIu64 "  instret=%" PRIu64 "\n", cfs_cycles, cfs_instret);
     6e8:	0000f537          	lui	a0,0xf
     6ec:	000b0793          	mv	a5,s6
     6f0:	000c8713          	mv	a4,s9
     6f4:	00098613          	mv	a2,s3
     6f8:	000b8693          	mv	a3,s7
     6fc:	a1850513          	add	a0,a0,-1512 # ea18 <__fini_array_end+0xbc>
     700:	354000ef          	jal	a54 <printf>

  if (sw_cycles && cfs_cycles) {
     704:	014967b3          	or	a5,s2,s4
     708:	02078463          	beqz	a5,730 <main+0x3d8>
     70c:	0179e7b3          	or	a5,s3,s7
     710:	02078063          	beqz	a5,730 <main+0x3d8>
    print_speedup_fixed("Speedup (cycles)",  sw_cycles,  cfs_cycles);
     714:	0000f537          	lui	a0,0xf
     718:	00098693          	mv	a3,s3
     71c:	000b8713          	mv	a4,s7
     720:	00090593          	mv	a1,s2
     724:	000a0613          	mv	a2,s4
     728:	a3850513          	add	a0,a0,-1480 # ea38 <__fini_array_end+0xdc>
     72c:	b39ff0ef          	jal	264 <print_speedup_fixed>
  }
  if (sw_instret && cfs_instret) {
     730:	0084e7b3          	or	a5,s1,s0
     734:	02078463          	beqz	a5,75c <main+0x404>
     738:	016ce7b3          	or	a5,s9,s6
     73c:	02078063          	beqz	a5,75c <main+0x404>
    print_speedup_fixed("Speedup (instret)", sw_instret, cfs_instret);
     740:	0000f537          	lui	a0,0xf
     744:	000c8693          	mv	a3,s9
     748:	000b0713          	mv	a4,s6
     74c:	00048593          	mv	a1,s1
     750:	00040613          	mv	a2,s0
     754:	a4c50513          	add	a0,a0,-1460 # ea4c <__fini_array_end+0xf0>
     758:	b0dff0ef          	jal	264 <print_speedup_fixed>
  }

  printf("\nVerdict: %s\n", pass ? "PASS (HW matches SW)" : "FAIL (mismatch)");
     75c:	060a8063          	beqz	s5,7bc <main+0x464>
     760:	0000f5b7          	lui	a1,0xf
     764:	99458593          	add	a1,a1,-1644 # e994 <__fini_array_end+0x38>
     768:	0000f537          	lui	a0,0xf
     76c:	a6050513          	add	a0,a0,-1440 # ea60 <__fini_array_end+0x104>
     770:	2e4000ef          	jal	a54 <printf>
  return pass ? 0 : 1;
}
     774:	0ac12083          	lw	ra,172(sp)
     778:	0a812403          	lw	s0,168(sp)
     77c:	0a412483          	lw	s1,164(sp)
     780:	0a012903          	lw	s2,160(sp)
     784:	09c12983          	lw	s3,156(sp)
     788:	09812a03          	lw	s4,152(sp)
     78c:	09012b03          	lw	s6,144(sp)
     790:	08c12b83          	lw	s7,140(sp)
     794:	08812c03          	lw	s8,136(sp)
     798:	08412c83          	lw	s9,132(sp)
     79c:	08012d03          	lw	s10,128(sp)
     7a0:	07c12d83          	lw	s11,124(sp)
     7a4:	001ac513          	xor	a0,s5,1
     7a8:	09412a83          	lw	s5,148(sp)
     7ac:	0b010113          	add	sp,sp,176
     7b0:	00008067          	ret
     7b4:	00400813          	li	a6,4
     7b8:	d25ff06f          	j	4dc <main+0x184>
  printf("\nVerdict: %s\n", pass ? "PASS (HW matches SW)" : "FAIL (mismatch)");
     7bc:	0000f5b7          	lui	a1,0xf
     7c0:	9ac58593          	add	a1,a1,-1620 # e9ac <__fini_array_end+0x50>
     7c4:	fa5ff06f          	j	768 <main+0x410>

000007c8 <_exit>:
 * Exit a program without cleaning up anything.
 **************************************************************************/
void _exit(int status) {

  // put status into register 'a0' and jump to crt0's exit code
  asm volatile (
     7c8:	00000097          	auipc	ra,0x0
     7cc:	99008093          	add	ra,ra,-1648 # 158 <__crt0_main_exit>
     7d0:	00050513          	mv	a0,a0
     7d4:	00008067          	ret

000007d8 <_close>:
  return neorv32_semihosting_close(file);
#else
  (void)file;
  return -1; // no files available
#endif
}
     7d8:	fff00513          	li	a0,-1
     7dc:	00008067          	ret

000007e0 <_fstat>:
 /**********************************************************************//**
 * Status of an open file. All files are regarded as character special devices.
 **************************************************************************/
int _fstat(int file, struct stat *st) {
  (void)file;
  st->st_mode = S_IFCHR;
     7e0:	000027b7          	lui	a5,0x2
     7e4:	00f5a223          	sw	a5,4(a1)
  return 0;
}
     7e8:	00000513          	li	a0,0
     7ec:	00008067          	ret

000007f0 <_getpid>:
 * Process-ID; this is sometimes used to generate strings unlikely to
 * conflict with other processes.
 **************************************************************************/
int _getpid() {
  return 1; // there is only one process by default
}
     7f0:	00100513          	li	a0,1
     7f4:	00008067          	ret

000007f8 <_isatty>:
  return neorv32_semihosting_istty(file);
#else
  (void)file;
  return 1; // all streams are terminals
#endif
}
     7f8:	00100513          	li	a0,1
     7fc:	00008067          	ret

00000800 <_kill>:
 * Send a signal.
 **************************************************************************/
int _kill(int pid, int sig) {
  (void)pid;
  (void)sig;
  errno = EINVAL;
     800:	800007b7          	lui	a5,0x80000
     804:	01600713          	li	a4,22
     808:	70e7ac23          	sw	a4,1816(a5) # 80000718 <errno>
  return -1;
}
     80c:	fff00513          	li	a0,-1
     810:	00008067          	ret

00000814 <_lseek>:
  (void)file;
  (void)ptr;
  (void)dir;
  return 0;
#endif
}
     814:	00000513          	li	a0,0
     818:	00008067          	ret

0000081c <_read>:

 /**********************************************************************//**
 * Read from a file. STDIN will read from UART0, all other input streams
 * will read from UART1.
 **************************************************************************/
int _read(int file, char *ptr, int len) {
     81c:	fe010113          	add	sp,sp,-32
     820:	00912a23          	sw	s1,20(sp)
     824:	01212823          	sw	s2,16(sp)
     828:	00112e23          	sw	ra,28(sp)
     82c:	00812c23          	sw	s0,24(sp)
     830:	01312623          	sw	s3,12(sp)
     834:	01412423          	sw	s4,8(sp)
     838:	00058913          	mv	s2,a1
     83c:	00060493          	mv	s1,a2
#else
  char c = 0;
  int read_cnt = 0;

  // read STDIN stream from NEORV32.UART0 (if available)
  if ((file == STDIN_FILENO) && (neorv32_uart_available(NEORV32_UART0))) {
     840:	06051463          	bnez	a0,8a8 <_read+0x8c>
     844:	00050413          	mv	s0,a0
     848:	fff50537          	lui	a0,0xfff50
     84c:	1a0000ef          	jal	9ec <neorv32_uart_available>
     850:	04050c63          	beqz	a0,8a8 <_read+0x8c>
    while (len--) {
      c = (char)neorv32_uart_getc(NEORV32_UART0);
      *ptr++ = c;
      read_cnt++;
      if ((c == '\n') || (c == '\r')) { // also terminate on [press enter]
     854:	00a00993          	li	s3,10
     858:	00d00a13          	li	s4,13
    while (len--) {
     85c:	00941663          	bne	s0,s1,868 <_read+0x4c>
        return read_cnt;
      }
    }
    return read_cnt;
     860:	00048413          	mv	s0,s1
     864:	0200006f          	j	884 <_read+0x68>
      c = (char)neorv32_uart_getc(NEORV32_UART0);
     868:	fff50537          	lui	a0,0xfff50
     86c:	1d0000ef          	jal	a3c <neorv32_uart_getc>
      *ptr++ = c;
     870:	008907b3          	add	a5,s2,s0
     874:	00a78023          	sb	a0,0(a5)
      read_cnt++;
     878:	00140413          	add	s0,s0,1
      if ((c == '\n') || (c == '\r')) { // also terminate on [press enter]
     87c:	01350463          	beq	a0,s3,884 <_read+0x68>
     880:	fd451ee3          	bne	a0,s4,85c <_read+0x40>
  else {
    errno = ENOSYS;
    return -1;
  }
#endif
}
     884:	01c12083          	lw	ra,28(sp)
     888:	00040513          	mv	a0,s0
     88c:	01812403          	lw	s0,24(sp)
     890:	01412483          	lw	s1,20(sp)
     894:	01012903          	lw	s2,16(sp)
     898:	00c12983          	lw	s3,12(sp)
     89c:	00812a03          	lw	s4,8(sp)
     8a0:	02010113          	add	sp,sp,32
     8a4:	00008067          	ret
  else if (neorv32_uart_available(NEORV32_UART1)) {
     8a8:	fff60537          	lui	a0,0xfff60
     8ac:	140000ef          	jal	9ec <neorv32_uart_available>
  int read_cnt = 0;
     8b0:	00000413          	li	s0,0
  else if (neorv32_uart_available(NEORV32_UART1)) {
     8b4:	02050863          	beqz	a0,8e4 <_read+0xc8>
      if ((c == '\n') || (c == '\r')) { // also terminate on [press enter]
     8b8:	00a00993          	li	s3,10
     8bc:	00d00a13          	li	s4,13
    while (len--) {
     8c0:	fa9400e3          	beq	s0,s1,860 <_read+0x44>
      c = (char)neorv32_uart_getc(NEORV32_UART1);
     8c4:	fff60537          	lui	a0,0xfff60
     8c8:	174000ef          	jal	a3c <neorv32_uart_getc>
      *ptr++ = c;
     8cc:	008907b3          	add	a5,s2,s0
     8d0:	00a78023          	sb	a0,0(a5)
      read_cnt++;
     8d4:	00140413          	add	s0,s0,1
      if ((c == '\n') || (c == '\r')) { // also terminate on [press enter]
     8d8:	fb3506e3          	beq	a0,s3,884 <_read+0x68>
     8dc:	ff4512e3          	bne	a0,s4,8c0 <_read+0xa4>
     8e0:	fa5ff06f          	j	884 <_read+0x68>
    errno = ENOSYS;
     8e4:	800007b7          	lui	a5,0x80000
     8e8:	05800713          	li	a4,88
     8ec:	70e7ac23          	sw	a4,1816(a5) # 80000718 <errno>
    return -1;
     8f0:	fff00413          	li	s0,-1
     8f4:	f91ff06f          	j	884 <_read+0x68>

000008f8 <_write>:

 /**********************************************************************//**
 * Write to a file. STDOUT and STDERR will write to UART0, all other
 * output streams will write to UART1.
 **************************************************************************/
int _write(int file, char *ptr, int len) {
     8f8:	ff010113          	add	sp,sp,-16
     8fc:	00812423          	sw	s0,8(sp)
     900:	00912223          	sw	s1,4(sp)
     904:	00112623          	sw	ra,12(sp)
     908:	01212023          	sw	s2,0(sp)
  return neorv32_semihosting_write(file, ptr, len);
#else
  int write_cnt = 0;

  // write STDOUT and STDERR streams to NEORV32.UART0 (if available)
  if ((file == STDOUT_FILENO) || (file == STDERR_FILENO)) {
     90c:	fff50513          	add	a0,a0,-1 # fff5ffff <__crt0_ram_last+0x7fee0000>
     910:	00100793          	li	a5,1
int _write(int file, char *ptr, int len) {
     914:	00058413          	mv	s0,a1
     918:	00060493          	mv	s1,a2
  if ((file == STDOUT_FILENO) || (file == STDERR_FILENO)) {
     91c:	04a7ec63          	bltu	a5,a0,974 <_write+0x7c>
    if (neorv32_uart_available(NEORV32_UART0)) {
     920:	fff50537          	lui	a0,0xfff50
     924:	0c8000ef          	jal	9ec <neorv32_uart_available>
     928:	00940933          	add	s2,s0,s1
     92c:	02051463          	bnez	a0,954 <_write+0x5c>
        write_cnt++;
      }
      return write_cnt;
    }
    else {
      errno = ENOSYS;
     930:	800007b7          	lui	a5,0x80000
     934:	05800713          	li	a4,88
     938:	70e7ac23          	sw	a4,1816(a5) # 80000718 <errno>
      return -1;
     93c:	fff00493          	li	s1,-1
     940:	0180006f          	j	958 <_write+0x60>
        neorv32_uart_putc(NEORV32_UART0, *ptr++);
     944:	00044583          	lbu	a1,0(s0)
     948:	fff50537          	lui	a0,0xfff50
     94c:	00140413          	add	s0,s0,1
     950:	0d8000ef          	jal	a28 <neorv32_uart_putc>
      while (len--) {
     954:	fe8918e3          	bne	s2,s0,944 <_write+0x4c>
  else {
    errno = ENOSYS;
    return -1;
  }
#endif
}
     958:	00c12083          	lw	ra,12(sp)
     95c:	00812403          	lw	s0,8(sp)
     960:	00012903          	lw	s2,0(sp)
     964:	00048513          	mv	a0,s1
     968:	00412483          	lw	s1,4(sp)
     96c:	01010113          	add	sp,sp,16
     970:	00008067          	ret
  if (neorv32_uart_available(NEORV32_UART1)) {
     974:	fff60537          	lui	a0,0xfff60
     978:	074000ef          	jal	9ec <neorv32_uart_available>
     97c:	00940933          	add	s2,s0,s1
     980:	fa0508e3          	beqz	a0,930 <_write+0x38>
    while (len--) {
     984:	fd240ae3          	beq	s0,s2,958 <_write+0x60>
      neorv32_uart_putc(NEORV32_UART1, *ptr++);
     988:	00044583          	lbu	a1,0(s0)
     98c:	fff60537          	lui	a0,0xfff60
     990:	00140413          	add	s0,s0,1
     994:	094000ef          	jal	a28 <neorv32_uart_putc>
      write_cnt++;
     998:	fedff06f          	j	984 <_write+0x8c>

0000099c <_sbrk>:

  static unsigned char *curr_heap = NULL; // current heap pointer
  unsigned char *prev_heap; // previous heap pointer

  // initialize
  if (curr_heap == NULL) {
     99c:	80000737          	lui	a4,0x80000
     9a0:	71472683          	lw	a3,1812(a4) # 80000714 <curr_heap.0>
     9a4:	80001637          	lui	a2,0x80001
void *_sbrk(int incr) {
     9a8:	00050793          	mv	a5,a0
     9ac:	91460613          	add	a2,a2,-1772 # 80000914 <__crt0_bss_end>
  if (curr_heap == NULL) {
     9b0:	00069463          	bnez	a3,9b8 <_sbrk+0x1c>
    curr_heap = (unsigned char *)NEORV32_HEAP_BEGIN;
     9b4:	70c72a23          	sw	a2,1812(a4)
  }

  // do we have a heap at all?
  if ((NEORV32_HEAP_BEGIN == NEORV32_HEAP_END) || (NEORV32_HEAP_SIZE == 0)) {
     9b8:	800016b7          	lui	a3,0x80001
     9bc:	91468693          	add	a3,a3,-1772 # 80000914 <__crt0_bss_end>
     9c0:	00c69c63          	bne	a3,a2,9d8 <_sbrk+0x3c>
#ifdef NEWLIB_DEBUG
    write(STDERR_FILENO, "[neorv32-newlib] no heap available\r\n", 36);
#endif
    errno = ENOMEM;
     9c4:	800007b7          	lui	a5,0x80000
     9c8:	00c00713          	li	a4,12
     9cc:	70e7ac23          	sw	a4,1816(a5) # 80000718 <errno>
    return (void*)-1; // error - no more memory
     9d0:	fff00513          	li	a0,-1
     9d4:	00008067          	ret
  }

  // sufficient space left?
  if ((uint32_t)(curr_heap + incr) >= NEORV32_HEAP_END) {
     9d8:	71472503          	lw	a0,1812(a4)
     9dc:	00f507b3          	add	a5,a0,a5
     9e0:	fed7f2e3          	bgeu	a5,a3,9c4 <_sbrk+0x28>
    errno = ENOMEM;
    return (void*)-1; // error - no more memory
  }

  prev_heap = curr_heap;
  curr_heap += incr;
     9e4:	70f72a23          	sw	a5,1812(a4)

  return (void*)prev_heap;
}
     9e8:	00008067          	ret

000009ec <neorv32_uart_available>:
 * @param[in,out] Hardware handle to UART register struct, #neorv32_uart_t.
 * @return 0 if UART0/1 was not synthesized, non-zero if UART0/1 is available.
 **************************************************************************/
int neorv32_uart_available(neorv32_uart_t *UARTx) {

  if (UARTx == NEORV32_UART0) {
     9ec:	fff50737          	lui	a4,0xfff50
int neorv32_uart_available(neorv32_uart_t *UARTx) {
     9f0:	00050793          	mv	a5,a0
  if (UARTx == NEORV32_UART0) {
     9f4:	00e51c63          	bne	a0,a4,a0c <neorv32_uart_available+0x20>
    return (int)(NEORV32_SYSINFO->SOC & (1 << SYSINFO_SOC_IO_UART0));
     9f8:	fffe07b7          	lui	a5,0xfffe0
     9fc:	0087a503          	lw	a0,8(a5) # fffe0008 <__crt0_ram_last+0x7ff60009>
     a00:	000207b7          	lui	a5,0x20
  }
  else if (UARTx == NEORV32_UART1) {
    return (int)(NEORV32_SYSINFO->SOC & (1 << SYSINFO_SOC_IO_UART1));
     a04:	00f57533          	and	a0,a0,a5
  }
  else {
    return 0;
  }
}
     a08:	00008067          	ret
  else if (UARTx == NEORV32_UART1) {
     a0c:	fff60737          	lui	a4,0xfff60
    return 0;
     a10:	00000513          	li	a0,0
  else if (UARTx == NEORV32_UART1) {
     a14:	fee79ae3          	bne	a5,a4,a08 <neorv32_uart_available+0x1c>
    return (int)(NEORV32_SYSINFO->SOC & (1 << SYSINFO_SOC_IO_UART1));
     a18:	fffe07b7          	lui	a5,0xfffe0
     a1c:	0087a503          	lw	a0,8(a5) # fffe0008 <__crt0_ram_last+0x7ff60009>
     a20:	020007b7          	lui	a5,0x2000
     a24:	fe1ff06f          	j	a04 <neorv32_uart_available+0x18>

00000a28 <neorv32_uart_putc>:
 * @param[in,out] UARTx Hardware handle to UART register struct, #neorv32_uart_t.
 * @param[in] c Char to be send.
 **************************************************************************/
void neorv32_uart_putc(neorv32_uart_t *UARTx, char c) {

  while ((UARTx->CTRL & (1<<UART_CTRL_TX_NFULL)) == 0); // wait for free space in TX FIFO
     a28:	00052783          	lw	a5,0(a0) # fff60000 <__crt0_ram_last+0x7fee0001>
     a2c:	00a79713          	sll	a4,a5,0xa
     a30:	fe075ce3          	bgez	a4,a28 <neorv32_uart_putc>
  UARTx->DATA = (uint32_t)c << UART_DATA_RTX_LSB;
     a34:	00b52223          	sw	a1,4(a0)
}
     a38:	00008067          	ret

00000a3c <neorv32_uart_getc>:
 * @param[in,out] UARTx Hardware handle to UART register struct, #neorv32_uart_t.
 * @return Received char.
 **************************************************************************/
char neorv32_uart_getc(neorv32_uart_t *UARTx) {

  while ((UARTx->CTRL & (1<<UART_CTRL_RX_NEMPTY)) == 0); // wait until data available
     a3c:	00052783          	lw	a5,0(a0)
     a40:	00f79713          	sll	a4,a5,0xf
     a44:	fe075ce3          	bgez	a4,a3c <neorv32_uart_getc>
  return (char)(UARTx->DATA >> UART_DATA_RTX_LSB);
     a48:	00452503          	lw	a0,4(a0)
}
     a4c:	0ff57513          	zext.b	a0,a0
     a50:	00008067          	ret

00000a54 <printf>:
     a54:	fc010113          	add	sp,sp,-64
     a58:	02c12423          	sw	a2,40(sp)
     a5c:	02d12623          	sw	a3,44(sp)
     a60:	80000317          	auipc	t1,0x80000
     a64:	ca832303          	lw	t1,-856(t1) # 80000708 <_impure_ptr>
     a68:	02b12223          	sw	a1,36(sp)
     a6c:	02e12823          	sw	a4,48(sp)
     a70:	02f12a23          	sw	a5,52(sp)
     a74:	03012c23          	sw	a6,56(sp)
     a78:	03112e23          	sw	a7,60(sp)
     a7c:	00832583          	lw	a1,8(t1)
     a80:	02410693          	add	a3,sp,36
     a84:	00050613          	mv	a2,a0
     a88:	00030513          	mv	a0,t1
     a8c:	00112e23          	sw	ra,28(sp)
     a90:	00d12623          	sw	a3,12(sp)
     a94:	765000ef          	jal	19f8 <_vfprintf_r>
     a98:	01c12083          	lw	ra,28(sp)
     a9c:	04010113          	add	sp,sp,64
     aa0:	00008067          	ret

00000aa4 <memset>:
     aa4:	00f00313          	li	t1,15
     aa8:	00050713          	mv	a4,a0
     aac:	02c37e63          	bgeu	t1,a2,ae8 <memset+0x44>
     ab0:	00f77793          	and	a5,a4,15
     ab4:	0a079063          	bnez	a5,b54 <memset+0xb0>
     ab8:	08059263          	bnez	a1,b3c <memset+0x98>
     abc:	ff067693          	and	a3,a2,-16
     ac0:	00f67613          	and	a2,a2,15
     ac4:	00e686b3          	add	a3,a3,a4
     ac8:	00b72023          	sw	a1,0(a4) # fff60000 <__crt0_ram_last+0x7fee0001>
     acc:	00b72223          	sw	a1,4(a4)
     ad0:	00b72423          	sw	a1,8(a4)
     ad4:	00b72623          	sw	a1,12(a4)
     ad8:	01070713          	add	a4,a4,16
     adc:	fed766e3          	bltu	a4,a3,ac8 <memset+0x24>
     ae0:	00061463          	bnez	a2,ae8 <memset+0x44>
     ae4:	00008067          	ret
     ae8:	40c306b3          	sub	a3,t1,a2
     aec:	00269693          	sll	a3,a3,0x2
     af0:	00000297          	auipc	t0,0x0
     af4:	005686b3          	add	a3,a3,t0
     af8:	00c68067          	jr	12(a3)
     afc:	00b70723          	sb	a1,14(a4)
     b00:	00b706a3          	sb	a1,13(a4)
     b04:	00b70623          	sb	a1,12(a4)
     b08:	00b705a3          	sb	a1,11(a4)
     b0c:	00b70523          	sb	a1,10(a4)
     b10:	00b704a3          	sb	a1,9(a4)
     b14:	00b70423          	sb	a1,8(a4)
     b18:	00b703a3          	sb	a1,7(a4)
     b1c:	00b70323          	sb	a1,6(a4)
     b20:	00b702a3          	sb	a1,5(a4)
     b24:	00b70223          	sb	a1,4(a4)
     b28:	00b701a3          	sb	a1,3(a4)
     b2c:	00b70123          	sb	a1,2(a4)
     b30:	00b700a3          	sb	a1,1(a4)
     b34:	00b70023          	sb	a1,0(a4)
     b38:	00008067          	ret
     b3c:	0ff5f593          	zext.b	a1,a1
     b40:	00859693          	sll	a3,a1,0x8
     b44:	00d5e5b3          	or	a1,a1,a3
     b48:	01059693          	sll	a3,a1,0x10
     b4c:	00d5e5b3          	or	a1,a1,a3
     b50:	f6dff06f          	j	abc <memset+0x18>
     b54:	00279693          	sll	a3,a5,0x2
     b58:	00000297          	auipc	t0,0x0
     b5c:	005686b3          	add	a3,a3,t0
     b60:	00008293          	mv	t0,ra
     b64:	fa0680e7          	jalr	-96(a3)
     b68:	00028093          	mv	ra,t0
     b6c:	ff078793          	add	a5,a5,-16 # 1fffff0 <__neorv32_ram_size+0x1f7fff0>
     b70:	40f70733          	sub	a4,a4,a5
     b74:	00f60633          	add	a2,a2,a5
     b78:	f6c378e3          	bgeu	t1,a2,ae8 <memset+0x44>
     b7c:	f3dff06f          	j	ab8 <memset+0x14>

00000b80 <memcpy>:
     b80:	00a5c7b3          	xor	a5,a1,a0
     b84:	0037f793          	and	a5,a5,3
     b88:	00c508b3          	add	a7,a0,a2
     b8c:	06079463          	bnez	a5,bf4 <memcpy+0x74>
     b90:	00300793          	li	a5,3
     b94:	06c7f063          	bgeu	a5,a2,bf4 <memcpy+0x74>
     b98:	00357793          	and	a5,a0,3
     b9c:	00050713          	mv	a4,a0
     ba0:	06079a63          	bnez	a5,c14 <memcpy+0x94>
     ba4:	ffc8f613          	and	a2,a7,-4
     ba8:	40e606b3          	sub	a3,a2,a4
     bac:	02000793          	li	a5,32
     bb0:	08d7ce63          	blt	a5,a3,c4c <memcpy+0xcc>
     bb4:	00058693          	mv	a3,a1
     bb8:	00070793          	mv	a5,a4
     bbc:	02c77863          	bgeu	a4,a2,bec <memcpy+0x6c>
     bc0:	0006a803          	lw	a6,0(a3)
     bc4:	00478793          	add	a5,a5,4
     bc8:	00468693          	add	a3,a3,4
     bcc:	ff07ae23          	sw	a6,-4(a5)
     bd0:	fec7e8e3          	bltu	a5,a2,bc0 <memcpy+0x40>
     bd4:	fff60793          	add	a5,a2,-1
     bd8:	40e787b3          	sub	a5,a5,a4
     bdc:	ffc7f793          	and	a5,a5,-4
     be0:	00478793          	add	a5,a5,4
     be4:	00f70733          	add	a4,a4,a5
     be8:	00f585b3          	add	a1,a1,a5
     bec:	01176863          	bltu	a4,a7,bfc <memcpy+0x7c>
     bf0:	00008067          	ret
     bf4:	00050713          	mv	a4,a0
     bf8:	05157863          	bgeu	a0,a7,c48 <memcpy+0xc8>
     bfc:	0005c783          	lbu	a5,0(a1)
     c00:	00170713          	add	a4,a4,1
     c04:	00158593          	add	a1,a1,1
     c08:	fef70fa3          	sb	a5,-1(a4)
     c0c:	fee898e3          	bne	a7,a4,bfc <memcpy+0x7c>
     c10:	00008067          	ret
     c14:	0005c683          	lbu	a3,0(a1)
     c18:	00170713          	add	a4,a4,1
     c1c:	00377793          	and	a5,a4,3
     c20:	fed70fa3          	sb	a3,-1(a4)
     c24:	00158593          	add	a1,a1,1
     c28:	f6078ee3          	beqz	a5,ba4 <memcpy+0x24>
     c2c:	0005c683          	lbu	a3,0(a1)
     c30:	00170713          	add	a4,a4,1
     c34:	00377793          	and	a5,a4,3
     c38:	fed70fa3          	sb	a3,-1(a4)
     c3c:	00158593          	add	a1,a1,1
     c40:	fc079ae3          	bnez	a5,c14 <memcpy+0x94>
     c44:	f61ff06f          	j	ba4 <memcpy+0x24>
     c48:	00008067          	ret
     c4c:	ff010113          	add	sp,sp,-16
     c50:	00812623          	sw	s0,12(sp)
     c54:	02000413          	li	s0,32
     c58:	0005a383          	lw	t2,0(a1)
     c5c:	0045a283          	lw	t0,4(a1)
     c60:	0085af83          	lw	t6,8(a1)
     c64:	00c5af03          	lw	t5,12(a1)
     c68:	0105ae83          	lw	t4,16(a1)
     c6c:	0145ae03          	lw	t3,20(a1)
     c70:	0185a303          	lw	t1,24(a1)
     c74:	01c5a803          	lw	a6,28(a1)
     c78:	0205a683          	lw	a3,32(a1)
     c7c:	02470713          	add	a4,a4,36
     c80:	40e607b3          	sub	a5,a2,a4
     c84:	fc772e23          	sw	t2,-36(a4)
     c88:	fe572023          	sw	t0,-32(a4)
     c8c:	fff72223          	sw	t6,-28(a4)
     c90:	ffe72423          	sw	t5,-24(a4)
     c94:	ffd72623          	sw	t4,-20(a4)
     c98:	ffc72823          	sw	t3,-16(a4)
     c9c:	fe672a23          	sw	t1,-12(a4)
     ca0:	ff072c23          	sw	a6,-8(a4)
     ca4:	fed72e23          	sw	a3,-4(a4)
     ca8:	02458593          	add	a1,a1,36
     cac:	faf446e3          	blt	s0,a5,c58 <memcpy+0xd8>
     cb0:	00058693          	mv	a3,a1
     cb4:	00070793          	mv	a5,a4
     cb8:	02c77863          	bgeu	a4,a2,ce8 <memcpy+0x168>
     cbc:	0006a803          	lw	a6,0(a3)
     cc0:	00478793          	add	a5,a5,4
     cc4:	00468693          	add	a3,a3,4
     cc8:	ff07ae23          	sw	a6,-4(a5)
     ccc:	fec7e8e3          	bltu	a5,a2,cbc <memcpy+0x13c>
     cd0:	fff60793          	add	a5,a2,-1
     cd4:	40e787b3          	sub	a5,a5,a4
     cd8:	ffc7f793          	and	a5,a5,-4
     cdc:	00478793          	add	a5,a5,4
     ce0:	00f70733          	add	a4,a4,a5
     ce4:	00f585b3          	add	a1,a1,a5
     ce8:	01176863          	bltu	a4,a7,cf8 <memcpy+0x178>
     cec:	00c12403          	lw	s0,12(sp)
     cf0:	01010113          	add	sp,sp,16
     cf4:	00008067          	ret
     cf8:	0005c783          	lbu	a5,0(a1)
     cfc:	00170713          	add	a4,a4,1
     d00:	00158593          	add	a1,a1,1
     d04:	fef70fa3          	sb	a5,-1(a4)
     d08:	fee882e3          	beq	a7,a4,cec <memcpy+0x16c>
     d0c:	0005c783          	lbu	a5,0(a1)
     d10:	00170713          	add	a4,a4,1
     d14:	00158593          	add	a1,a1,1
     d18:	fef70fa3          	sb	a5,-1(a4)
     d1c:	fce89ee3          	bne	a7,a4,cf8 <memcpy+0x178>
     d20:	fcdff06f          	j	cec <memcpy+0x16c>

00000d24 <strlen>:
     d24:	00357793          	and	a5,a0,3
     d28:	00050713          	mv	a4,a0
     d2c:	04079c63          	bnez	a5,d84 <strlen+0x60>
     d30:	7f7f86b7          	lui	a3,0x7f7f8
     d34:	f7f68693          	add	a3,a3,-129 # 7f7f7f7f <__neorv32_ram_size+0x7f777f7f>
     d38:	fff00593          	li	a1,-1
     d3c:	00072603          	lw	a2,0(a4)
     d40:	00470713          	add	a4,a4,4
     d44:	00d677b3          	and	a5,a2,a3
     d48:	00d787b3          	add	a5,a5,a3
     d4c:	00c7e7b3          	or	a5,a5,a2
     d50:	00d7e7b3          	or	a5,a5,a3
     d54:	feb784e3          	beq	a5,a1,d3c <strlen+0x18>
     d58:	ffc74683          	lbu	a3,-4(a4)
     d5c:	40a707b3          	sub	a5,a4,a0
     d60:	04068463          	beqz	a3,da8 <strlen+0x84>
     d64:	ffd74683          	lbu	a3,-3(a4)
     d68:	02068c63          	beqz	a3,da0 <strlen+0x7c>
     d6c:	ffe74503          	lbu	a0,-2(a4)
     d70:	00a03533          	snez	a0,a0
     d74:	00f50533          	add	a0,a0,a5
     d78:	ffe50513          	add	a0,a0,-2
     d7c:	00008067          	ret
     d80:	fa0688e3          	beqz	a3,d30 <strlen+0xc>
     d84:	00074783          	lbu	a5,0(a4)
     d88:	00170713          	add	a4,a4,1
     d8c:	00377693          	and	a3,a4,3
     d90:	fe0798e3          	bnez	a5,d80 <strlen+0x5c>
     d94:	40a70733          	sub	a4,a4,a0
     d98:	fff70513          	add	a0,a4,-1
     d9c:	00008067          	ret
     da0:	ffd78513          	add	a0,a5,-3
     da4:	00008067          	ret
     da8:	ffc78513          	add	a0,a5,-4
     dac:	00008067          	ret

00000db0 <_malloc_trim_r>:
     db0:	fe010113          	add	sp,sp,-32
     db4:	00812c23          	sw	s0,24(sp)
     db8:	00912a23          	sw	s1,20(sp)
     dbc:	01212823          	sw	s2,16(sp)
     dc0:	01312623          	sw	s3,12(sp)
     dc4:	01412423          	sw	s4,8(sp)
     dc8:	00058993          	mv	s3,a1
     dcc:	00112e23          	sw	ra,28(sp)
     dd0:	00050913          	mv	s2,a0
     dd4:	7ffffa17          	auipc	s4,0x7ffff
     dd8:	34ca0a13          	add	s4,s4,844 # 80000120 <__malloc_av_>
     ddc:	405000ef          	jal	19e0 <__malloc_lock>
     de0:	008a2703          	lw	a4,8(s4)
     de4:	000017b7          	lui	a5,0x1
     de8:	fef78793          	add	a5,a5,-17 # fef <_free_r+0xfb>
     dec:	00472483          	lw	s1,4(a4)
     df0:	00001737          	lui	a4,0x1
     df4:	ffc4f493          	and	s1,s1,-4
     df8:	00f48433          	add	s0,s1,a5
     dfc:	41340433          	sub	s0,s0,s3
     e00:	00c45413          	srl	s0,s0,0xc
     e04:	fff40413          	add	s0,s0,-1
     e08:	00c41413          	sll	s0,s0,0xc
     e0c:	00e44e63          	blt	s0,a4,e28 <_malloc_trim_r+0x78>
     e10:	00000593          	li	a1,0
     e14:	00090513          	mv	a0,s2
     e18:	678060ef          	jal	7490 <_sbrk_r>
     e1c:	008a2783          	lw	a5,8(s4)
     e20:	009787b3          	add	a5,a5,s1
     e24:	02f50863          	beq	a0,a5,e54 <_malloc_trim_r+0xa4>
     e28:	00090513          	mv	a0,s2
     e2c:	3c1000ef          	jal	19ec <__malloc_unlock>
     e30:	01c12083          	lw	ra,28(sp)
     e34:	01812403          	lw	s0,24(sp)
     e38:	01412483          	lw	s1,20(sp)
     e3c:	01012903          	lw	s2,16(sp)
     e40:	00c12983          	lw	s3,12(sp)
     e44:	00812a03          	lw	s4,8(sp)
     e48:	00000513          	li	a0,0
     e4c:	02010113          	add	sp,sp,32
     e50:	00008067          	ret
     e54:	408005b3          	neg	a1,s0
     e58:	00090513          	mv	a0,s2
     e5c:	634060ef          	jal	7490 <_sbrk_r>
     e60:	fff00793          	li	a5,-1
     e64:	04f50a63          	beq	a0,a5,eb8 <_malloc_trim_r+0x108>
     e68:	80000717          	auipc	a4,0x80000
     e6c:	94c70713          	add	a4,a4,-1716 # 800007b4 <__malloc_current_mallinfo>
     e70:	00072783          	lw	a5,0(a4)
     e74:	008a2683          	lw	a3,8(s4)
     e78:	408484b3          	sub	s1,s1,s0
     e7c:	0014e493          	or	s1,s1,1
     e80:	408787b3          	sub	a5,a5,s0
     e84:	00090513          	mv	a0,s2
     e88:	0096a223          	sw	s1,4(a3)
     e8c:	00f72023          	sw	a5,0(a4)
     e90:	35d000ef          	jal	19ec <__malloc_unlock>
     e94:	01c12083          	lw	ra,28(sp)
     e98:	01812403          	lw	s0,24(sp)
     e9c:	01412483          	lw	s1,20(sp)
     ea0:	01012903          	lw	s2,16(sp)
     ea4:	00c12983          	lw	s3,12(sp)
     ea8:	00812a03          	lw	s4,8(sp)
     eac:	00100513          	li	a0,1
     eb0:	02010113          	add	sp,sp,32
     eb4:	00008067          	ret
     eb8:	00000593          	li	a1,0
     ebc:	00090513          	mv	a0,s2
     ec0:	5d0060ef          	jal	7490 <_sbrk_r>
     ec4:	008a2703          	lw	a4,8(s4)
     ec8:	00f00693          	li	a3,15
     ecc:	40e507b3          	sub	a5,a0,a4
     ed0:	f4f6dce3          	bge	a3,a5,e28 <_malloc_trim_r+0x78>
     ed4:	80000697          	auipc	a3,0x80000
     ed8:	8386a683          	lw	a3,-1992(a3) # 8000070c <__malloc_sbrk_base>
     edc:	40d50533          	sub	a0,a0,a3
     ee0:	0017e793          	or	a5,a5,1
     ee4:	80000697          	auipc	a3,0x80000
     ee8:	8ca6a823          	sw	a0,-1840(a3) # 800007b4 <__malloc_current_mallinfo>
     eec:	00f72223          	sw	a5,4(a4)
     ef0:	f39ff06f          	j	e28 <_malloc_trim_r+0x78>

00000ef4 <_free_r>:
     ef4:	18058263          	beqz	a1,1078 <_free_r+0x184>
     ef8:	ff010113          	add	sp,sp,-16
     efc:	00812423          	sw	s0,8(sp)
     f00:	00912223          	sw	s1,4(sp)
     f04:	00058413          	mv	s0,a1
     f08:	00050493          	mv	s1,a0
     f0c:	00112623          	sw	ra,12(sp)
     f10:	2d1000ef          	jal	19e0 <__malloc_lock>
     f14:	ffc42583          	lw	a1,-4(s0)
     f18:	ff840713          	add	a4,s0,-8
     f1c:	7ffff517          	auipc	a0,0x7ffff
     f20:	20450513          	add	a0,a0,516 # 80000120 <__malloc_av_>
     f24:	ffe5f793          	and	a5,a1,-2
     f28:	00f70633          	add	a2,a4,a5
     f2c:	00462683          	lw	a3,4(a2)
     f30:	00852803          	lw	a6,8(a0)
     f34:	ffc6f693          	and	a3,a3,-4
     f38:	1ac80263          	beq	a6,a2,10dc <_free_r+0x1e8>
     f3c:	00d62223          	sw	a3,4(a2)
     f40:	0015f593          	and	a1,a1,1
     f44:	00d60833          	add	a6,a2,a3
     f48:	0a059063          	bnez	a1,fe8 <_free_r+0xf4>
     f4c:	ff842303          	lw	t1,-8(s0)
     f50:	00482583          	lw	a1,4(a6)
     f54:	7ffff897          	auipc	a7,0x7ffff
     f58:	1d488893          	add	a7,a7,468 # 80000128 <__malloc_av_+0x8>
     f5c:	40670733          	sub	a4,a4,t1
     f60:	00872803          	lw	a6,8(a4)
     f64:	006787b3          	add	a5,a5,t1
     f68:	0015f593          	and	a1,a1,1
     f6c:	15180263          	beq	a6,a7,10b0 <_free_r+0x1bc>
     f70:	00c72303          	lw	t1,12(a4)
     f74:	00682623          	sw	t1,12(a6)
     f78:	01032423          	sw	a6,8(t1)
     f7c:	1a058a63          	beqz	a1,1130 <_free_r+0x23c>
     f80:	0017e693          	or	a3,a5,1
     f84:	00d72223          	sw	a3,4(a4)
     f88:	00f62023          	sw	a5,0(a2)
     f8c:	1ff00693          	li	a3,511
     f90:	06f6ec63          	bltu	a3,a5,1008 <_free_r+0x114>
     f94:	ff87f693          	and	a3,a5,-8
     f98:	00868693          	add	a3,a3,8
     f9c:	00452583          	lw	a1,4(a0)
     fa0:	00d506b3          	add	a3,a0,a3
     fa4:	0006a603          	lw	a2,0(a3)
     fa8:	0057d813          	srl	a6,a5,0x5
     fac:	00100793          	li	a5,1
     fb0:	010797b3          	sll	a5,a5,a6
     fb4:	00b7e7b3          	or	a5,a5,a1
     fb8:	ff868593          	add	a1,a3,-8
     fbc:	00b72623          	sw	a1,12(a4)
     fc0:	00c72423          	sw	a2,8(a4)
     fc4:	00f52223          	sw	a5,4(a0)
     fc8:	00e6a023          	sw	a4,0(a3)
     fcc:	00e62623          	sw	a4,12(a2)
     fd0:	00812403          	lw	s0,8(sp)
     fd4:	00c12083          	lw	ra,12(sp)
     fd8:	00048513          	mv	a0,s1
     fdc:	00412483          	lw	s1,4(sp)
     fe0:	01010113          	add	sp,sp,16
     fe4:	2090006f          	j	19ec <__malloc_unlock>
     fe8:	00482583          	lw	a1,4(a6)
     fec:	0015f593          	and	a1,a1,1
     ff0:	08058663          	beqz	a1,107c <_free_r+0x188>
     ff4:	0017e693          	or	a3,a5,1
     ff8:	fed42e23          	sw	a3,-4(s0)
     ffc:	00f62023          	sw	a5,0(a2)
    1000:	1ff00693          	li	a3,511
    1004:	f8f6f8e3          	bgeu	a3,a5,f94 <_free_r+0xa0>
    1008:	0097d693          	srl	a3,a5,0x9
    100c:	00400613          	li	a2,4
    1010:	12d66463          	bltu	a2,a3,1138 <_free_r+0x244>
    1014:	0067d693          	srl	a3,a5,0x6
    1018:	03968593          	add	a1,a3,57
    101c:	03868613          	add	a2,a3,56
    1020:	00359593          	sll	a1,a1,0x3
    1024:	00b505b3          	add	a1,a0,a1
    1028:	0005a683          	lw	a3,0(a1)
    102c:	ff858593          	add	a1,a1,-8
    1030:	00d59863          	bne	a1,a3,1040 <_free_r+0x14c>
    1034:	15c0006f          	j	1190 <_free_r+0x29c>
    1038:	0086a683          	lw	a3,8(a3)
    103c:	00d58863          	beq	a1,a3,104c <_free_r+0x158>
    1040:	0046a603          	lw	a2,4(a3)
    1044:	ffc67613          	and	a2,a2,-4
    1048:	fec7e8e3          	bltu	a5,a2,1038 <_free_r+0x144>
    104c:	00c6a583          	lw	a1,12(a3)
    1050:	00b72623          	sw	a1,12(a4)
    1054:	00d72423          	sw	a3,8(a4)
    1058:	00812403          	lw	s0,8(sp)
    105c:	00c12083          	lw	ra,12(sp)
    1060:	00e5a423          	sw	a4,8(a1)
    1064:	00048513          	mv	a0,s1
    1068:	00412483          	lw	s1,4(sp)
    106c:	00e6a623          	sw	a4,12(a3)
    1070:	01010113          	add	sp,sp,16
    1074:	1790006f          	j	19ec <__malloc_unlock>
    1078:	00008067          	ret
    107c:	00d787b3          	add	a5,a5,a3
    1080:	7ffff897          	auipc	a7,0x7ffff
    1084:	0a888893          	add	a7,a7,168 # 80000128 <__malloc_av_+0x8>
    1088:	00862683          	lw	a3,8(a2)
    108c:	0f168063          	beq	a3,a7,116c <_free_r+0x278>
    1090:	00c62803          	lw	a6,12(a2)
    1094:	0017e593          	or	a1,a5,1
    1098:	00f70633          	add	a2,a4,a5
    109c:	0106a623          	sw	a6,12(a3)
    10a0:	00d82423          	sw	a3,8(a6)
    10a4:	00b72223          	sw	a1,4(a4)
    10a8:	00f62023          	sw	a5,0(a2)
    10ac:	ee1ff06f          	j	f8c <_free_r+0x98>
    10b0:	14059063          	bnez	a1,11f0 <_free_r+0x2fc>
    10b4:	00862583          	lw	a1,8(a2)
    10b8:	00c62603          	lw	a2,12(a2)
    10bc:	00f686b3          	add	a3,a3,a5
    10c0:	0016e793          	or	a5,a3,1
    10c4:	00c5a623          	sw	a2,12(a1)
    10c8:	00b62423          	sw	a1,8(a2)
    10cc:	00f72223          	sw	a5,4(a4)
    10d0:	00d70733          	add	a4,a4,a3
    10d4:	00d72023          	sw	a3,0(a4)
    10d8:	ef9ff06f          	j	fd0 <_free_r+0xdc>
    10dc:	0015f593          	and	a1,a1,1
    10e0:	00d786b3          	add	a3,a5,a3
    10e4:	02059063          	bnez	a1,1104 <_free_r+0x210>
    10e8:	ff842583          	lw	a1,-8(s0)
    10ec:	40b70733          	sub	a4,a4,a1
    10f0:	00c72783          	lw	a5,12(a4)
    10f4:	00872603          	lw	a2,8(a4)
    10f8:	00b686b3          	add	a3,a3,a1
    10fc:	00f62623          	sw	a5,12(a2)
    1100:	00c7a423          	sw	a2,8(a5)
    1104:	0016e793          	or	a5,a3,1
    1108:	00f72223          	sw	a5,4(a4)
    110c:	00e52423          	sw	a4,8(a0)
    1110:	7ffff797          	auipc	a5,0x7ffff
    1114:	6007a783          	lw	a5,1536(a5) # 80000710 <__malloc_trim_threshold>
    1118:	eaf6ece3          	bltu	a3,a5,fd0 <_free_r+0xdc>
    111c:	7ffff597          	auipc	a1,0x7ffff
    1120:	6085a583          	lw	a1,1544(a1) # 80000724 <__malloc_top_pad>
    1124:	00048513          	mv	a0,s1
    1128:	c89ff0ef          	jal	db0 <_malloc_trim_r>
    112c:	ea5ff06f          	j	fd0 <_free_r+0xdc>
    1130:	00d787b3          	add	a5,a5,a3
    1134:	f55ff06f          	j	1088 <_free_r+0x194>
    1138:	01400613          	li	a2,20
    113c:	02d67063          	bgeu	a2,a3,115c <_free_r+0x268>
    1140:	05400613          	li	a2,84
    1144:	06d66463          	bltu	a2,a3,11ac <_free_r+0x2b8>
    1148:	00c7d693          	srl	a3,a5,0xc
    114c:	06f68593          	add	a1,a3,111
    1150:	06e68613          	add	a2,a3,110
    1154:	00359593          	sll	a1,a1,0x3
    1158:	ecdff06f          	j	1024 <_free_r+0x130>
    115c:	05c68593          	add	a1,a3,92
    1160:	05b68613          	add	a2,a3,91
    1164:	00359593          	sll	a1,a1,0x3
    1168:	ebdff06f          	j	1024 <_free_r+0x130>
    116c:	00e52a23          	sw	a4,20(a0)
    1170:	00e52823          	sw	a4,16(a0)
    1174:	0017e693          	or	a3,a5,1
    1178:	01172623          	sw	a7,12(a4)
    117c:	01172423          	sw	a7,8(a4)
    1180:	00d72223          	sw	a3,4(a4)
    1184:	00f70733          	add	a4,a4,a5
    1188:	00f72023          	sw	a5,0(a4)
    118c:	e45ff06f          	j	fd0 <_free_r+0xdc>
    1190:	00452803          	lw	a6,4(a0)
    1194:	40265613          	sra	a2,a2,0x2
    1198:	00100793          	li	a5,1
    119c:	00c797b3          	sll	a5,a5,a2
    11a0:	0107e7b3          	or	a5,a5,a6
    11a4:	00f52223          	sw	a5,4(a0)
    11a8:	ea9ff06f          	j	1050 <_free_r+0x15c>
    11ac:	15400613          	li	a2,340
    11b0:	00d66c63          	bltu	a2,a3,11c8 <_free_r+0x2d4>
    11b4:	00f7d693          	srl	a3,a5,0xf
    11b8:	07868593          	add	a1,a3,120
    11bc:	07768613          	add	a2,a3,119
    11c0:	00359593          	sll	a1,a1,0x3
    11c4:	e61ff06f          	j	1024 <_free_r+0x130>
    11c8:	55400613          	li	a2,1364
    11cc:	00d66c63          	bltu	a2,a3,11e4 <_free_r+0x2f0>
    11d0:	0127d693          	srl	a3,a5,0x12
    11d4:	07d68593          	add	a1,a3,125
    11d8:	07c68613          	add	a2,a3,124
    11dc:	00359593          	sll	a1,a1,0x3
    11e0:	e45ff06f          	j	1024 <_free_r+0x130>
    11e4:	3f800593          	li	a1,1016
    11e8:	07e00613          	li	a2,126
    11ec:	e39ff06f          	j	1024 <_free_r+0x130>
    11f0:	0017e693          	or	a3,a5,1
    11f4:	00d72223          	sw	a3,4(a4)
    11f8:	00f62023          	sw	a5,0(a2)
    11fc:	dd5ff06f          	j	fd0 <_free_r+0xdc>

00001200 <_malloc_r>:
    1200:	fd010113          	add	sp,sp,-48
    1204:	03212023          	sw	s2,32(sp)
    1208:	02112623          	sw	ra,44(sp)
    120c:	02812423          	sw	s0,40(sp)
    1210:	02912223          	sw	s1,36(sp)
    1214:	01312e23          	sw	s3,28(sp)
    1218:	00b58793          	add	a5,a1,11
    121c:	01600713          	li	a4,22
    1220:	00050913          	mv	s2,a0
    1224:	08f76263          	bltu	a4,a5,12a8 <_malloc_r+0xa8>
    1228:	01000793          	li	a5,16
    122c:	20b7e663          	bltu	a5,a1,1438 <_malloc_r+0x238>
    1230:	7b0000ef          	jal	19e0 <__malloc_lock>
    1234:	01800793          	li	a5,24
    1238:	00200593          	li	a1,2
    123c:	01000493          	li	s1,16
    1240:	7ffff997          	auipc	s3,0x7ffff
    1244:	ee098993          	add	s3,s3,-288 # 80000120 <__malloc_av_>
    1248:	00f987b3          	add	a5,s3,a5
    124c:	0047a403          	lw	s0,4(a5)
    1250:	ff878713          	add	a4,a5,-8
    1254:	36e40463          	beq	s0,a4,15bc <_malloc_r+0x3bc>
    1258:	00442783          	lw	a5,4(s0)
    125c:	00c42683          	lw	a3,12(s0)
    1260:	00842603          	lw	a2,8(s0)
    1264:	ffc7f793          	and	a5,a5,-4
    1268:	00f407b3          	add	a5,s0,a5
    126c:	0047a703          	lw	a4,4(a5)
    1270:	00d62623          	sw	a3,12(a2)
    1274:	00c6a423          	sw	a2,8(a3)
    1278:	00176713          	or	a4,a4,1
    127c:	00090513          	mv	a0,s2
    1280:	00e7a223          	sw	a4,4(a5)
    1284:	768000ef          	jal	19ec <__malloc_unlock>
    1288:	00840513          	add	a0,s0,8
    128c:	02c12083          	lw	ra,44(sp)
    1290:	02812403          	lw	s0,40(sp)
    1294:	02412483          	lw	s1,36(sp)
    1298:	02012903          	lw	s2,32(sp)
    129c:	01c12983          	lw	s3,28(sp)
    12a0:	03010113          	add	sp,sp,48
    12a4:	00008067          	ret
    12a8:	ff87f493          	and	s1,a5,-8
    12ac:	1807c663          	bltz	a5,1438 <_malloc_r+0x238>
    12b0:	18b4e463          	bltu	s1,a1,1438 <_malloc_r+0x238>
    12b4:	72c000ef          	jal	19e0 <__malloc_lock>
    12b8:	1f700793          	li	a5,503
    12bc:	4097fa63          	bgeu	a5,s1,16d0 <_malloc_r+0x4d0>
    12c0:	0094d793          	srl	a5,s1,0x9
    12c4:	18078263          	beqz	a5,1448 <_malloc_r+0x248>
    12c8:	00400713          	li	a4,4
    12cc:	36f76063          	bltu	a4,a5,162c <_malloc_r+0x42c>
    12d0:	0064d793          	srl	a5,s1,0x6
    12d4:	03978593          	add	a1,a5,57
    12d8:	03878813          	add	a6,a5,56
    12dc:	00359613          	sll	a2,a1,0x3
    12e0:	7ffff997          	auipc	s3,0x7ffff
    12e4:	e4098993          	add	s3,s3,-448 # 80000120 <__malloc_av_>
    12e8:	00c98633          	add	a2,s3,a2
    12ec:	00462403          	lw	s0,4(a2)
    12f0:	ff860613          	add	a2,a2,-8
    12f4:	02860863          	beq	a2,s0,1324 <_malloc_r+0x124>
    12f8:	00f00513          	li	a0,15
    12fc:	0140006f          	j	1310 <_malloc_r+0x110>
    1300:	00c42683          	lw	a3,12(s0)
    1304:	2a075863          	bgez	a4,15b4 <_malloc_r+0x3b4>
    1308:	00d60e63          	beq	a2,a3,1324 <_malloc_r+0x124>
    130c:	00068413          	mv	s0,a3
    1310:	00442783          	lw	a5,4(s0)
    1314:	ffc7f793          	and	a5,a5,-4
    1318:	40978733          	sub	a4,a5,s1
    131c:	fee552e3          	bge	a0,a4,1300 <_malloc_r+0x100>
    1320:	00080593          	mv	a1,a6
    1324:	0109a403          	lw	s0,16(s3)
    1328:	7ffff897          	auipc	a7,0x7ffff
    132c:	e0088893          	add	a7,a7,-512 # 80000128 <__malloc_av_+0x8>
    1330:	27140e63          	beq	s0,a7,15ac <_malloc_r+0x3ac>
    1334:	00442783          	lw	a5,4(s0)
    1338:	00f00693          	li	a3,15
    133c:	ffc7f793          	and	a5,a5,-4
    1340:	40978733          	sub	a4,a5,s1
    1344:	38e6cc63          	blt	a3,a4,16dc <_malloc_r+0x4dc>
    1348:	0119aa23          	sw	a7,20(s3)
    134c:	0119a823          	sw	a7,16(s3)
    1350:	36075063          	bgez	a4,16b0 <_malloc_r+0x4b0>
    1354:	1ff00713          	li	a4,511
    1358:	0049a503          	lw	a0,4(s3)
    135c:	26f76863          	bltu	a4,a5,15cc <_malloc_r+0x3cc>
    1360:	ff87f713          	and	a4,a5,-8
    1364:	00870713          	add	a4,a4,8
    1368:	00e98733          	add	a4,s3,a4
    136c:	00072683          	lw	a3,0(a4)
    1370:	0057d613          	srl	a2,a5,0x5
    1374:	00100793          	li	a5,1
    1378:	00c797b3          	sll	a5,a5,a2
    137c:	00f56533          	or	a0,a0,a5
    1380:	ff870793          	add	a5,a4,-8
    1384:	00f42623          	sw	a5,12(s0)
    1388:	00d42423          	sw	a3,8(s0)
    138c:	00a9a223          	sw	a0,4(s3)
    1390:	00872023          	sw	s0,0(a4)
    1394:	0086a623          	sw	s0,12(a3)
    1398:	4025d793          	sra	a5,a1,0x2
    139c:	00100613          	li	a2,1
    13a0:	00f61633          	sll	a2,a2,a5
    13a4:	0ac56a63          	bltu	a0,a2,1458 <_malloc_r+0x258>
    13a8:	00a677b3          	and	a5,a2,a0
    13ac:	02079463          	bnez	a5,13d4 <_malloc_r+0x1d4>
    13b0:	00161613          	sll	a2,a2,0x1
    13b4:	ffc5f593          	and	a1,a1,-4
    13b8:	00a677b3          	and	a5,a2,a0
    13bc:	00458593          	add	a1,a1,4
    13c0:	00079a63          	bnez	a5,13d4 <_malloc_r+0x1d4>
    13c4:	00161613          	sll	a2,a2,0x1
    13c8:	00a677b3          	and	a5,a2,a0
    13cc:	00458593          	add	a1,a1,4
    13d0:	fe078ae3          	beqz	a5,13c4 <_malloc_r+0x1c4>
    13d4:	00f00813          	li	a6,15
    13d8:	00359313          	sll	t1,a1,0x3
    13dc:	00698333          	add	t1,s3,t1
    13e0:	00030513          	mv	a0,t1
    13e4:	00c52783          	lw	a5,12(a0)
    13e8:	00058e13          	mv	t3,a1
    13ec:	26f50263          	beq	a0,a5,1650 <_malloc_r+0x450>
    13f0:	0047a703          	lw	a4,4(a5)
    13f4:	00078413          	mv	s0,a5
    13f8:	00c7a783          	lw	a5,12(a5)
    13fc:	ffc77713          	and	a4,a4,-4
    1400:	409706b3          	sub	a3,a4,s1
    1404:	26d84263          	blt	a6,a3,1668 <_malloc_r+0x468>
    1408:	fe06c2e3          	bltz	a3,13ec <_malloc_r+0x1ec>
    140c:	00e40733          	add	a4,s0,a4
    1410:	00472683          	lw	a3,4(a4)
    1414:	00842603          	lw	a2,8(s0)
    1418:	00090513          	mv	a0,s2
    141c:	0016e693          	or	a3,a3,1
    1420:	00d72223          	sw	a3,4(a4)
    1424:	00f62623          	sw	a5,12(a2)
    1428:	00c7a423          	sw	a2,8(a5)
    142c:	5c0000ef          	jal	19ec <__malloc_unlock>
    1430:	00840513          	add	a0,s0,8
    1434:	e59ff06f          	j	128c <_malloc_r+0x8c>
    1438:	00c00793          	li	a5,12
    143c:	00f92023          	sw	a5,0(s2)
    1440:	00000513          	li	a0,0
    1444:	e49ff06f          	j	128c <_malloc_r+0x8c>
    1448:	20000613          	li	a2,512
    144c:	04000593          	li	a1,64
    1450:	03f00813          	li	a6,63
    1454:	e8dff06f          	j	12e0 <_malloc_r+0xe0>
    1458:	0089a403          	lw	s0,8(s3)
    145c:	01612823          	sw	s6,16(sp)
    1460:	00442783          	lw	a5,4(s0)
    1464:	ffc7fb13          	and	s6,a5,-4
    1468:	009b6863          	bltu	s6,s1,1478 <_malloc_r+0x278>
    146c:	409b0733          	sub	a4,s6,s1
    1470:	00f00793          	li	a5,15
    1474:	0ee7ca63          	blt	a5,a4,1568 <_malloc_r+0x368>
    1478:	01912223          	sw	s9,4(sp)
    147c:	7ffffc97          	auipc	s9,0x7ffff
    1480:	290c8c93          	add	s9,s9,656 # 8000070c <__malloc_sbrk_base>
    1484:	000ca703          	lw	a4,0(s9)
    1488:	01412c23          	sw	s4,24(sp)
    148c:	01512a23          	sw	s5,20(sp)
    1490:	01712623          	sw	s7,12(sp)
    1494:	7ffffa97          	auipc	s5,0x7ffff
    1498:	290aaa83          	lw	s5,656(s5) # 80000724 <__malloc_top_pad>
    149c:	fff00793          	li	a5,-1
    14a0:	01640a33          	add	s4,s0,s6
    14a4:	01548ab3          	add	s5,s1,s5
    14a8:	3ef70263          	beq	a4,a5,188c <_malloc_r+0x68c>
    14ac:	000017b7          	lui	a5,0x1
    14b0:	00f78793          	add	a5,a5,15 # 100f <_free_r+0x11b>
    14b4:	00fa8ab3          	add	s5,s5,a5
    14b8:	fffff7b7          	lui	a5,0xfffff
    14bc:	00fafab3          	and	s5,s5,a5
    14c0:	000a8593          	mv	a1,s5
    14c4:	00090513          	mv	a0,s2
    14c8:	7c9050ef          	jal	7490 <_sbrk_r>
    14cc:	fff00793          	li	a5,-1
    14d0:	00050b93          	mv	s7,a0
    14d4:	46f50663          	beq	a0,a5,1940 <_malloc_r+0x740>
    14d8:	01812423          	sw	s8,8(sp)
    14dc:	25456863          	bltu	a0,s4,172c <_malloc_r+0x52c>
    14e0:	7ffffc17          	auipc	s8,0x7ffff
    14e4:	2d4c0c13          	add	s8,s8,724 # 800007b4 <__malloc_current_mallinfo>
    14e8:	000c2583          	lw	a1,0(s8)
    14ec:	00ba85b3          	add	a1,s5,a1
    14f0:	00bc2023          	sw	a1,0(s8)
    14f4:	00058713          	mv	a4,a1
    14f8:	2caa1063          	bne	s4,a0,17b8 <_malloc_r+0x5b8>
    14fc:	01451793          	sll	a5,a0,0x14
    1500:	2a079c63          	bnez	a5,17b8 <_malloc_r+0x5b8>
    1504:	0089ab83          	lw	s7,8(s3)
    1508:	015b07b3          	add	a5,s6,s5
    150c:	0017e793          	or	a5,a5,1
    1510:	00fba223          	sw	a5,4(s7)
    1514:	7ffff717          	auipc	a4,0x7ffff
    1518:	20c70713          	add	a4,a4,524 # 80000720 <__malloc_max_sbrked_mem>
    151c:	00072683          	lw	a3,0(a4)
    1520:	00b6f463          	bgeu	a3,a1,1528 <_malloc_r+0x328>
    1524:	00b72023          	sw	a1,0(a4)
    1528:	7ffff717          	auipc	a4,0x7ffff
    152c:	1f470713          	add	a4,a4,500 # 8000071c <__malloc_max_total_mem>
    1530:	00072683          	lw	a3,0(a4)
    1534:	00b6f463          	bgeu	a3,a1,153c <_malloc_r+0x33c>
    1538:	00b72023          	sw	a1,0(a4)
    153c:	00812c03          	lw	s8,8(sp)
    1540:	000b8413          	mv	s0,s7
    1544:	ffc7f793          	and	a5,a5,-4
    1548:	40978733          	sub	a4,a5,s1
    154c:	3897ec63          	bltu	a5,s1,18e4 <_malloc_r+0x6e4>
    1550:	00f00793          	li	a5,15
    1554:	38e7d863          	bge	a5,a4,18e4 <_malloc_r+0x6e4>
    1558:	01812a03          	lw	s4,24(sp)
    155c:	01412a83          	lw	s5,20(sp)
    1560:	00c12b83          	lw	s7,12(sp)
    1564:	00412c83          	lw	s9,4(sp)
    1568:	0014e793          	or	a5,s1,1
    156c:	00f42223          	sw	a5,4(s0)
    1570:	009404b3          	add	s1,s0,s1
    1574:	0099a423          	sw	s1,8(s3)
    1578:	00176713          	or	a4,a4,1
    157c:	00090513          	mv	a0,s2
    1580:	00e4a223          	sw	a4,4(s1)
    1584:	468000ef          	jal	19ec <__malloc_unlock>
    1588:	02c12083          	lw	ra,44(sp)
    158c:	00840513          	add	a0,s0,8
    1590:	02812403          	lw	s0,40(sp)
    1594:	01012b03          	lw	s6,16(sp)
    1598:	02412483          	lw	s1,36(sp)
    159c:	02012903          	lw	s2,32(sp)
    15a0:	01c12983          	lw	s3,28(sp)
    15a4:	03010113          	add	sp,sp,48
    15a8:	00008067          	ret
    15ac:	0049a503          	lw	a0,4(s3)
    15b0:	de9ff06f          	j	1398 <_malloc_r+0x198>
    15b4:	00842603          	lw	a2,8(s0)
    15b8:	cb1ff06f          	j	1268 <_malloc_r+0x68>
    15bc:	00c7a403          	lw	s0,12(a5) # fffff00c <__crt0_ram_last+0x7ff7f00d>
    15c0:	00258593          	add	a1,a1,2
    15c4:	d68780e3          	beq	a5,s0,1324 <_malloc_r+0x124>
    15c8:	c91ff06f          	j	1258 <_malloc_r+0x58>
    15cc:	0097d713          	srl	a4,a5,0x9
    15d0:	00400693          	li	a3,4
    15d4:	14e6f263          	bgeu	a3,a4,1718 <_malloc_r+0x518>
    15d8:	01400693          	li	a3,20
    15dc:	32e6e663          	bltu	a3,a4,1908 <_malloc_r+0x708>
    15e0:	05c70613          	add	a2,a4,92
    15e4:	05b70693          	add	a3,a4,91
    15e8:	00361613          	sll	a2,a2,0x3
    15ec:	00c98633          	add	a2,s3,a2
    15f0:	00062703          	lw	a4,0(a2)
    15f4:	ff860613          	add	a2,a2,-8
    15f8:	00e61863          	bne	a2,a4,1608 <_malloc_r+0x408>
    15fc:	2980006f          	j	1894 <_malloc_r+0x694>
    1600:	00872703          	lw	a4,8(a4)
    1604:	00e60863          	beq	a2,a4,1614 <_malloc_r+0x414>
    1608:	00472683          	lw	a3,4(a4)
    160c:	ffc6f693          	and	a3,a3,-4
    1610:	fed7e8e3          	bltu	a5,a3,1600 <_malloc_r+0x400>
    1614:	00c72603          	lw	a2,12(a4)
    1618:	00c42623          	sw	a2,12(s0)
    161c:	00e42423          	sw	a4,8(s0)
    1620:	00862423          	sw	s0,8(a2)
    1624:	00872623          	sw	s0,12(a4)
    1628:	d71ff06f          	j	1398 <_malloc_r+0x198>
    162c:	01400713          	li	a4,20
    1630:	10f77863          	bgeu	a4,a5,1740 <_malloc_r+0x540>
    1634:	05400713          	li	a4,84
    1638:	2ef76663          	bltu	a4,a5,1924 <_malloc_r+0x724>
    163c:	00c4d793          	srl	a5,s1,0xc
    1640:	06f78593          	add	a1,a5,111
    1644:	06e78813          	add	a6,a5,110
    1648:	00359613          	sll	a2,a1,0x3
    164c:	c95ff06f          	j	12e0 <_malloc_r+0xe0>
    1650:	001e0e13          	add	t3,t3,1
    1654:	003e7793          	and	a5,t3,3
    1658:	00850513          	add	a0,a0,8
    165c:	10078063          	beqz	a5,175c <_malloc_r+0x55c>
    1660:	00c52783          	lw	a5,12(a0)
    1664:	d89ff06f          	j	13ec <_malloc_r+0x1ec>
    1668:	00842603          	lw	a2,8(s0)
    166c:	0014e593          	or	a1,s1,1
    1670:	00b42223          	sw	a1,4(s0)
    1674:	00f62623          	sw	a5,12(a2)
    1678:	00c7a423          	sw	a2,8(a5)
    167c:	009404b3          	add	s1,s0,s1
    1680:	0099aa23          	sw	s1,20(s3)
    1684:	0099a823          	sw	s1,16(s3)
    1688:	0016e793          	or	a5,a3,1
    168c:	0114a623          	sw	a7,12(s1)
    1690:	0114a423          	sw	a7,8(s1)
    1694:	00f4a223          	sw	a5,4(s1)
    1698:	00e40733          	add	a4,s0,a4
    169c:	00090513          	mv	a0,s2
    16a0:	00d72023          	sw	a3,0(a4)
    16a4:	348000ef          	jal	19ec <__malloc_unlock>
    16a8:	00840513          	add	a0,s0,8
    16ac:	be1ff06f          	j	128c <_malloc_r+0x8c>
    16b0:	00f407b3          	add	a5,s0,a5
    16b4:	0047a703          	lw	a4,4(a5)
    16b8:	00090513          	mv	a0,s2
    16bc:	00176713          	or	a4,a4,1
    16c0:	00e7a223          	sw	a4,4(a5)
    16c4:	328000ef          	jal	19ec <__malloc_unlock>
    16c8:	00840513          	add	a0,s0,8
    16cc:	bc1ff06f          	j	128c <_malloc_r+0x8c>
    16d0:	0034d593          	srl	a1,s1,0x3
    16d4:	00848793          	add	a5,s1,8
    16d8:	b69ff06f          	j	1240 <_malloc_r+0x40>
    16dc:	0014e693          	or	a3,s1,1
    16e0:	00d42223          	sw	a3,4(s0)
    16e4:	009404b3          	add	s1,s0,s1
    16e8:	0099aa23          	sw	s1,20(s3)
    16ec:	0099a823          	sw	s1,16(s3)
    16f0:	00176693          	or	a3,a4,1
    16f4:	0114a623          	sw	a7,12(s1)
    16f8:	0114a423          	sw	a7,8(s1)
    16fc:	00d4a223          	sw	a3,4(s1)
    1700:	00f407b3          	add	a5,s0,a5
    1704:	00090513          	mv	a0,s2
    1708:	00e7a023          	sw	a4,0(a5)
    170c:	2e0000ef          	jal	19ec <__malloc_unlock>
    1710:	00840513          	add	a0,s0,8
    1714:	b79ff06f          	j	128c <_malloc_r+0x8c>
    1718:	0067d713          	srl	a4,a5,0x6
    171c:	03970613          	add	a2,a4,57
    1720:	03870693          	add	a3,a4,56
    1724:	00361613          	sll	a2,a2,0x3
    1728:	ec5ff06f          	j	15ec <_malloc_r+0x3ec>
    172c:	07340c63          	beq	s0,s3,17a4 <_malloc_r+0x5a4>
    1730:	0089a403          	lw	s0,8(s3)
    1734:	00812c03          	lw	s8,8(sp)
    1738:	00442783          	lw	a5,4(s0)
    173c:	e09ff06f          	j	1544 <_malloc_r+0x344>
    1740:	05c78593          	add	a1,a5,92
    1744:	05b78813          	add	a6,a5,91
    1748:	00359613          	sll	a2,a1,0x3
    174c:	b95ff06f          	j	12e0 <_malloc_r+0xe0>
    1750:	00832783          	lw	a5,8(t1)
    1754:	fff58593          	add	a1,a1,-1
    1758:	28679063          	bne	a5,t1,19d8 <_malloc_r+0x7d8>
    175c:	0035f793          	and	a5,a1,3
    1760:	ff830313          	add	t1,t1,-8
    1764:	fe0796e3          	bnez	a5,1750 <_malloc_r+0x550>
    1768:	0049a703          	lw	a4,4(s3)
    176c:	fff64793          	not	a5,a2
    1770:	00e7f7b3          	and	a5,a5,a4
    1774:	00f9a223          	sw	a5,4(s3)
    1778:	00161613          	sll	a2,a2,0x1
    177c:	ccc7eee3          	bltu	a5,a2,1458 <_malloc_r+0x258>
    1780:	cc060ce3          	beqz	a2,1458 <_malloc_r+0x258>
    1784:	00f67733          	and	a4,a2,a5
    1788:	00071a63          	bnez	a4,179c <_malloc_r+0x59c>
    178c:	00161613          	sll	a2,a2,0x1
    1790:	00f67733          	and	a4,a2,a5
    1794:	004e0e13          	add	t3,t3,4
    1798:	fe070ae3          	beqz	a4,178c <_malloc_r+0x58c>
    179c:	000e0593          	mv	a1,t3
    17a0:	c39ff06f          	j	13d8 <_malloc_r+0x1d8>
    17a4:	7ffffc17          	auipc	s8,0x7ffff
    17a8:	010c0c13          	add	s8,s8,16 # 800007b4 <__malloc_current_mallinfo>
    17ac:	000c2703          	lw	a4,0(s8)
    17b0:	00ea8733          	add	a4,s5,a4
    17b4:	00ec2023          	sw	a4,0(s8)
    17b8:	000ca683          	lw	a3,0(s9)
    17bc:	fff00793          	li	a5,-1
    17c0:	18f68663          	beq	a3,a5,194c <_malloc_r+0x74c>
    17c4:	414b87b3          	sub	a5,s7,s4
    17c8:	00e787b3          	add	a5,a5,a4
    17cc:	00fc2023          	sw	a5,0(s8)
    17d0:	007bfc93          	and	s9,s7,7
    17d4:	0c0c8c63          	beqz	s9,18ac <_malloc_r+0x6ac>
    17d8:	419b8bb3          	sub	s7,s7,s9
    17dc:	000017b7          	lui	a5,0x1
    17e0:	00878793          	add	a5,a5,8 # 1008 <_free_r+0x114>
    17e4:	008b8b93          	add	s7,s7,8
    17e8:	419785b3          	sub	a1,a5,s9
    17ec:	015b8ab3          	add	s5,s7,s5
    17f0:	415585b3          	sub	a1,a1,s5
    17f4:	01459593          	sll	a1,a1,0x14
    17f8:	0145da13          	srl	s4,a1,0x14
    17fc:	000a0593          	mv	a1,s4
    1800:	00090513          	mv	a0,s2
    1804:	48d050ef          	jal	7490 <_sbrk_r>
    1808:	fff00793          	li	a5,-1
    180c:	18f50063          	beq	a0,a5,198c <_malloc_r+0x78c>
    1810:	41750533          	sub	a0,a0,s7
    1814:	01450ab3          	add	s5,a0,s4
    1818:	000c2703          	lw	a4,0(s8)
    181c:	0179a423          	sw	s7,8(s3)
    1820:	001ae793          	or	a5,s5,1
    1824:	00ea05b3          	add	a1,s4,a4
    1828:	00bc2023          	sw	a1,0(s8)
    182c:	00fba223          	sw	a5,4(s7)
    1830:	cf3402e3          	beq	s0,s3,1514 <_malloc_r+0x314>
    1834:	00f00693          	li	a3,15
    1838:	0b66f063          	bgeu	a3,s6,18d8 <_malloc_r+0x6d8>
    183c:	00442703          	lw	a4,4(s0)
    1840:	ff4b0793          	add	a5,s6,-12
    1844:	ff87f793          	and	a5,a5,-8
    1848:	00177713          	and	a4,a4,1
    184c:	00f76733          	or	a4,a4,a5
    1850:	00e42223          	sw	a4,4(s0)
    1854:	00500613          	li	a2,5
    1858:	00f40733          	add	a4,s0,a5
    185c:	00c72223          	sw	a2,4(a4)
    1860:	00c72423          	sw	a2,8(a4)
    1864:	00f6e663          	bltu	a3,a5,1870 <_malloc_r+0x670>
    1868:	004ba783          	lw	a5,4(s7)
    186c:	ca9ff06f          	j	1514 <_malloc_r+0x314>
    1870:	00840593          	add	a1,s0,8
    1874:	00090513          	mv	a0,s2
    1878:	e7cff0ef          	jal	ef4 <_free_r>
    187c:	0089ab83          	lw	s7,8(s3)
    1880:	000c2583          	lw	a1,0(s8)
    1884:	004ba783          	lw	a5,4(s7)
    1888:	c8dff06f          	j	1514 <_malloc_r+0x314>
    188c:	010a8a93          	add	s5,s5,16
    1890:	c31ff06f          	j	14c0 <_malloc_r+0x2c0>
    1894:	4026d693          	sra	a3,a3,0x2
    1898:	00100793          	li	a5,1
    189c:	00d797b3          	sll	a5,a5,a3
    18a0:	00f56533          	or	a0,a0,a5
    18a4:	00a9a223          	sw	a0,4(s3)
    18a8:	d71ff06f          	j	1618 <_malloc_r+0x418>
    18ac:	015b85b3          	add	a1,s7,s5
    18b0:	40b005b3          	neg	a1,a1
    18b4:	01459593          	sll	a1,a1,0x14
    18b8:	0145da13          	srl	s4,a1,0x14
    18bc:	000a0593          	mv	a1,s4
    18c0:	00090513          	mv	a0,s2
    18c4:	3cd050ef          	jal	7490 <_sbrk_r>
    18c8:	fff00793          	li	a5,-1
    18cc:	f4f512e3          	bne	a0,a5,1810 <_malloc_r+0x610>
    18d0:	00000a13          	li	s4,0
    18d4:	f45ff06f          	j	1818 <_malloc_r+0x618>
    18d8:	00812c03          	lw	s8,8(sp)
    18dc:	00100793          	li	a5,1
    18e0:	00fba223          	sw	a5,4(s7)
    18e4:	00090513          	mv	a0,s2
    18e8:	104000ef          	jal	19ec <__malloc_unlock>
    18ec:	00000513          	li	a0,0
    18f0:	01812a03          	lw	s4,24(sp)
    18f4:	01412a83          	lw	s5,20(sp)
    18f8:	01012b03          	lw	s6,16(sp)
    18fc:	00c12b83          	lw	s7,12(sp)
    1900:	00412c83          	lw	s9,4(sp)
    1904:	989ff06f          	j	128c <_malloc_r+0x8c>
    1908:	05400693          	li	a3,84
    190c:	04e6e463          	bltu	a3,a4,1954 <_malloc_r+0x754>
    1910:	00c7d713          	srl	a4,a5,0xc
    1914:	06f70613          	add	a2,a4,111
    1918:	06e70693          	add	a3,a4,110
    191c:	00361613          	sll	a2,a2,0x3
    1920:	ccdff06f          	j	15ec <_malloc_r+0x3ec>
    1924:	15400713          	li	a4,340
    1928:	04f76463          	bltu	a4,a5,1970 <_malloc_r+0x770>
    192c:	00f4d793          	srl	a5,s1,0xf
    1930:	07878593          	add	a1,a5,120
    1934:	07778813          	add	a6,a5,119
    1938:	00359613          	sll	a2,a1,0x3
    193c:	9a5ff06f          	j	12e0 <_malloc_r+0xe0>
    1940:	0089a403          	lw	s0,8(s3)
    1944:	00442783          	lw	a5,4(s0)
    1948:	bfdff06f          	j	1544 <_malloc_r+0x344>
    194c:	017ca023          	sw	s7,0(s9)
    1950:	e81ff06f          	j	17d0 <_malloc_r+0x5d0>
    1954:	15400693          	li	a3,340
    1958:	04e6e463          	bltu	a3,a4,19a0 <_malloc_r+0x7a0>
    195c:	00f7d713          	srl	a4,a5,0xf
    1960:	07870613          	add	a2,a4,120
    1964:	07770693          	add	a3,a4,119
    1968:	00361613          	sll	a2,a2,0x3
    196c:	c81ff06f          	j	15ec <_malloc_r+0x3ec>
    1970:	55400713          	li	a4,1364
    1974:	04f76463          	bltu	a4,a5,19bc <_malloc_r+0x7bc>
    1978:	0124d793          	srl	a5,s1,0x12
    197c:	07d78593          	add	a1,a5,125
    1980:	07c78813          	add	a6,a5,124
    1984:	00359613          	sll	a2,a1,0x3
    1988:	959ff06f          	j	12e0 <_malloc_r+0xe0>
    198c:	ff8c8c93          	add	s9,s9,-8
    1990:	019a8ab3          	add	s5,s5,s9
    1994:	417a8ab3          	sub	s5,s5,s7
    1998:	00000a13          	li	s4,0
    199c:	e7dff06f          	j	1818 <_malloc_r+0x618>
    19a0:	55400693          	li	a3,1364
    19a4:	02e6e463          	bltu	a3,a4,19cc <_malloc_r+0x7cc>
    19a8:	0127d713          	srl	a4,a5,0x12
    19ac:	07d70613          	add	a2,a4,125
    19b0:	07c70693          	add	a3,a4,124
    19b4:	00361613          	sll	a2,a2,0x3
    19b8:	c35ff06f          	j	15ec <_malloc_r+0x3ec>
    19bc:	3f800613          	li	a2,1016
    19c0:	07f00593          	li	a1,127
    19c4:	07e00813          	li	a6,126
    19c8:	919ff06f          	j	12e0 <_malloc_r+0xe0>
    19cc:	3f800613          	li	a2,1016
    19d0:	07e00693          	li	a3,126
    19d4:	c19ff06f          	j	15ec <_malloc_r+0x3ec>
    19d8:	0049a783          	lw	a5,4(s3)
    19dc:	d9dff06f          	j	1778 <_malloc_r+0x578>

000019e0 <__malloc_lock>:
    19e0:	7ffff517          	auipc	a0,0x7ffff
    19e4:	d4c50513          	add	a0,a0,-692 # 8000072c <__lock___malloc_recursive_mutex>
    19e8:	36d0506f          	j	7554 <__retarget_lock_acquire_recursive>

000019ec <__malloc_unlock>:
    19ec:	7ffff517          	auipc	a0,0x7ffff
    19f0:	d4050513          	add	a0,a0,-704 # 8000072c <__lock___malloc_recursive_mutex>
    19f4:	3650506f          	j	7558 <__retarget_lock_release_recursive>

000019f8 <_vfprintf_r>:
    19f8:	e7010113          	add	sp,sp,-400
    19fc:	18112623          	sw	ra,396(sp)
    1a00:	00b12423          	sw	a1,8(sp)
    1a04:	00c12623          	sw	a2,12(sp)
    1a08:	00d12a23          	sw	a3,20(sp)
    1a0c:	17312e23          	sw	s3,380(sp)
    1a10:	18812423          	sw	s0,392(sp)
    1a14:	00050993          	mv	s3,a0
    1a18:	14d050ef          	jal	7364 <_localeconv_r>
    1a1c:	00052783          	lw	a5,0(a0)
    1a20:	00078513          	mv	a0,a5
    1a24:	02f12a23          	sw	a5,52(sp)
    1a28:	afcff0ef          	jal	d24 <strlen>
    1a2c:	00050713          	mv	a4,a0
    1a30:	00800613          	li	a2,8
    1a34:	00000593          	li	a1,0
    1a38:	09010513          	add	a0,sp,144
    1a3c:	02e12823          	sw	a4,48(sp)
    1a40:	864ff0ef          	jal	aa4 <memset>
    1a44:	00c12783          	lw	a5,12(sp)
    1a48:	00098863          	beqz	s3,1a58 <_vfprintf_r+0x60>
    1a4c:	0349a703          	lw	a4,52(s3)
    1a50:	00071463          	bnez	a4,1a58 <_vfprintf_r+0x60>
    1a54:	29d0106f          	j	34f0 <_vfprintf_r+0x1af8>
    1a58:	00812703          	lw	a4,8(sp)
    1a5c:	06472683          	lw	a3,100(a4)
    1a60:	00c71703          	lh	a4,12(a4)
    1a64:	0016f693          	and	a3,a3,1
    1a68:	00069863          	bnez	a3,1a78 <_vfprintf_r+0x80>
    1a6c:	20077693          	and	a3,a4,512
    1a70:	00069463          	bnez	a3,1a78 <_vfprintf_r+0x80>
    1a74:	3ec0106f          	j	2e60 <_vfprintf_r+0x1468>
    1a78:	01271693          	sll	a3,a4,0x12
    1a7c:	0206c863          	bltz	a3,1aac <_vfprintf_r+0xb4>
    1a80:	00812503          	lw	a0,8(sp)
    1a84:	000025b7          	lui	a1,0x2
    1a88:	ffffe637          	lui	a2,0xffffe
    1a8c:	06452683          	lw	a3,100(a0)
    1a90:	00b76733          	or	a4,a4,a1
    1a94:	fff60613          	add	a2,a2,-1 # ffffdfff <__crt0_ram_last+0x7ff7e000>
    1a98:	01071713          	sll	a4,a4,0x10
    1a9c:	41075713          	sra	a4,a4,0x10
    1aa0:	00c6f6b3          	and	a3,a3,a2
    1aa4:	00e51623          	sh	a4,12(a0)
    1aa8:	06d52223          	sw	a3,100(a0)
    1aac:	00877693          	and	a3,a4,8
    1ab0:	2a068063          	beqz	a3,1d50 <_vfprintf_r+0x358>
    1ab4:	00812683          	lw	a3,8(sp)
    1ab8:	0106a683          	lw	a3,16(a3)
    1abc:	28068a63          	beqz	a3,1d50 <_vfprintf_r+0x358>
    1ac0:	01a77693          	and	a3,a4,26
    1ac4:	00a00613          	li	a2,10
    1ac8:	2ac68c63          	beq	a3,a2,1d80 <_vfprintf_r+0x388>
    1acc:	0ac10713          	add	a4,sp,172
    1ad0:	17512a23          	sw	s5,372(sp)
    1ad4:	17812423          	sw	s8,360(sp)
    1ad8:	15b12e23          	sw	s11,348(sp)
    1adc:	18912223          	sw	s1,388(sp)
    1ae0:	19212023          	sw	s2,384(sp)
    1ae4:	17412c23          	sw	s4,376(sp)
    1ae8:	17612823          	sw	s6,368(sp)
    1aec:	17712623          	sw	s7,364(sp)
    1af0:	17912223          	sw	s9,356(sp)
    1af4:	17a12023          	sw	s10,352(sp)
    1af8:	0ae12023          	sw	a4,160(sp)
    1afc:	0a012423          	sw	zero,168(sp)
    1b00:	0a012223          	sw	zero,164(sp)
    1b04:	00012c23          	sw	zero,24(sp)
    1b08:	02012423          	sw	zero,40(sp)
    1b0c:	02012623          	sw	zero,44(sp)
    1b10:	00070413          	mv	s0,a4
    1b14:	02012c23          	sw	zero,56(sp)
    1b18:	04012023          	sw	zero,64(sp)
    1b1c:	02012e23          	sw	zero,60(sp)
    1b20:	04012623          	sw	zero,76(sp)
    1b24:	04012423          	sw	zero,72(sp)
    1b28:	00012623          	sw	zero,12(sp)
    1b2c:	7ffffa97          	auipc	s5,0x7ffff
    1b30:	a08a8a93          	add	s5,s5,-1528 # 80000534 <__global_locale>
    1b34:	02500d93          	li	s11,37
    1b38:	00078c13          	mv	s8,a5
    1b3c:	000c0913          	mv	s2,s8
    1b40:	0e4aa483          	lw	s1,228(s5)
    1b44:	015050ef          	jal	7358 <__locale_mb_cur_max>
    1b48:	00050693          	mv	a3,a0
    1b4c:	09010713          	add	a4,sp,144
    1b50:	00090613          	mv	a2,s2
    1b54:	08010593          	add	a1,sp,128
    1b58:	00098513          	mv	a0,s3
    1b5c:	000480e7          	jalr	s1
    1b60:	2c050a63          	beqz	a0,1e34 <_vfprintf_r+0x43c>
    1b64:	2a054a63          	bltz	a0,1e18 <_vfprintf_r+0x420>
    1b68:	08012783          	lw	a5,128(sp)
    1b6c:	01b78663          	beq	a5,s11,1b78 <_vfprintf_r+0x180>
    1b70:	00a90933          	add	s2,s2,a0
    1b74:	fcdff06f          	j	1b40 <_vfprintf_r+0x148>
    1b78:	00050493          	mv	s1,a0
    1b7c:	41890cb3          	sub	s9,s2,s8
    1b80:	2d891063          	bne	s2,s8,1e40 <_vfprintf_r+0x448>
    1b84:	fff00313          	li	t1,-1
    1b88:	00000e93          	li	t4,0
    1b8c:	00194e03          	lbu	t3,1(s2)
    1b90:	06010ba3          	sb	zero,119(sp)
    1b94:	00190913          	add	s2,s2,1
    1b98:	00000b93          	li	s7,0
    1b9c:	05a00493          	li	s1,90
    1ba0:	000e8a13          	mv	s4,t4
    1ba4:	00030b13          	mv	s6,t1
    1ba8:	00190913          	add	s2,s2,1
    1bac:	fe0e0793          	add	a5,t3,-32
    1bb0:	04f4ea63          	bltu	s1,a5,1c04 <_vfprintf_r+0x20c>
    1bb4:	0000d717          	auipc	a4,0xd
    1bb8:	1b070713          	add	a4,a4,432 # ed64 <_ctype_+0x104>
    1bbc:	00279793          	sll	a5,a5,0x2
    1bc0:	00e787b3          	add	a5,a5,a4
    1bc4:	0007a783          	lw	a5,0(a5)
    1bc8:	00e787b3          	add	a5,a5,a4
    1bcc:	00078067          	jr	a5
    1bd0:	00000b93          	li	s7,0
    1bd4:	fd0e0713          	add	a4,t3,-48
    1bd8:	00900693          	li	a3,9
    1bdc:	00094e03          	lbu	t3,0(s2)
    1be0:	002b9793          	sll	a5,s7,0x2
    1be4:	017787b3          	add	a5,a5,s7
    1be8:	00179793          	sll	a5,a5,0x1
    1bec:	00f70bb3          	add	s7,a4,a5
    1bf0:	fd0e0713          	add	a4,t3,-48
    1bf4:	00190913          	add	s2,s2,1
    1bf8:	fee6f2e3          	bgeu	a3,a4,1bdc <_vfprintf_r+0x1e4>
    1bfc:	fe0e0793          	add	a5,t3,-32
    1c00:	faf4fae3          	bgeu	s1,a5,1bb4 <_vfprintf_r+0x1bc>
    1c04:	000a0e93          	mv	t4,s4
    1c08:	260e0a63          	beqz	t3,1e7c <_vfprintf_r+0x484>
    1c0c:	0fc10623          	sb	t3,236(sp)
    1c10:	06010ba3          	sb	zero,119(sp)
    1c14:	00100c93          	li	s9,1
    1c18:	00000613          	li	a2,0
    1c1c:	00012823          	sw	zero,16(sp)
    1c20:	00100d13          	li	s10,1
    1c24:	00000313          	li	t1,0
    1c28:	02012223          	sw	zero,36(sp)
    1c2c:	02012023          	sw	zero,32(sp)
    1c30:	00000a13          	li	s4,0
    1c34:	0ec10c13          	add	s8,sp,236
    1c38:	002ef293          	and	t0,t4,2
    1c3c:	00028463          	beqz	t0,1c44 <_vfprintf_r+0x24c>
    1c40:	002c8c93          	add	s9,s9,2
    1c44:	084eff93          	and	t6,t4,132
    1c48:	0a812483          	lw	s1,168(sp)
    1c4c:	000f9663          	bnez	t6,1c58 <_vfprintf_r+0x260>
    1c50:	419b8733          	sub	a4,s7,s9
    1c54:	40e04663          	bgtz	a4,2060 <_vfprintf_r+0x668>
    1c58:	02060a63          	beqz	a2,1c8c <_vfprintf_r+0x294>
    1c5c:	0a412703          	lw	a4,164(sp)
    1c60:	07710613          	add	a2,sp,119
    1c64:	00148493          	add	s1,s1,1
    1c68:	00170713          	add	a4,a4,1
    1c6c:	00100793          	li	a5,1
    1c70:	00c42023          	sw	a2,0(s0)
    1c74:	00f42223          	sw	a5,4(s0)
    1c78:	0a912423          	sw	s1,168(sp)
    1c7c:	0ae12223          	sw	a4,164(sp)
    1c80:	00700613          	li	a2,7
    1c84:	00840413          	add	s0,s0,8
    1c88:	4ce64863          	blt	a2,a4,2158 <_vfprintf_r+0x760>
    1c8c:	02028a63          	beqz	t0,1cc0 <_vfprintf_r+0x2c8>
    1c90:	0a412703          	lw	a4,164(sp)
    1c94:	07810613          	add	a2,sp,120
    1c98:	00c42023          	sw	a2,0(s0)
    1c9c:	00248493          	add	s1,s1,2
    1ca0:	00200613          	li	a2,2
    1ca4:	00170713          	add	a4,a4,1
    1ca8:	00c42223          	sw	a2,4(s0)
    1cac:	0a912423          	sw	s1,168(sp)
    1cb0:	0ae12223          	sw	a4,164(sp)
    1cb4:	00700613          	li	a2,7
    1cb8:	00840413          	add	s0,s0,8
    1cbc:	5ce644e3          	blt	a2,a4,2a84 <_vfprintf_r+0x108c>
    1cc0:	08000713          	li	a4,128
    1cc4:	3aef80e3          	beq	t6,a4,2864 <_vfprintf_r+0xe6c>
    1cc8:	41a30b33          	sub	s6,t1,s10
    1ccc:	4b604ae3          	bgtz	s6,2980 <_vfprintf_r+0xf88>
    1cd0:	100ef713          	and	a4,t4,256
    1cd4:	1a0710e3          	bnez	a4,2674 <_vfprintf_r+0xc7c>
    1cd8:	0a412783          	lw	a5,164(sp)
    1cdc:	01a484b3          	add	s1,s1,s10
    1ce0:	01842023          	sw	s8,0(s0)
    1ce4:	00178793          	add	a5,a5,1
    1ce8:	01a42223          	sw	s10,4(s0)
    1cec:	0a912423          	sw	s1,168(sp)
    1cf0:	0af12223          	sw	a5,164(sp)
    1cf4:	00700713          	li	a4,7
    1cf8:	58f74c63          	blt	a4,a5,2290 <_vfprintf_r+0x898>
    1cfc:	00840413          	add	s0,s0,8
    1d00:	004eff13          	and	t5,t4,4
    1d04:	000f0663          	beqz	t5,1d10 <_vfprintf_r+0x318>
    1d08:	419b8d33          	sub	s10,s7,s9
    1d0c:	5ba04ce3          	bgtz	s10,2ac4 <_vfprintf_r+0x10cc>
    1d10:	000b8e93          	mv	t4,s7
    1d14:	019bd463          	bge	s7,s9,1d1c <_vfprintf_r+0x324>
    1d18:	000c8e93          	mv	t4,s9
    1d1c:	00c12783          	lw	a5,12(sp)
    1d20:	01d787b3          	add	a5,a5,t4
    1d24:	00f12623          	sw	a5,12(sp)
    1d28:	18049663          	bnez	s1,1eb4 <_vfprintf_r+0x4bc>
    1d2c:	01012783          	lw	a5,16(sp)
    1d30:	0a012223          	sw	zero,164(sp)
    1d34:	00078863          	beqz	a5,1d44 <_vfprintf_r+0x34c>
    1d38:	01012583          	lw	a1,16(sp)
    1d3c:	00098513          	mv	a0,s3
    1d40:	9b4ff0ef          	jal	ef4 <_free_r>
    1d44:	0ac10413          	add	s0,sp,172
    1d48:	00090c13          	mv	s8,s2
    1d4c:	df1ff06f          	j	1b3c <_vfprintf_r+0x144>
    1d50:	00812403          	lw	s0,8(sp)
    1d54:	00098513          	mv	a0,s3
    1d58:	00f12623          	sw	a5,12(sp)
    1d5c:	00040593          	mv	a1,s0
    1d60:	118050ef          	jal	6e78 <__swsetup_r>
    1d64:	00050463          	beqz	a0,1d6c <_vfprintf_r+0x374>
    1d68:	5600206f          	j	42c8 <_vfprintf_r+0x28d0>
    1d6c:	00c41703          	lh	a4,12(s0)
    1d70:	00a00613          	li	a2,10
    1d74:	00c12783          	lw	a5,12(sp)
    1d78:	01a77693          	and	a3,a4,26
    1d7c:	d4c698e3          	bne	a3,a2,1acc <_vfprintf_r+0xd4>
    1d80:	00812603          	lw	a2,8(sp)
    1d84:	00e61683          	lh	a3,14(a2)
    1d88:	d406c2e3          	bltz	a3,1acc <_vfprintf_r+0xd4>
    1d8c:	06462683          	lw	a3,100(a2)
    1d90:	0016f693          	and	a3,a3,1
    1d94:	00069863          	bnez	a3,1da4 <_vfprintf_r+0x3ac>
    1d98:	20077713          	and	a4,a4,512
    1d9c:	00071463          	bnez	a4,1da4 <_vfprintf_r+0x3ac>
    1da0:	53d0106f          	j	3adc <_vfprintf_r+0x20e4>
    1da4:	01412683          	lw	a3,20(sp)
    1da8:	00812583          	lw	a1,8(sp)
    1dac:	00098513          	mv	a0,s3
    1db0:	00078613          	mv	a2,a5
    1db4:	0e5020ef          	jal	4698 <__sbprintf>
    1db8:	18c12083          	lw	ra,396(sp)
    1dbc:	18812403          	lw	s0,392(sp)
    1dc0:	00a12623          	sw	a0,12(sp)
    1dc4:	00c12503          	lw	a0,12(sp)
    1dc8:	17c12983          	lw	s3,380(sp)
    1dcc:	19010113          	add	sp,sp,400
    1dd0:	00008067          	ret
    1dd4:	00098513          	mv	a0,s3
    1dd8:	58c050ef          	jal	7364 <_localeconv_r>
    1ddc:	00452783          	lw	a5,4(a0)
    1de0:	00078513          	mv	a0,a5
    1de4:	04f12423          	sw	a5,72(sp)
    1de8:	f3dfe0ef          	jal	d24 <strlen>
    1dec:	00050793          	mv	a5,a0
    1df0:	00098513          	mv	a0,s3
    1df4:	00078c93          	mv	s9,a5
    1df8:	04f12623          	sw	a5,76(sp)
    1dfc:	568050ef          	jal	7364 <_localeconv_r>
    1e00:	00852703          	lw	a4,8(a0)
    1e04:	02e12e23          	sw	a4,60(sp)
    1e08:	000c8463          	beqz	s9,1e10 <_vfprintf_r+0x418>
    1e0c:	1ec0106f          	j	2ff8 <_vfprintf_r+0x1600>
    1e10:	00094e03          	lbu	t3,0(s2)
    1e14:	d95ff06f          	j	1ba8 <_vfprintf_r+0x1b0>
    1e18:	00800613          	li	a2,8
    1e1c:	00000593          	li	a1,0
    1e20:	09010513          	add	a0,sp,144
    1e24:	c81fe0ef          	jal	aa4 <memset>
    1e28:	00100513          	li	a0,1
    1e2c:	00a90933          	add	s2,s2,a0
    1e30:	d11ff06f          	j	1b40 <_vfprintf_r+0x148>
    1e34:	00050493          	mv	s1,a0
    1e38:	41890cb3          	sub	s9,s2,s8
    1e3c:	05890063          	beq	s2,s8,1e7c <_vfprintf_r+0x484>
    1e40:	0a812683          	lw	a3,168(sp)
    1e44:	0a412703          	lw	a4,164(sp)
    1e48:	01842023          	sw	s8,0(s0)
    1e4c:	019686b3          	add	a3,a3,s9
    1e50:	00170713          	add	a4,a4,1
    1e54:	01942223          	sw	s9,4(s0)
    1e58:	0ad12423          	sw	a3,168(sp)
    1e5c:	0ae12223          	sw	a4,164(sp)
    1e60:	00700693          	li	a3,7
    1e64:	00840413          	add	s0,s0,8
    1e68:	02e6c863          	blt	a3,a4,1e98 <_vfprintf_r+0x4a0>
    1e6c:	00c12783          	lw	a5,12(sp)
    1e70:	019787b3          	add	a5,a5,s9
    1e74:	00f12623          	sw	a5,12(sp)
    1e78:	d00496e3          	bnez	s1,1b84 <_vfprintf_r+0x18c>
    1e7c:	0a812783          	lw	a5,168(sp)
    1e80:	00078463          	beqz	a5,1e88 <_vfprintf_r+0x490>
    1e84:	4090106f          	j	3a8c <_vfprintf_r+0x2094>
    1e88:	00812783          	lw	a5,8(sp)
    1e8c:	0a012223          	sw	zero,164(sp)
    1e90:	00c79783          	lh	a5,12(a5)
    1e94:	0500006f          	j	1ee4 <_vfprintf_r+0x4ec>
    1e98:	00812583          	lw	a1,8(sp)
    1e9c:	0a010613          	add	a2,sp,160
    1ea0:	00098513          	mv	a0,s3
    1ea4:	211020ef          	jal	48b4 <__sprint_r>
    1ea8:	02051a63          	bnez	a0,1edc <_vfprintf_r+0x4e4>
    1eac:	0ac10413          	add	s0,sp,172
    1eb0:	fbdff06f          	j	1e6c <_vfprintf_r+0x474>
    1eb4:	00812583          	lw	a1,8(sp)
    1eb8:	0a010613          	add	a2,sp,160
    1ebc:	00098513          	mv	a0,s3
    1ec0:	1f5020ef          	jal	48b4 <__sprint_r>
    1ec4:	e60504e3          	beqz	a0,1d2c <_vfprintf_r+0x334>
    1ec8:	01012283          	lw	t0,16(sp)
    1ecc:	00028863          	beqz	t0,1edc <_vfprintf_r+0x4e4>
    1ed0:	00028593          	mv	a1,t0
    1ed4:	00098513          	mv	a0,s3
    1ed8:	81cff0ef          	jal	ef4 <_free_r>
    1edc:	00812783          	lw	a5,8(sp)
    1ee0:	00c79783          	lh	a5,12(a5)
    1ee4:	00812703          	lw	a4,8(sp)
    1ee8:	06472703          	lw	a4,100(a4)
    1eec:	00177713          	and	a4,a4,1
    1ef0:	3c070463          	beqz	a4,22b8 <_vfprintf_r+0x8c0>
    1ef4:	0407f793          	and	a5,a5,64
    1ef8:	18412483          	lw	s1,388(sp)
    1efc:	18012903          	lw	s2,384(sp)
    1f00:	17812a03          	lw	s4,376(sp)
    1f04:	17412a83          	lw	s5,372(sp)
    1f08:	17012b03          	lw	s6,368(sp)
    1f0c:	16c12b83          	lw	s7,364(sp)
    1f10:	16812c03          	lw	s8,360(sp)
    1f14:	16412c83          	lw	s9,356(sp)
    1f18:	16012d03          	lw	s10,352(sp)
    1f1c:	15c12d83          	lw	s11,348(sp)
    1f20:	00078463          	beqz	a5,1f28 <_vfprintf_r+0x530>
    1f24:	3d00206f          	j	42f4 <_vfprintf_r+0x28fc>
    1f28:	18c12083          	lw	ra,396(sp)
    1f2c:	18812403          	lw	s0,392(sp)
    1f30:	00c12503          	lw	a0,12(sp)
    1f34:	17c12983          	lw	s3,380(sp)
    1f38:	19010113          	add	sp,sp,400
    1f3c:	00008067          	ret
    1f40:	008a7713          	and	a4,s4,8
    1f44:	000a0e93          	mv	t4,s4
    1f48:	000b0313          	mv	t1,s6
    1f4c:	00070463          	beqz	a4,1f54 <_vfprintf_r+0x55c>
    1f50:	0200106f          	j	2f70 <_vfprintf_r+0x1578>
    1f54:	01412783          	lw	a5,20(sp)
    1f58:	00778b13          	add	s6,a5,7
    1f5c:	ff8b7b13          	and	s6,s6,-8
    1f60:	000b2783          	lw	a5,0(s6)
    1f64:	02f12423          	sw	a5,40(sp)
    1f68:	004b2783          	lw	a5,4(s6)
    1f6c:	02f12623          	sw	a5,44(sp)
    1f70:	008b0793          	add	a5,s6,8
    1f74:	00f12a23          	sw	a5,20(sp)
    1f78:	02c12a03          	lw	s4,44(sp)
    1f7c:	7fffe717          	auipc	a4,0x7fffe
    1f80:	72470713          	add	a4,a4,1828 # 800006a0 <__global_locale+0x16c>
    1f84:	00072c83          	lw	s9,0(a4)
    1f88:	00472d03          	lw	s10,4(a4)
    1f8c:	02812b03          	lw	s6,40(sp)
    1f90:	001a1493          	sll	s1,s4,0x1
    1f94:	0014d493          	srl	s1,s1,0x1
    1f98:	000b0513          	mv	a0,s6
    1f9c:	00048593          	mv	a1,s1
    1fa0:	000c8613          	mv	a2,s9
    1fa4:	000d0693          	mv	a3,s10
    1fa8:	02612223          	sw	t1,36(sp)
    1fac:	03c12023          	sw	t3,32(sp)
    1fb0:	01d12823          	sw	t4,16(sp)
    1fb4:	1800c0ef          	jal	e134 <__unorddf2>
    1fb8:	01012e83          	lw	t4,16(sp)
    1fbc:	02012e03          	lw	t3,32(sp)
    1fc0:	02412303          	lw	t1,36(sp)
    1fc4:	00050463          	beqz	a0,1fcc <_vfprintf_r+0x5d4>
    1fc8:	4080106f          	j	33d0 <_vfprintf_r+0x19d8>
    1fcc:	000b0513          	mv	a0,s6
    1fd0:	00048593          	mv	a1,s1
    1fd4:	000c8613          	mv	a2,s9
    1fd8:	000d0693          	mv	a3,s10
    1fdc:	7b90a0ef          	jal	cf94 <__ledf2>
    1fe0:	01012e83          	lw	t4,16(sp)
    1fe4:	02012e03          	lw	t3,32(sp)
    1fe8:	02412303          	lw	t1,36(sp)
    1fec:	00a04463          	bgtz	a0,1ff4 <_vfprintf_r+0x5fc>
    1ff0:	3e00106f          	j	33d0 <_vfprintf_r+0x19d8>
    1ff4:	000b0513          	mv	a0,s6
    1ff8:	000a0593          	mv	a1,s4
    1ffc:	00000613          	li	a2,0
    2000:	00000693          	li	a3,0
    2004:	7910a0ef          	jal	cf94 <__ledf2>
    2008:	01012e83          	lw	t4,16(sp)
    200c:	02012e03          	lw	t3,32(sp)
    2010:	00055463          	bgez	a0,2018 <_vfprintf_r+0x620>
    2014:	6650106f          	j	3e78 <_vfprintf_r+0x2480>
    2018:	07714603          	lbu	a2,119(sp)
    201c:	04700713          	li	a4,71
    2020:	0000dc17          	auipc	s8,0xd
    2024:	a54c0c13          	add	s8,s8,-1452 # ea74 <__fini_array_end+0x118>
    2028:	01c74663          	blt	a4,t3,2034 <_vfprintf_r+0x63c>
    202c:	0000dc17          	auipc	s8,0xd
    2030:	a44c0c13          	add	s8,s8,-1468 # ea70 <__fini_array_end+0x114>
    2034:	00012823          	sw	zero,16(sp)
    2038:	02012223          	sw	zero,36(sp)
    203c:	02012023          	sw	zero,32(sp)
    2040:	f7fefe93          	and	t4,t4,-129
    2044:	00300c93          	li	s9,3
    2048:	00300d13          	li	s10,3
    204c:	00000313          	li	t1,0
    2050:	00000a13          	li	s4,0
    2054:	be0602e3          	beqz	a2,1c38 <_vfprintf_r+0x240>
    2058:	001c8c93          	add	s9,s9,1
    205c:	bddff06f          	j	1c38 <_vfprintf_r+0x240>
    2060:	01000593          	li	a1,16
    2064:	0a412603          	lw	a2,164(sp)
    2068:	0000db17          	auipc	s6,0xd
    206c:	f10b0b13          	add	s6,s6,-240 # ef78 <blanks.1>
    2070:	0ae5dc63          	bge	a1,a4,2128 <_vfprintf_r+0x730>
    2074:	00040793          	mv	a5,s0
    2078:	00048693          	mv	a3,s1
    207c:	01000893          	li	a7,16
    2080:	000b0493          	mv	s1,s6
    2084:	00700393          	li	t2,7
    2088:	000a0b13          	mv	s6,s4
    208c:	04512223          	sw	t0,68(sp)
    2090:	05f12823          	sw	t6,80(sp)
    2094:	05d12a23          	sw	t4,84(sp)
    2098:	05c12c23          	sw	t3,88(sp)
    209c:	00070413          	mv	s0,a4
    20a0:	00030a13          	mv	s4,t1
    20a4:	00c0006f          	j	20b0 <_vfprintf_r+0x6b8>
    20a8:	ff040413          	add	s0,s0,-16
    20ac:	0488da63          	bge	a7,s0,2100 <_vfprintf_r+0x708>
    20b0:	01068693          	add	a3,a3,16
    20b4:	00160613          	add	a2,a2,1
    20b8:	0097a023          	sw	s1,0(a5)
    20bc:	0117a223          	sw	a7,4(a5)
    20c0:	0ad12423          	sw	a3,168(sp)
    20c4:	0ac12223          	sw	a2,164(sp)
    20c8:	00878793          	add	a5,a5,8
    20cc:	fcc3dee3          	bge	t2,a2,20a8 <_vfprintf_r+0x6b0>
    20d0:	00812583          	lw	a1,8(sp)
    20d4:	0a010613          	add	a2,sp,160
    20d8:	00098513          	mv	a0,s3
    20dc:	7d8020ef          	jal	48b4 <__sprint_r>
    20e0:	de0514e3          	bnez	a0,1ec8 <_vfprintf_r+0x4d0>
    20e4:	01000893          	li	a7,16
    20e8:	ff040413          	add	s0,s0,-16
    20ec:	0a812683          	lw	a3,168(sp)
    20f0:	0a412603          	lw	a2,164(sp)
    20f4:	0ac10793          	add	a5,sp,172
    20f8:	00700393          	li	t2,7
    20fc:	fa88cae3          	blt	a7,s0,20b0 <_vfprintf_r+0x6b8>
    2100:	04412283          	lw	t0,68(sp)
    2104:	05012f83          	lw	t6,80(sp)
    2108:	05412e83          	lw	t4,84(sp)
    210c:	05812e03          	lw	t3,88(sp)
    2110:	000a0313          	mv	t1,s4
    2114:	00040713          	mv	a4,s0
    2118:	000b0a13          	mv	s4,s6
    211c:	00078413          	mv	s0,a5
    2120:	00048b13          	mv	s6,s1
    2124:	00068493          	mv	s1,a3
    2128:	00e484b3          	add	s1,s1,a4
    212c:	00160613          	add	a2,a2,1
    2130:	00e42223          	sw	a4,4(s0)
    2134:	01642023          	sw	s6,0(s0)
    2138:	0a912423          	sw	s1,168(sp)
    213c:	0ac12223          	sw	a2,164(sp)
    2140:	00700713          	li	a4,7
    2144:	00c75463          	bge	a4,a2,214c <_vfprintf_r+0x754>
    2148:	2380106f          	j	3380 <_vfprintf_r+0x1988>
    214c:	07714603          	lbu	a2,119(sp)
    2150:	00840413          	add	s0,s0,8
    2154:	b05ff06f          	j	1c58 <_vfprintf_r+0x260>
    2158:	00812583          	lw	a1,8(sp)
    215c:	0a010613          	add	a2,sp,160
    2160:	00098513          	mv	a0,s3
    2164:	04612e23          	sw	t1,92(sp)
    2168:	05c12c23          	sw	t3,88(sp)
    216c:	05d12a23          	sw	t4,84(sp)
    2170:	05f12823          	sw	t6,80(sp)
    2174:	04512223          	sw	t0,68(sp)
    2178:	73c020ef          	jal	48b4 <__sprint_r>
    217c:	d40516e3          	bnez	a0,1ec8 <_vfprintf_r+0x4d0>
    2180:	0a812483          	lw	s1,168(sp)
    2184:	05c12303          	lw	t1,92(sp)
    2188:	05812e03          	lw	t3,88(sp)
    218c:	05412e83          	lw	t4,84(sp)
    2190:	05012f83          	lw	t6,80(sp)
    2194:	04412283          	lw	t0,68(sp)
    2198:	0ac10413          	add	s0,sp,172
    219c:	af1ff06f          	j	1c8c <_vfprintf_r+0x294>
    21a0:	0a412d03          	lw	s10,164(sp)
    21a4:	01812783          	lw	a5,24(sp)
    21a8:	00100693          	li	a3,1
    21ac:	01842023          	sw	s8,0(s0)
    21b0:	00148493          	add	s1,s1,1
    21b4:	001d0d13          	add	s10,s10,1
    21b8:	00840b13          	add	s6,s0,8
    21bc:	32f6d0e3          	bge	a3,a5,2cdc <_vfprintf_r+0x12e4>
    21c0:	00100693          	li	a3,1
    21c4:	00d42223          	sw	a3,4(s0)
    21c8:	0a912423          	sw	s1,168(sp)
    21cc:	0ba12223          	sw	s10,164(sp)
    21d0:	00700693          	li	a3,7
    21d4:	01a6d463          	bge	a3,s10,21dc <_vfprintf_r+0x7e4>
    21d8:	0680106f          	j	3240 <_vfprintf_r+0x1848>
    21dc:	03012783          	lw	a5,48(sp)
    21e0:	03412703          	lw	a4,52(sp)
    21e4:	001d0d13          	add	s10,s10,1
    21e8:	00f484b3          	add	s1,s1,a5
    21ec:	00eb2023          	sw	a4,0(s6)
    21f0:	00fb2223          	sw	a5,4(s6)
    21f4:	0a912423          	sw	s1,168(sp)
    21f8:	0ba12223          	sw	s10,164(sp)
    21fc:	00700693          	li	a3,7
    2200:	008b0b13          	add	s6,s6,8
    2204:	01a6d463          	bge	a3,s10,220c <_vfprintf_r+0x814>
    2208:	0680106f          	j	3270 <_vfprintf_r+0x1878>
    220c:	02812603          	lw	a2,40(sp)
    2210:	02c12683          	lw	a3,44(sp)
    2214:	01812783          	lw	a5,24(sp)
    2218:	00060513          	mv	a0,a2
    221c:	00068593          	mv	a1,a3
    2220:	00000613          	li	a2,0
    2224:	00000693          	li	a3,0
    2228:	03d12023          	sw	t4,32(sp)
    222c:	fff78413          	add	s0,a5,-1
    2230:	3d90a0ef          	jal	ce08 <__eqdf2>
    2234:	02012e83          	lw	t4,32(sp)
    2238:	2e0506e3          	beqz	a0,2d24 <_vfprintf_r+0x132c>
    223c:	001c0793          	add	a5,s8,1
    2240:	001d0d13          	add	s10,s10,1
    2244:	008484b3          	add	s1,s1,s0
    2248:	00fb2023          	sw	a5,0(s6)
    224c:	008b2223          	sw	s0,4(s6)
    2250:	0a912423          	sw	s1,168(sp)
    2254:	0ba12223          	sw	s10,164(sp)
    2258:	00700793          	li	a5,7
    225c:	008b0b13          	add	s6,s6,8
    2260:	29a7cce3          	blt	a5,s10,2cf8 <_vfprintf_r+0x1300>
    2264:	04012703          	lw	a4,64(sp)
    2268:	08810793          	add	a5,sp,136
    226c:	001d0d13          	add	s10,s10,1
    2270:	009704b3          	add	s1,a4,s1
    2274:	00fb2023          	sw	a5,0(s6)
    2278:	00eb2223          	sw	a4,4(s6)
    227c:	0a912423          	sw	s1,168(sp)
    2280:	0ba12223          	sw	s10,164(sp)
    2284:	00700793          	li	a5,7
    2288:	008b0413          	add	s0,s6,8
    228c:	a7a7dae3          	bge	a5,s10,1d00 <_vfprintf_r+0x308>
    2290:	00812583          	lw	a1,8(sp)
    2294:	0a010613          	add	a2,sp,160
    2298:	00098513          	mv	a0,s3
    229c:	03d12023          	sw	t4,32(sp)
    22a0:	614020ef          	jal	48b4 <__sprint_r>
    22a4:	c20512e3          	bnez	a0,1ec8 <_vfprintf_r+0x4d0>
    22a8:	0a812483          	lw	s1,168(sp)
    22ac:	02012e83          	lw	t4,32(sp)
    22b0:	0ac10413          	add	s0,sp,172
    22b4:	a4dff06f          	j	1d00 <_vfprintf_r+0x308>
    22b8:	2007f713          	and	a4,a5,512
    22bc:	c2071ce3          	bnez	a4,1ef4 <_vfprintf_r+0x4fc>
    22c0:	00812403          	lw	s0,8(sp)
    22c4:	05842503          	lw	a0,88(s0)
    22c8:	290050ef          	jal	7558 <__retarget_lock_release_recursive>
    22cc:	00c41783          	lh	a5,12(s0)
    22d0:	c25ff06f          	j	1ef4 <_vfprintf_r+0x4fc>
    22d4:	00094e03          	lbu	t3,0(s2)
    22d8:	020a6a13          	or	s4,s4,32
    22dc:	8cdff06f          	j	1ba8 <_vfprintf_r+0x1b0>
    22e0:	01412703          	lw	a4,20(sp)
    22e4:	04300793          	li	a5,67
    22e8:	000a0e93          	mv	t4,s4
    22ec:	00470493          	add	s1,a4,4
    22f0:	64fe08e3          	beq	t3,a5,3140 <_vfprintf_r+0x1748>
    22f4:	010a7793          	and	a5,s4,16
    22f8:	640794e3          	bnez	a5,3140 <_vfprintf_r+0x1748>
    22fc:	01412783          	lw	a5,20(sp)
    2300:	00100c93          	li	s9,1
    2304:	00100d13          	li	s10,1
    2308:	0007a783          	lw	a5,0(a5)
    230c:	0ec10c13          	add	s8,sp,236
    2310:	0ef10623          	sb	a5,236(sp)
    2314:	06010ba3          	sb	zero,119(sp)
    2318:	00912a23          	sw	s1,20(sp)
    231c:	00000613          	li	a2,0
    2320:	00012823          	sw	zero,16(sp)
    2324:	00000313          	li	t1,0
    2328:	02012223          	sw	zero,36(sp)
    232c:	02012023          	sw	zero,32(sp)
    2330:	00000a13          	li	s4,0
    2334:	905ff06f          	j	1c38 <_vfprintf_r+0x240>
    2338:	01412783          	lw	a5,20(sp)
    233c:	06010ba3          	sb	zero,119(sp)
    2340:	000b0313          	mv	t1,s6
    2344:	0007ac03          	lw	s8,0(a5)
    2348:	000a0e93          	mv	t4,s4
    234c:	00478b13          	add	s6,a5,4
    2350:	5a0c0ce3          	beqz	s8,3108 <_vfprintf_r+0x1710>
    2354:	05300713          	li	a4,83
    2358:	00ee1463          	bne	t3,a4,2360 <_vfprintf_r+0x968>
    235c:	1d00106f          	j	352c <_vfprintf_r+0x1b34>
    2360:	010a7a13          	and	s4,s4,16
    2364:	000a0463          	beqz	s4,236c <_vfprintf_r+0x974>
    2368:	1c40106f          	j	352c <_vfprintf_r+0x1b34>
    236c:	00035463          	bgez	t1,2374 <_vfprintf_r+0x97c>
    2370:	6d40106f          	j	3a44 <_vfprintf_r+0x204c>
    2374:	00030613          	mv	a2,t1
    2378:	00000593          	li	a1,0
    237c:	000c0513          	mv	a0,s8
    2380:	03d12023          	sw	t4,32(sp)
    2384:	00612a23          	sw	t1,20(sp)
    2388:	661040ef          	jal	71e8 <memchr>
    238c:	00a12823          	sw	a0,16(sp)
    2390:	01412303          	lw	t1,20(sp)
    2394:	02012e83          	lw	t4,32(sp)
    2398:	00051463          	bnez	a0,23a0 <_vfprintf_r+0x9a8>
    239c:	1780206f          	j	4514 <_vfprintf_r+0x2b1c>
    23a0:	01012783          	lw	a5,16(sp)
    23a4:	07714603          	lbu	a2,119(sp)
    23a8:	01612a23          	sw	s6,20(sp)
    23ac:	41878d33          	sub	s10,a5,s8
    23b0:	fffd4813          	not	a6,s10
    23b4:	41f85813          	sra	a6,a6,0x1f
    23b8:	02012223          	sw	zero,36(sp)
    23bc:	02012023          	sw	zero,32(sp)
    23c0:	00012823          	sw	zero,16(sp)
    23c4:	010d7cb3          	and	s9,s10,a6
    23c8:	00000313          	li	t1,0
    23cc:	07300e13          	li	t3,115
    23d0:	860604e3          	beqz	a2,1c38 <_vfprintf_r+0x240>
    23d4:	c85ff06f          	j	2058 <_vfprintf_r+0x660>
    23d8:	01412783          	lw	a5,20(sp)
    23dc:	0007ab83          	lw	s7,0(a5)
    23e0:	00478793          	add	a5,a5,4
    23e4:	2a0bdae3          	bgez	s7,2e98 <_vfprintf_r+0x14a0>
    23e8:	41700bb3          	neg	s7,s7
    23ec:	00f12a23          	sw	a5,20(sp)
    23f0:	00094e03          	lbu	t3,0(s2)
    23f4:	004a6a13          	or	s4,s4,4
    23f8:	fb0ff06f          	j	1ba8 <_vfprintf_r+0x1b0>
    23fc:	02b00793          	li	a5,43
    2400:	00094e03          	lbu	t3,0(s2)
    2404:	06f10ba3          	sb	a5,119(sp)
    2408:	fa0ff06f          	j	1ba8 <_vfprintf_r+0x1b0>
    240c:	000b0313          	mv	t1,s6
    2410:	010a6613          	or	a2,s4,16
    2414:	02067793          	and	a5,a2,32
    2418:	1c0780e3          	beqz	a5,2dd8 <_vfprintf_r+0x13e0>
    241c:	01412783          	lw	a5,20(sp)
    2420:	00778b13          	add	s6,a5,7
    2424:	ff8b7b13          	and	s6,s6,-8
    2428:	000b2d03          	lw	s10,0(s6)
    242c:	004b2c83          	lw	s9,4(s6)
    2430:	008b0793          	add	a5,s6,8
    2434:	00f12a23          	sw	a5,20(sp)
    2438:	00100793          	li	a5,1
    243c:	00000713          	li	a4,0
    2440:	06e10ba3          	sb	a4,119(sp)
    2444:	34034c63          	bltz	t1,279c <_vfprintf_r+0xda4>
    2448:	019d6733          	or	a4,s10,s9
    244c:	f7f67e93          	and	t4,a2,-129
    2450:	34071463          	bnez	a4,2798 <_vfprintf_r+0xda0>
    2454:	3a031a63          	bnez	t1,2808 <_vfprintf_r+0xe10>
    2458:	5c079ee3          	bnez	a5,3234 <_vfprintf_r+0x183c>
    245c:	00167d13          	and	s10,a2,1
    2460:	15010c13          	add	s8,sp,336
    2464:	2c0d10e3          	bnez	s10,2f24 <_vfprintf_r+0x152c>
    2468:	07714603          	lbu	a2,119(sp)
    246c:	00030c93          	mv	s9,t1
    2470:	01a35463          	bge	t1,s10,2478 <_vfprintf_r+0xa80>
    2474:	000d0c93          	mv	s9,s10
    2478:	00012823          	sw	zero,16(sp)
    247c:	02012223          	sw	zero,36(sp)
    2480:	02012023          	sw	zero,32(sp)
    2484:	00000a13          	li	s4,0
    2488:	fa060863          	beqz	a2,1c38 <_vfprintf_r+0x240>
    248c:	bcdff06f          	j	2058 <_vfprintf_r+0x660>
    2490:	00094e03          	lbu	t3,0(s2)
    2494:	080a6a13          	or	s4,s4,128
    2498:	f10ff06f          	j	1ba8 <_vfprintf_r+0x1b0>
    249c:	00094e03          	lbu	t3,0(s2)
    24a0:	02a00793          	li	a5,42
    24a4:	00190693          	add	a3,s2,1
    24a8:	00fe1463          	bne	t3,a5,24b0 <_vfprintf_r+0xab8>
    24ac:	1100206f          	j	45bc <_vfprintf_r+0x2bc4>
    24b0:	fd0e0713          	add	a4,t3,-48
    24b4:	00900793          	li	a5,9
    24b8:	00000b13          	li	s6,0
    24bc:	00900613          	li	a2,9
    24c0:	02e7e463          	bltu	a5,a4,24e8 <_vfprintf_r+0xaf0>
    24c4:	0006ce03          	lbu	t3,0(a3)
    24c8:	002b1793          	sll	a5,s6,0x2
    24cc:	016787b3          	add	a5,a5,s6
    24d0:	00179793          	sll	a5,a5,0x1
    24d4:	00e78b33          	add	s6,a5,a4
    24d8:	fd0e0713          	add	a4,t3,-48
    24dc:	00168693          	add	a3,a3,1
    24e0:	fee672e3          	bgeu	a2,a4,24c4 <_vfprintf_r+0xacc>
    24e4:	320b4ce3          	bltz	s6,301c <_vfprintf_r+0x1624>
    24e8:	00068913          	mv	s2,a3
    24ec:	ec0ff06f          	j	1bac <_vfprintf_r+0x1b4>
    24f0:	00094e03          	lbu	t3,0(s2)
    24f4:	001a6a13          	or	s4,s4,1
    24f8:	eb0ff06f          	j	1ba8 <_vfprintf_r+0x1b0>
    24fc:	07714783          	lbu	a5,119(sp)
    2500:	00094e03          	lbu	t3,0(s2)
    2504:	ea079263          	bnez	a5,1ba8 <_vfprintf_r+0x1b0>
    2508:	02000793          	li	a5,32
    250c:	06f10ba3          	sb	a5,119(sp)
    2510:	e98ff06f          	j	1ba8 <_vfprintf_r+0x1b0>
    2514:	00094e03          	lbu	t3,0(s2)
    2518:	06c00793          	li	a5,108
    251c:	3afe00e3          	beq	t3,a5,30bc <_vfprintf_r+0x16c4>
    2520:	010a6a13          	or	s4,s4,16
    2524:	e84ff06f          	j	1ba8 <_vfprintf_r+0x1b0>
    2528:	00094e03          	lbu	t3,0(s2)
    252c:	008a6a13          	or	s4,s4,8
    2530:	e78ff06f          	j	1ba8 <_vfprintf_r+0x1b0>
    2534:	000b0313          	mv	t1,s6
    2538:	010a6e93          	or	t4,s4,16
    253c:	020ef793          	and	a5,t4,32
    2540:	0c0786e3          	beqz	a5,2e0c <_vfprintf_r+0x1414>
    2544:	01412783          	lw	a5,20(sp)
    2548:	00778b13          	add	s6,a5,7
    254c:	ff8b7b13          	and	s6,s6,-8
    2550:	004b2783          	lw	a5,4(s6)
    2554:	000b2d03          	lw	s10,0(s6)
    2558:	008b0713          	add	a4,s6,8
    255c:	00e12a23          	sw	a4,20(sp)
    2560:	00078c93          	mv	s9,a5
    2564:	0c07cee3          	bltz	a5,2e40 <_vfprintf_r+0x1448>
    2568:	000e8613          	mv	a2,t4
    256c:	02034263          	bltz	t1,2590 <_vfprintf_r+0xb98>
    2570:	019d67b3          	or	a5,s10,s9
    2574:	f7fef613          	and	a2,t4,-129
    2578:	00079c63          	bnez	a5,2590 <_vfprintf_r+0xb98>
    257c:	02031063          	bnez	t1,259c <_vfprintf_r+0xba4>
    2580:	00000d13          	li	s10,0
    2584:	00060e93          	mv	t4,a2
    2588:	15010c13          	add	s8,sp,336
    258c:	eddff06f          	j	2468 <_vfprintf_r+0xa70>
    2590:	520c90e3          	bnez	s9,32b0 <_vfprintf_r+0x18b8>
    2594:	00900793          	li	a5,9
    2598:	51a7ece3          	bltu	a5,s10,32b0 <_vfprintf_r+0x18b8>
    259c:	030d0d13          	add	s10,s10,48
    25a0:	15a107a3          	sb	s10,335(sp)
    25a4:	00060e93          	mv	t4,a2
    25a8:	00100d13          	li	s10,1
    25ac:	14f10c13          	add	s8,sp,335
    25b0:	eb9ff06f          	j	2468 <_vfprintf_r+0xa70>
    25b4:	000b0313          	mv	t1,s6
    25b8:	010a6e93          	or	t4,s4,16
    25bc:	020ef793          	and	a5,t4,32
    25c0:	7e078463          	beqz	a5,2da8 <_vfprintf_r+0x13b0>
    25c4:	01412783          	lw	a5,20(sp)
    25c8:	00778b13          	add	s6,a5,7
    25cc:	ff8b7b13          	and	s6,s6,-8
    25d0:	000b2d03          	lw	s10,0(s6)
    25d4:	004b2c83          	lw	s9,4(s6)
    25d8:	008b0793          	add	a5,s6,8
    25dc:	00f12a23          	sw	a5,20(sp)
    25e0:	bffef613          	and	a2,t4,-1025
    25e4:	00000793          	li	a5,0
    25e8:	e55ff06f          	j	243c <_vfprintf_r+0xa44>
    25ec:	00094e03          	lbu	t3,0(s2)
    25f0:	06800793          	li	a5,104
    25f4:	2cfe0ce3          	beq	t3,a5,30cc <_vfprintf_r+0x16d4>
    25f8:	040a6a13          	or	s4,s4,64
    25fc:	dacff06f          	j	1ba8 <_vfprintf_r+0x1b0>
    2600:	01412703          	lw	a4,20(sp)
    2604:	000087b7          	lui	a5,0x8
    2608:	83078793          	add	a5,a5,-2000 # 7830 <quorem+0x114>
    260c:	06f11c23          	sh	a5,120(sp)
    2610:	00470793          	add	a5,a4,4
    2614:	00f12a23          	sw	a5,20(sp)
    2618:	0000c797          	auipc	a5,0xc
    261c:	46878793          	add	a5,a5,1128 # ea80 <__fini_array_end+0x124>
    2620:	02f12c23          	sw	a5,56(sp)
    2624:	00072d03          	lw	s10,0(a4)
    2628:	000b0313          	mv	t1,s6
    262c:	00000c93          	li	s9,0
    2630:	002a6613          	or	a2,s4,2
    2634:	00200793          	li	a5,2
    2638:	07800e13          	li	t3,120
    263c:	e01ff06f          	j	243c <_vfprintf_r+0xa44>
    2640:	020a7793          	and	a5,s4,32
    2644:	180784e3          	beqz	a5,2fcc <_vfprintf_r+0x15d4>
    2648:	01412783          	lw	a5,20(sp)
    264c:	00c12683          	lw	a3,12(sp)
    2650:	0007a783          	lw	a5,0(a5)
    2654:	41f6d713          	sra	a4,a3,0x1f
    2658:	00d7a023          	sw	a3,0(a5)
    265c:	00e7a223          	sw	a4,4(a5)
    2660:	01412783          	lw	a5,20(sp)
    2664:	00090c13          	mv	s8,s2
    2668:	00478793          	add	a5,a5,4
    266c:	00f12a23          	sw	a5,20(sp)
    2670:	cccff06f          	j	1b3c <_vfprintf_r+0x144>
    2674:	06500713          	li	a4,101
    2678:	b3c754e3          	bge	a4,t3,21a0 <_vfprintf_r+0x7a8>
    267c:	02812683          	lw	a3,40(sp)
    2680:	02c12703          	lw	a4,44(sp)
    2684:	00000613          	li	a2,0
    2688:	00068513          	mv	a0,a3
    268c:	00070593          	mv	a1,a4
    2690:	00000693          	li	a3,0
    2694:	05d12223          	sw	t4,68(sp)
    2698:	7700a0ef          	jal	ce08 <__eqdf2>
    269c:	04412e83          	lw	t4,68(sp)
    26a0:	4e051463          	bnez	a0,2b88 <_vfprintf_r+0x1190>
    26a4:	0a412783          	lw	a5,164(sp)
    26a8:	0000c717          	auipc	a4,0xc
    26ac:	40870713          	add	a4,a4,1032 # eab0 <__fini_array_end+0x154>
    26b0:	00e42023          	sw	a4,0(s0)
    26b4:	00148493          	add	s1,s1,1
    26b8:	00100713          	li	a4,1
    26bc:	00178793          	add	a5,a5,1
    26c0:	00e42223          	sw	a4,4(s0)
    26c4:	0a912423          	sw	s1,168(sp)
    26c8:	0af12223          	sw	a5,164(sp)
    26cc:	00700713          	li	a4,7
    26d0:	00840413          	add	s0,s0,8
    26d4:	62f746e3          	blt	a4,a5,3500 <_vfprintf_r+0x1b08>
    26d8:	07c12783          	lw	a5,124(sp)
    26dc:	01812703          	lw	a4,24(sp)
    26e0:	78e7de63          	bge	a5,a4,2e7c <_vfprintf_r+0x1484>
    26e4:	03412783          	lw	a5,52(sp)
    26e8:	03012703          	lw	a4,48(sp)
    26ec:	00840413          	add	s0,s0,8
    26f0:	fef42c23          	sw	a5,-8(s0)
    26f4:	0a412783          	lw	a5,164(sp)
    26f8:	00e484b3          	add	s1,s1,a4
    26fc:	fee42e23          	sw	a4,-4(s0)
    2700:	00178793          	add	a5,a5,1
    2704:	0a912423          	sw	s1,168(sp)
    2708:	0af12223          	sw	a5,164(sp)
    270c:	00700713          	li	a4,7
    2710:	1cf746e3          	blt	a4,a5,30dc <_vfprintf_r+0x16e4>
    2714:	01812783          	lw	a5,24(sp)
    2718:	fff78d13          	add	s10,a5,-1
    271c:	dfa05263          	blez	s10,1d00 <_vfprintf_r+0x308>
    2720:	01000713          	li	a4,16
    2724:	0a412783          	lw	a5,164(sp)
    2728:	0000d297          	auipc	t0,0xd
    272c:	84028293          	add	t0,t0,-1984 # ef68 <zeroes.0>
    2730:	77a752e3          	bge	a4,s10,3694 <_vfprintf_r+0x1c9c>
    2734:	00048713          	mv	a4,s1
    2738:	01000c13          	li	s8,16
    273c:	00700b13          	li	s6,7
    2740:	000e8493          	mv	s1,t4
    2744:	00028a13          	mv	s4,t0
    2748:	00c0006f          	j	2754 <_vfprintf_r+0xd5c>
    274c:	ff0d0d13          	add	s10,s10,-16
    2750:	73ac5ce3          	bge	s8,s10,3688 <_vfprintf_r+0x1c90>
    2754:	01070713          	add	a4,a4,16
    2758:	00178793          	add	a5,a5,1
    275c:	01442023          	sw	s4,0(s0)
    2760:	01842223          	sw	s8,4(s0)
    2764:	0ae12423          	sw	a4,168(sp)
    2768:	0af12223          	sw	a5,164(sp)
    276c:	00840413          	add	s0,s0,8
    2770:	fcfb5ee3          	bge	s6,a5,274c <_vfprintf_r+0xd54>
    2774:	00812583          	lw	a1,8(sp)
    2778:	0a010613          	add	a2,sp,160
    277c:	00098513          	mv	a0,s3
    2780:	134020ef          	jal	48b4 <__sprint_r>
    2784:	f4051263          	bnez	a0,1ec8 <_vfprintf_r+0x4d0>
    2788:	0a812703          	lw	a4,168(sp)
    278c:	0a412783          	lw	a5,164(sp)
    2790:	0ac10413          	add	s0,sp,172
    2794:	fb9ff06f          	j	274c <_vfprintf_r+0xd54>
    2798:	000e8613          	mv	a2,t4
    279c:	00100713          	li	a4,1
    27a0:	dee788e3          	beq	a5,a4,2590 <_vfprintf_r+0xb98>
    27a4:	00200713          	li	a4,2
    27a8:	06e78c63          	beq	a5,a4,2820 <_vfprintf_r+0xe28>
    27ac:	15010c13          	add	s8,sp,336
    27b0:	01dc9793          	sll	a5,s9,0x1d
    27b4:	007d7713          	and	a4,s10,7
    27b8:	003d5d13          	srl	s10,s10,0x3
    27bc:	03070713          	add	a4,a4,48
    27c0:	01a7ed33          	or	s10,a5,s10
    27c4:	003cdc93          	srl	s9,s9,0x3
    27c8:	feec0fa3          	sb	a4,-1(s8)
    27cc:	019d67b3          	or	a5,s10,s9
    27d0:	000c0593          	mv	a1,s8
    27d4:	fffc0c13          	add	s8,s8,-1
    27d8:	fc079ce3          	bnez	a5,27b0 <_vfprintf_r+0xdb8>
    27dc:	00167693          	and	a3,a2,1
    27e0:	06068a63          	beqz	a3,2854 <_vfprintf_r+0xe5c>
    27e4:	03000693          	li	a3,48
    27e8:	06d70663          	beq	a4,a3,2854 <_vfprintf_r+0xe5c>
    27ec:	ffe58593          	add	a1,a1,-2 # 1ffe <_vfprintf_r+0x606>
    27f0:	15010793          	add	a5,sp,336
    27f4:	fedc0fa3          	sb	a3,-1(s8)
    27f8:	40b78d33          	sub	s10,a5,a1
    27fc:	00060e93          	mv	t4,a2
    2800:	00058c13          	mv	s8,a1
    2804:	c65ff06f          	j	2468 <_vfprintf_r+0xa70>
    2808:	00100713          	li	a4,1
    280c:	00e79463          	bne	a5,a4,2814 <_vfprintf_r+0xe1c>
    2810:	2b10106f          	j	42c0 <_vfprintf_r+0x28c8>
    2814:	00200713          	li	a4,2
    2818:	000e8613          	mv	a2,t4
    281c:	f8e798e3          	bne	a5,a4,27ac <_vfprintf_r+0xdb4>
    2820:	03812683          	lw	a3,56(sp)
    2824:	15010c13          	add	s8,sp,336
    2828:	00fd7793          	and	a5,s10,15
    282c:	00f687b3          	add	a5,a3,a5
    2830:	0007c703          	lbu	a4,0(a5)
    2834:	004d5d13          	srl	s10,s10,0x4
    2838:	01cc9793          	sll	a5,s9,0x1c
    283c:	01a7ed33          	or	s10,a5,s10
    2840:	004cdc93          	srl	s9,s9,0x4
    2844:	feec0fa3          	sb	a4,-1(s8)
    2848:	019d67b3          	or	a5,s10,s9
    284c:	fffc0c13          	add	s8,s8,-1
    2850:	fc079ce3          	bnez	a5,2828 <_vfprintf_r+0xe30>
    2854:	15010793          	add	a5,sp,336
    2858:	41878d33          	sub	s10,a5,s8
    285c:	00060e93          	mv	t4,a2
    2860:	c09ff06f          	j	2468 <_vfprintf_r+0xa70>
    2864:	419b8b33          	sub	s6,s7,s9
    2868:	c7605063          	blez	s6,1cc8 <_vfprintf_r+0x2d0>
    286c:	01000593          	li	a1,16
    2870:	0a412603          	lw	a2,164(sp)
    2874:	0000c297          	auipc	t0,0xc
    2878:	6f428293          	add	t0,t0,1780 # ef68 <zeroes.0>
    287c:	0b65d463          	bge	a1,s6,2924 <_vfprintf_r+0xf2c>
    2880:	00040793          	mv	a5,s0
    2884:	00048713          	mv	a4,s1
    2888:	000b0413          	mv	s0,s6
    288c:	01000893          	li	a7,16
    2890:	000a0b13          	mv	s6,s4
    2894:	00700f93          	li	t6,7
    2898:	05d12223          	sw	t4,68(sp)
    289c:	05c12823          	sw	t3,80(sp)
    28a0:	00030a13          	mv	s4,t1
    28a4:	00028493          	mv	s1,t0
    28a8:	00c0006f          	j	28b4 <_vfprintf_r+0xebc>
    28ac:	ff040413          	add	s0,s0,-16
    28b0:	0488da63          	bge	a7,s0,2904 <_vfprintf_r+0xf0c>
    28b4:	01070713          	add	a4,a4,16
    28b8:	00160613          	add	a2,a2,1
    28bc:	0097a023          	sw	s1,0(a5)
    28c0:	0117a223          	sw	a7,4(a5)
    28c4:	0ae12423          	sw	a4,168(sp)
    28c8:	0ac12223          	sw	a2,164(sp)
    28cc:	00878793          	add	a5,a5,8
    28d0:	fccfdee3          	bge	t6,a2,28ac <_vfprintf_r+0xeb4>
    28d4:	00812583          	lw	a1,8(sp)
    28d8:	0a010613          	add	a2,sp,160
    28dc:	00098513          	mv	a0,s3
    28e0:	7d5010ef          	jal	48b4 <__sprint_r>
    28e4:	de051263          	bnez	a0,1ec8 <_vfprintf_r+0x4d0>
    28e8:	01000893          	li	a7,16
    28ec:	ff040413          	add	s0,s0,-16
    28f0:	0a812703          	lw	a4,168(sp)
    28f4:	0a412603          	lw	a2,164(sp)
    28f8:	0ac10793          	add	a5,sp,172
    28fc:	00700f93          	li	t6,7
    2900:	fa88cae3          	blt	a7,s0,28b4 <_vfprintf_r+0xebc>
    2904:	04412e83          	lw	t4,68(sp)
    2908:	05012e03          	lw	t3,80(sp)
    290c:	000a0313          	mv	t1,s4
    2910:	00048293          	mv	t0,s1
    2914:	000b0a13          	mv	s4,s6
    2918:	00070493          	mv	s1,a4
    291c:	00040b13          	mv	s6,s0
    2920:	00078413          	mv	s0,a5
    2924:	016484b3          	add	s1,s1,s6
    2928:	00160613          	add	a2,a2,1
    292c:	00542023          	sw	t0,0(s0)
    2930:	01642223          	sw	s6,4(s0)
    2934:	0a912423          	sw	s1,168(sp)
    2938:	0ac12223          	sw	a2,164(sp)
    293c:	00700713          	li	a4,7
    2940:	00840413          	add	s0,s0,8
    2944:	b8c75263          	bge	a4,a2,1cc8 <_vfprintf_r+0x2d0>
    2948:	00812583          	lw	a1,8(sp)
    294c:	0a010613          	add	a2,sp,160
    2950:	00098513          	mv	a0,s3
    2954:	04612a23          	sw	t1,84(sp)
    2958:	05c12823          	sw	t3,80(sp)
    295c:	05d12223          	sw	t4,68(sp)
    2960:	755010ef          	jal	48b4 <__sprint_r>
    2964:	d6051263          	bnez	a0,1ec8 <_vfprintf_r+0x4d0>
    2968:	0a812483          	lw	s1,168(sp)
    296c:	05412303          	lw	t1,84(sp)
    2970:	05012e03          	lw	t3,80(sp)
    2974:	04412e83          	lw	t4,68(sp)
    2978:	0ac10413          	add	s0,sp,172
    297c:	b4cff06f          	j	1cc8 <_vfprintf_r+0x2d0>
    2980:	01000713          	li	a4,16
    2984:	0a412603          	lw	a2,164(sp)
    2988:	0000c297          	auipc	t0,0xc
    298c:	5e028293          	add	t0,t0,1504 # ef68 <zeroes.0>
    2990:	0b675063          	bge	a4,s6,2a30 <_vfprintf_r+0x1038>
    2994:	00040793          	mv	a5,s0
    2998:	00048693          	mv	a3,s1
    299c:	000b0413          	mv	s0,s6
    29a0:	01000713          	li	a4,16
    29a4:	00700893          	li	a7,7
    29a8:	05d12223          	sw	t4,68(sp)
    29ac:	000e0493          	mv	s1,t3
    29b0:	00028b13          	mv	s6,t0
    29b4:	00c0006f          	j	29c0 <_vfprintf_r+0xfc8>
    29b8:	ff040413          	add	s0,s0,-16
    29bc:	04875e63          	bge	a4,s0,2a18 <_vfprintf_r+0x1020>
    29c0:	01068693          	add	a3,a3,16
    29c4:	00160613          	add	a2,a2,1
    29c8:	0000c597          	auipc	a1,0xc
    29cc:	5a058593          	add	a1,a1,1440 # ef68 <zeroes.0>
    29d0:	00b7a023          	sw	a1,0(a5)
    29d4:	00e7a223          	sw	a4,4(a5)
    29d8:	0ad12423          	sw	a3,168(sp)
    29dc:	0ac12223          	sw	a2,164(sp)
    29e0:	00878793          	add	a5,a5,8
    29e4:	fcc8dae3          	bge	a7,a2,29b8 <_vfprintf_r+0xfc0>
    29e8:	00812583          	lw	a1,8(sp)
    29ec:	0a010613          	add	a2,sp,160
    29f0:	00098513          	mv	a0,s3
    29f4:	6c1010ef          	jal	48b4 <__sprint_r>
    29f8:	cc051863          	bnez	a0,1ec8 <_vfprintf_r+0x4d0>
    29fc:	01000713          	li	a4,16
    2a00:	ff040413          	add	s0,s0,-16
    2a04:	0a812683          	lw	a3,168(sp)
    2a08:	0a412603          	lw	a2,164(sp)
    2a0c:	0ac10793          	add	a5,sp,172
    2a10:	00700893          	li	a7,7
    2a14:	fa8746e3          	blt	a4,s0,29c0 <_vfprintf_r+0xfc8>
    2a18:	04412e83          	lw	t4,68(sp)
    2a1c:	00048e13          	mv	t3,s1
    2a20:	000b0293          	mv	t0,s6
    2a24:	00068493          	mv	s1,a3
    2a28:	00040b13          	mv	s6,s0
    2a2c:	00078413          	mv	s0,a5
    2a30:	016484b3          	add	s1,s1,s6
    2a34:	00160613          	add	a2,a2,1
    2a38:	00542023          	sw	t0,0(s0)
    2a3c:	01642223          	sw	s6,4(s0)
    2a40:	0a912423          	sw	s1,168(sp)
    2a44:	0ac12223          	sw	a2,164(sp)
    2a48:	00700713          	li	a4,7
    2a4c:	00840413          	add	s0,s0,8
    2a50:	a8c75063          	bge	a4,a2,1cd0 <_vfprintf_r+0x2d8>
    2a54:	00812583          	lw	a1,8(sp)
    2a58:	0a010613          	add	a2,sp,160
    2a5c:	00098513          	mv	a0,s3
    2a60:	05c12823          	sw	t3,80(sp)
    2a64:	05d12223          	sw	t4,68(sp)
    2a68:	64d010ef          	jal	48b4 <__sprint_r>
    2a6c:	c4051e63          	bnez	a0,1ec8 <_vfprintf_r+0x4d0>
    2a70:	0a812483          	lw	s1,168(sp)
    2a74:	05012e03          	lw	t3,80(sp)
    2a78:	04412e83          	lw	t4,68(sp)
    2a7c:	0ac10413          	add	s0,sp,172
    2a80:	a50ff06f          	j	1cd0 <_vfprintf_r+0x2d8>
    2a84:	00812583          	lw	a1,8(sp)
    2a88:	0a010613          	add	a2,sp,160
    2a8c:	00098513          	mv	a0,s3
    2a90:	04612c23          	sw	t1,88(sp)
    2a94:	05c12a23          	sw	t3,84(sp)
    2a98:	05d12823          	sw	t4,80(sp)
    2a9c:	05f12223          	sw	t6,68(sp)
    2aa0:	615010ef          	jal	48b4 <__sprint_r>
    2aa4:	c2051263          	bnez	a0,1ec8 <_vfprintf_r+0x4d0>
    2aa8:	0a812483          	lw	s1,168(sp)
    2aac:	05812303          	lw	t1,88(sp)
    2ab0:	05412e03          	lw	t3,84(sp)
    2ab4:	05012e83          	lw	t4,80(sp)
    2ab8:	04412f83          	lw	t6,68(sp)
    2abc:	0ac10413          	add	s0,sp,172
    2ac0:	a00ff06f          	j	1cc0 <_vfprintf_r+0x2c8>
    2ac4:	01000713          	li	a4,16
    2ac8:	0a412783          	lw	a5,164(sp)
    2acc:	0000cb17          	auipc	s6,0xc
    2ad0:	4acb0b13          	add	s6,s6,1196 # ef78 <blanks.1>
    2ad4:	07a75c63          	bge	a4,s10,2b4c <_vfprintf_r+0x1154>
    2ad8:	000b0713          	mv	a4,s6
    2adc:	01000c13          	li	s8,16
    2ae0:	00090b13          	mv	s6,s2
    2ae4:	00700a13          	li	s4,7
    2ae8:	00070913          	mv	s2,a4
    2aec:	00c0006f          	j	2af8 <_vfprintf_r+0x1100>
    2af0:	ff0d0d13          	add	s10,s10,-16
    2af4:	05ac5663          	bge	s8,s10,2b40 <_vfprintf_r+0x1148>
    2af8:	01048493          	add	s1,s1,16
    2afc:	00178793          	add	a5,a5,1
    2b00:	01242023          	sw	s2,0(s0)
    2b04:	01842223          	sw	s8,4(s0)
    2b08:	0a912423          	sw	s1,168(sp)
    2b0c:	0af12223          	sw	a5,164(sp)
    2b10:	00840413          	add	s0,s0,8
    2b14:	fcfa5ee3          	bge	s4,a5,2af0 <_vfprintf_r+0x10f8>
    2b18:	00812583          	lw	a1,8(sp)
    2b1c:	0a010613          	add	a2,sp,160
    2b20:	00098513          	mv	a0,s3
    2b24:	591010ef          	jal	48b4 <__sprint_r>
    2b28:	ba051063          	bnez	a0,1ec8 <_vfprintf_r+0x4d0>
    2b2c:	ff0d0d13          	add	s10,s10,-16
    2b30:	0a812483          	lw	s1,168(sp)
    2b34:	0a412783          	lw	a5,164(sp)
    2b38:	0ac10413          	add	s0,sp,172
    2b3c:	fbac4ee3          	blt	s8,s10,2af8 <_vfprintf_r+0x1100>
    2b40:	00090713          	mv	a4,s2
    2b44:	000b0913          	mv	s2,s6
    2b48:	00070b13          	mv	s6,a4
    2b4c:	01a484b3          	add	s1,s1,s10
    2b50:	00178793          	add	a5,a5,1
    2b54:	01642023          	sw	s6,0(s0)
    2b58:	01a42223          	sw	s10,4(s0)
    2b5c:	0a912423          	sw	s1,168(sp)
    2b60:	0af12223          	sw	a5,164(sp)
    2b64:	00700713          	li	a4,7
    2b68:	9af75463          	bge	a4,a5,1d10 <_vfprintf_r+0x318>
    2b6c:	00812583          	lw	a1,8(sp)
    2b70:	0a010613          	add	a2,sp,160
    2b74:	00098513          	mv	a0,s3
    2b78:	53d010ef          	jal	48b4 <__sprint_r>
    2b7c:	b4051663          	bnez	a0,1ec8 <_vfprintf_r+0x4d0>
    2b80:	0a812483          	lw	s1,168(sp)
    2b84:	98cff06f          	j	1d10 <_vfprintf_r+0x318>
    2b88:	07c12683          	lw	a3,124(sp)
    2b8c:	30d05c63          	blez	a3,2ea4 <_vfprintf_r+0x14ac>
    2b90:	01812783          	lw	a5,24(sp)
    2b94:	000a0b13          	mv	s6,s4
    2b98:	0147d463          	bge	a5,s4,2ba0 <_vfprintf_r+0x11a8>
    2b9c:	00078b13          	mv	s6,a5
    2ba0:	03605863          	blez	s6,2bd0 <_vfprintf_r+0x11d8>
    2ba4:	0a412683          	lw	a3,164(sp)
    2ba8:	016484b3          	add	s1,s1,s6
    2bac:	01842023          	sw	s8,0(s0)
    2bb0:	00168693          	add	a3,a3,1
    2bb4:	01642223          	sw	s6,4(s0)
    2bb8:	0a912423          	sw	s1,168(sp)
    2bbc:	0ad12223          	sw	a3,164(sp)
    2bc0:	00700613          	li	a2,7
    2bc4:	00840413          	add	s0,s0,8
    2bc8:	00d65463          	bge	a2,a3,2bd0 <_vfprintf_r+0x11d8>
    2bcc:	5c40106f          	j	4190 <_vfprintf_r+0x2798>
    2bd0:	fffb4693          	not	a3,s6
    2bd4:	41f6d693          	sra	a3,a3,0x1f
    2bd8:	00db7733          	and	a4,s6,a3
    2bdc:	40ea0b33          	sub	s6,s4,a4
    2be0:	35604ae3          	bgtz	s6,3734 <_vfprintf_r+0x1d3c>
    2be4:	400ef713          	and	a4,t4,1024
    2be8:	014c0333          	add	t1,s8,s4
    2bec:	00070463          	beqz	a4,2bf4 <_vfprintf_r+0x11fc>
    2bf0:	2980106f          	j	3e88 <_vfprintf_r+0x2490>
    2bf4:	07c12d03          	lw	s10,124(sp)
    2bf8:	01812783          	lw	a5,24(sp)
    2bfc:	5afd4063          	blt	s10,a5,319c <_vfprintf_r+0x17a4>
    2c00:	001ef713          	and	a4,t4,1
    2c04:	58071c63          	bnez	a4,319c <_vfprintf_r+0x17a4>
    2c08:	01812703          	lw	a4,24(sp)
    2c0c:	00ec07b3          	add	a5,s8,a4
    2c10:	41a70d33          	sub	s10,a4,s10
    2c14:	40678b33          	sub	s6,a5,t1
    2c18:	016d5463          	bge	s10,s6,2c20 <_vfprintf_r+0x1228>
    2c1c:	000d0b13          	mv	s6,s10
    2c20:	03605863          	blez	s6,2c50 <_vfprintf_r+0x1258>
    2c24:	0a412703          	lw	a4,164(sp)
    2c28:	016484b3          	add	s1,s1,s6
    2c2c:	00642023          	sw	t1,0(s0)
    2c30:	00170713          	add	a4,a4,1
    2c34:	01642223          	sw	s6,4(s0)
    2c38:	0a912423          	sw	s1,168(sp)
    2c3c:	0ae12223          	sw	a4,164(sp)
    2c40:	00700693          	li	a3,7
    2c44:	00840413          	add	s0,s0,8
    2c48:	00e6d463          	bge	a3,a4,2c50 <_vfprintf_r+0x1258>
    2c4c:	5880106f          	j	41d4 <_vfprintf_r+0x27dc>
    2c50:	fffb4713          	not	a4,s6
    2c54:	41f75713          	sra	a4,a4,0x1f
    2c58:	00eb77b3          	and	a5,s6,a4
    2c5c:	40fd0d33          	sub	s10,s10,a5
    2c60:	8ba05063          	blez	s10,1d00 <_vfprintf_r+0x308>
    2c64:	01000713          	li	a4,16
    2c68:	0a412783          	lw	a5,164(sp)
    2c6c:	0000c297          	auipc	t0,0xc
    2c70:	2fc28293          	add	t0,t0,764 # ef68 <zeroes.0>
    2c74:	23a750e3          	bge	a4,s10,3694 <_vfprintf_r+0x1c9c>
    2c78:	00048713          	mv	a4,s1
    2c7c:	01000c13          	li	s8,16
    2c80:	00700b13          	li	s6,7
    2c84:	000e8493          	mv	s1,t4
    2c88:	00028a13          	mv	s4,t0
    2c8c:	00c0006f          	j	2c98 <_vfprintf_r+0x12a0>
    2c90:	ff0d0d13          	add	s10,s10,-16
    2c94:	1fac5ae3          	bge	s8,s10,3688 <_vfprintf_r+0x1c90>
    2c98:	01070713          	add	a4,a4,16
    2c9c:	00178793          	add	a5,a5,1
    2ca0:	01442023          	sw	s4,0(s0)
    2ca4:	01842223          	sw	s8,4(s0)
    2ca8:	0ae12423          	sw	a4,168(sp)
    2cac:	0af12223          	sw	a5,164(sp)
    2cb0:	00840413          	add	s0,s0,8
    2cb4:	fcfb5ee3          	bge	s6,a5,2c90 <_vfprintf_r+0x1298>
    2cb8:	00812583          	lw	a1,8(sp)
    2cbc:	0a010613          	add	a2,sp,160
    2cc0:	00098513          	mv	a0,s3
    2cc4:	3f1010ef          	jal	48b4 <__sprint_r>
    2cc8:	a0051063          	bnez	a0,1ec8 <_vfprintf_r+0x4d0>
    2ccc:	0a812703          	lw	a4,168(sp)
    2cd0:	0a412783          	lw	a5,164(sp)
    2cd4:	0ac10413          	add	s0,sp,172
    2cd8:	fb9ff06f          	j	2c90 <_vfprintf_r+0x1298>
    2cdc:	001ef613          	and	a2,t4,1
    2ce0:	ce061063          	bnez	a2,21c0 <_vfprintf_r+0x7c8>
    2ce4:	00d42223          	sw	a3,4(s0)
    2ce8:	0a912423          	sw	s1,168(sp)
    2cec:	0ba12223          	sw	s10,164(sp)
    2cf0:	00700793          	li	a5,7
    2cf4:	d7a7d863          	bge	a5,s10,2264 <_vfprintf_r+0x86c>
    2cf8:	00812583          	lw	a1,8(sp)
    2cfc:	0a010613          	add	a2,sp,160
    2d00:	00098513          	mv	a0,s3
    2d04:	03d12023          	sw	t4,32(sp)
    2d08:	3ad010ef          	jal	48b4 <__sprint_r>
    2d0c:	9a051e63          	bnez	a0,1ec8 <_vfprintf_r+0x4d0>
    2d10:	0a812483          	lw	s1,168(sp)
    2d14:	0a412d03          	lw	s10,164(sp)
    2d18:	02012e83          	lw	t4,32(sp)
    2d1c:	0ac10b13          	add	s6,sp,172
    2d20:	d44ff06f          	j	2264 <_vfprintf_r+0x86c>
    2d24:	01812703          	lw	a4,24(sp)
    2d28:	00100793          	li	a5,1
    2d2c:	d2e7dc63          	bge	a5,a4,2264 <_vfprintf_r+0x86c>
    2d30:	01100793          	li	a5,17
    2d34:	0000c297          	auipc	t0,0xc
    2d38:	23428293          	add	t0,t0,564 # ef68 <zeroes.0>
    2d3c:	18e7d4e3          	bge	a5,a4,36c4 <_vfprintf_r+0x1ccc>
    2d40:	00040a13          	mv	s4,s0
    2d44:	01000793          	li	a5,16
    2d48:	00700c13          	li	s8,7
    2d4c:	03d12023          	sw	t4,32(sp)
    2d50:	00028413          	mv	s0,t0
    2d54:	00c0006f          	j	2d60 <_vfprintf_r+0x1368>
    2d58:	ff0a0a13          	add	s4,s4,-16
    2d5c:	1547dee3          	bge	a5,s4,36b8 <_vfprintf_r+0x1cc0>
    2d60:	01048493          	add	s1,s1,16
    2d64:	001d0d13          	add	s10,s10,1
    2d68:	008b2023          	sw	s0,0(s6)
    2d6c:	00fb2223          	sw	a5,4(s6)
    2d70:	0a912423          	sw	s1,168(sp)
    2d74:	0ba12223          	sw	s10,164(sp)
    2d78:	008b0b13          	add	s6,s6,8
    2d7c:	fdac5ee3          	bge	s8,s10,2d58 <_vfprintf_r+0x1360>
    2d80:	00812583          	lw	a1,8(sp)
    2d84:	0a010613          	add	a2,sp,160
    2d88:	00098513          	mv	a0,s3
    2d8c:	329010ef          	jal	48b4 <__sprint_r>
    2d90:	92051c63          	bnez	a0,1ec8 <_vfprintf_r+0x4d0>
    2d94:	0a812483          	lw	s1,168(sp)
    2d98:	0a412d03          	lw	s10,164(sp)
    2d9c:	0ac10b13          	add	s6,sp,172
    2da0:	01000793          	li	a5,16
    2da4:	fb5ff06f          	j	2d58 <_vfprintf_r+0x1360>
    2da8:	01412703          	lw	a4,20(sp)
    2dac:	010ef793          	and	a5,t4,16
    2db0:	00072d03          	lw	s10,0(a4)
    2db4:	00470713          	add	a4,a4,4
    2db8:	00e12a23          	sw	a4,20(sp)
    2dbc:	1a079663          	bnez	a5,2f68 <_vfprintf_r+0x1570>
    2dc0:	040ef793          	and	a5,t4,64
    2dc4:	18078e63          	beqz	a5,2f60 <_vfprintf_r+0x1568>
    2dc8:	010d1d13          	sll	s10,s10,0x10
    2dcc:	010d5d13          	srl	s10,s10,0x10
    2dd0:	00000c93          	li	s9,0
    2dd4:	80dff06f          	j	25e0 <_vfprintf_r+0xbe8>
    2dd8:	01412703          	lw	a4,20(sp)
    2ddc:	01067793          	and	a5,a2,16
    2de0:	00072d03          	lw	s10,0(a4)
    2de4:	00470713          	add	a4,a4,4
    2de8:	00e12a23          	sw	a4,20(sp)
    2dec:	14079a63          	bnez	a5,2f40 <_vfprintf_r+0x1548>
    2df0:	04067793          	and	a5,a2,64
    2df4:	14078063          	beqz	a5,2f34 <_vfprintf_r+0x153c>
    2df8:	010d1d13          	sll	s10,s10,0x10
    2dfc:	010d5d13          	srl	s10,s10,0x10
    2e00:	00000c93          	li	s9,0
    2e04:	00100793          	li	a5,1
    2e08:	e34ff06f          	j	243c <_vfprintf_r+0xa44>
    2e0c:	01412703          	lw	a4,20(sp)
    2e10:	010ef793          	and	a5,t4,16
    2e14:	00072d03          	lw	s10,0(a4)
    2e18:	00470713          	add	a4,a4,4
    2e1c:	00e12a23          	sw	a4,20(sp)
    2e20:	12079a63          	bnez	a5,2f54 <_vfprintf_r+0x155c>
    2e24:	040ef793          	and	a5,t4,64
    2e28:	12078263          	beqz	a5,2f4c <_vfprintf_r+0x1554>
    2e2c:	010d1d13          	sll	s10,s10,0x10
    2e30:	410d5d13          	sra	s10,s10,0x10
    2e34:	41fd5c93          	sra	s9,s10,0x1f
    2e38:	000c8793          	mv	a5,s9
    2e3c:	f207d663          	bgez	a5,2568 <_vfprintf_r+0xb70>
    2e40:	01a037b3          	snez	a5,s10
    2e44:	419000b3          	neg	ra,s9
    2e48:	40f08cb3          	sub	s9,ra,a5
    2e4c:	41a00d33          	neg	s10,s10
    2e50:	000e8613          	mv	a2,t4
    2e54:	02d00713          	li	a4,45
    2e58:	00100793          	li	a5,1
    2e5c:	de4ff06f          	j	2440 <_vfprintf_r+0xa48>
    2e60:	00812403          	lw	s0,8(sp)
    2e64:	00f12623          	sw	a5,12(sp)
    2e68:	05842503          	lw	a0,88(s0)
    2e6c:	6e8040ef          	jal	7554 <__retarget_lock_acquire_recursive>
    2e70:	00c41703          	lh	a4,12(s0)
    2e74:	00c12783          	lw	a5,12(sp)
    2e78:	c01fe06f          	j	1a78 <_vfprintf_r+0x80>
    2e7c:	001ef793          	and	a5,t4,1
    2e80:	00079463          	bnez	a5,2e88 <_vfprintf_r+0x1490>
    2e84:	e7dfe06f          	j	1d00 <_vfprintf_r+0x308>
    2e88:	85dff06f          	j	26e4 <_vfprintf_r+0xcec>
    2e8c:	000a0e93          	mv	t4,s4
    2e90:	000b0313          	mv	t1,s6
    2e94:	ea8ff06f          	j	253c <_vfprintf_r+0xb44>
    2e98:	00094e03          	lbu	t3,0(s2)
    2e9c:	00f12a23          	sw	a5,20(sp)
    2ea0:	d09fe06f          	j	1ba8 <_vfprintf_r+0x1b0>
    2ea4:	0a412703          	lw	a4,164(sp)
    2ea8:	0000c617          	auipc	a2,0xc
    2eac:	c0860613          	add	a2,a2,-1016 # eab0 <__fini_array_end+0x154>
    2eb0:	00c42023          	sw	a2,0(s0)
    2eb4:	00148493          	add	s1,s1,1
    2eb8:	00100613          	li	a2,1
    2ebc:	00170713          	add	a4,a4,1
    2ec0:	00c42223          	sw	a2,4(s0)
    2ec4:	0a912423          	sw	s1,168(sp)
    2ec8:	0ae12223          	sw	a4,164(sp)
    2ecc:	00700613          	li	a2,7
    2ed0:	00840413          	add	s0,s0,8
    2ed4:	2ee64ce3          	blt	a2,a4,39cc <_vfprintf_r+0x1fd4>
    2ed8:	7e069e63          	bnez	a3,36d4 <_vfprintf_r+0x1cdc>
    2edc:	01812783          	lw	a5,24(sp)
    2ee0:	001ef713          	and	a4,t4,1
    2ee4:	00f76733          	or	a4,a4,a5
    2ee8:	00071463          	bnez	a4,2ef0 <_vfprintf_r+0x14f8>
    2eec:	e15fe06f          	j	1d00 <_vfprintf_r+0x308>
    2ef0:	03412703          	lw	a4,52(sp)
    2ef4:	03012783          	lw	a5,48(sp)
    2ef8:	00700693          	li	a3,7
    2efc:	00e42023          	sw	a4,0(s0)
    2f00:	0a412703          	lw	a4,164(sp)
    2f04:	009784b3          	add	s1,a5,s1
    2f08:	00f42223          	sw	a5,4(s0)
    2f0c:	00170713          	add	a4,a4,1
    2f10:	0a912423          	sw	s1,168(sp)
    2f14:	0ae12223          	sw	a4,164(sp)
    2f18:	38e6c8e3          	blt	a3,a4,3aa8 <_vfprintf_r+0x20b0>
    2f1c:	00840413          	add	s0,s0,8
    2f20:	7e80006f          	j	3708 <_vfprintf_r+0x1d10>
    2f24:	03000793          	li	a5,48
    2f28:	14f107a3          	sb	a5,335(sp)
    2f2c:	14f10c13          	add	s8,sp,335
    2f30:	d38ff06f          	j	2468 <_vfprintf_r+0xa70>
    2f34:	20067793          	and	a5,a2,512
    2f38:	00078463          	beqz	a5,2f40 <_vfprintf_r+0x1548>
    2f3c:	0ffd7d13          	zext.b	s10,s10
    2f40:	00000c93          	li	s9,0
    2f44:	00100793          	li	a5,1
    2f48:	cf4ff06f          	j	243c <_vfprintf_r+0xa44>
    2f4c:	200ef793          	and	a5,t4,512
    2f50:	2c0796e3          	bnez	a5,3a1c <_vfprintf_r+0x2024>
    2f54:	41fd5c93          	sra	s9,s10,0x1f
    2f58:	000c8793          	mv	a5,s9
    2f5c:	e08ff06f          	j	2564 <_vfprintf_r+0xb6c>
    2f60:	200ef793          	and	a5,t4,512
    2f64:	2a0790e3          	bnez	a5,3a04 <_vfprintf_r+0x200c>
    2f68:	00000c93          	li	s9,0
    2f6c:	e74ff06f          	j	25e0 <_vfprintf_r+0xbe8>
    2f70:	01412783          	lw	a5,20(sp)
    2f74:	06010513          	add	a0,sp,96
    2f78:	03612223          	sw	s6,36(sp)
    2f7c:	0007a703          	lw	a4,0(a5)
    2f80:	03c12023          	sw	t3,32(sp)
    2f84:	00478b13          	add	s6,a5,4
    2f88:	00072683          	lw	a3,0(a4)
    2f8c:	01412823          	sw	s4,16(sp)
    2f90:	06d12023          	sw	a3,96(sp)
    2f94:	00472683          	lw	a3,4(a4)
    2f98:	06d12223          	sw	a3,100(sp)
    2f9c:	00872683          	lw	a3,8(a4)
    2fa0:	06d12423          	sw	a3,104(sp)
    2fa4:	00c72703          	lw	a4,12(a4)
    2fa8:	06e12623          	sw	a4,108(sp)
    2fac:	3dc0b0ef          	jal	e388 <__trunctfdf2>
    2fb0:	02012e03          	lw	t3,32(sp)
    2fb4:	02412303          	lw	t1,36(sp)
    2fb8:	02a12423          	sw	a0,40(sp)
    2fbc:	02b12623          	sw	a1,44(sp)
    2fc0:	01612a23          	sw	s6,20(sp)
    2fc4:	000a0e93          	mv	t4,s4
    2fc8:	fb1fe06f          	j	1f78 <_vfprintf_r+0x580>
    2fcc:	010a7793          	and	a5,s4,16
    2fd0:	6c079a63          	bnez	a5,36a4 <_vfprintf_r+0x1cac>
    2fd4:	040a7793          	and	a5,s4,64
    2fd8:	24079ce3          	bnez	a5,3a30 <_vfprintf_r+0x2038>
    2fdc:	200a7f13          	and	t5,s4,512
    2fe0:	6c0f0263          	beqz	t5,36a4 <_vfprintf_r+0x1cac>
    2fe4:	01412783          	lw	a5,20(sp)
    2fe8:	00c12703          	lw	a4,12(sp)
    2fec:	0007a783          	lw	a5,0(a5)
    2ff0:	00e78023          	sb	a4,0(a5)
    2ff4:	e6cff06f          	j	2660 <_vfprintf_r+0xc68>
    2ff8:	03c12783          	lw	a5,60(sp)
    2ffc:	00094e03          	lbu	t3,0(s2)
    3000:	00079463          	bnez	a5,3008 <_vfprintf_r+0x1610>
    3004:	ba5fe06f          	j	1ba8 <_vfprintf_r+0x1b0>
    3008:	0007c783          	lbu	a5,0(a5)
    300c:	00079463          	bnez	a5,3014 <_vfprintf_r+0x161c>
    3010:	b99fe06f          	j	1ba8 <_vfprintf_r+0x1b0>
    3014:	400a6a13          	or	s4,s4,1024
    3018:	b91fe06f          	j	1ba8 <_vfprintf_r+0x1b0>
    301c:	fff00b13          	li	s6,-1
    3020:	00068913          	mv	s2,a3
    3024:	b89fe06f          	j	1bac <_vfprintf_r+0x1b4>
    3028:	0000c797          	auipc	a5,0xc
    302c:	a6c78793          	add	a5,a5,-1428 # ea94 <__fini_array_end+0x138>
    3030:	000a0e93          	mv	t4,s4
    3034:	000b0313          	mv	t1,s6
    3038:	02f12c23          	sw	a5,56(sp)
    303c:	020ef793          	and	a5,t4,32
    3040:	1c078263          	beqz	a5,3204 <_vfprintf_r+0x180c>
    3044:	01412783          	lw	a5,20(sp)
    3048:	00778b13          	add	s6,a5,7
    304c:	ff8b7b13          	and	s6,s6,-8
    3050:	000b2d03          	lw	s10,0(s6)
    3054:	004b2c83          	lw	s9,4(s6)
    3058:	008b0793          	add	a5,s6,8
    305c:	00f12a23          	sw	a5,20(sp)
    3060:	001ef793          	and	a5,t4,1
    3064:	00078e63          	beqz	a5,3080 <_vfprintf_r+0x1688>
    3068:	019d67b3          	or	a5,s10,s9
    306c:	00078a63          	beqz	a5,3080 <_vfprintf_r+0x1688>
    3070:	03000793          	li	a5,48
    3074:	06f10c23          	sb	a5,120(sp)
    3078:	07c10ca3          	sb	t3,121(sp)
    307c:	002eee93          	or	t4,t4,2
    3080:	bffef613          	and	a2,t4,-1025
    3084:	00200793          	li	a5,2
    3088:	bb4ff06f          	j	243c <_vfprintf_r+0xa44>
    308c:	000b0313          	mv	t1,s6
    3090:	000a0613          	mv	a2,s4
    3094:	b80ff06f          	j	2414 <_vfprintf_r+0xa1c>
    3098:	000a0e93          	mv	t4,s4
    309c:	000b0313          	mv	t1,s6
    30a0:	d1cff06f          	j	25bc <_vfprintf_r+0xbc4>
    30a4:	0000c797          	auipc	a5,0xc
    30a8:	9dc78793          	add	a5,a5,-1572 # ea80 <__fini_array_end+0x124>
    30ac:	000a0e93          	mv	t4,s4
    30b0:	000b0313          	mv	t1,s6
    30b4:	02f12c23          	sw	a5,56(sp)
    30b8:	f85ff06f          	j	303c <_vfprintf_r+0x1644>
    30bc:	00194e03          	lbu	t3,1(s2)
    30c0:	020a6a13          	or	s4,s4,32
    30c4:	00190913          	add	s2,s2,1
    30c8:	ae1fe06f          	j	1ba8 <_vfprintf_r+0x1b0>
    30cc:	00194e03          	lbu	t3,1(s2)
    30d0:	200a6a13          	or	s4,s4,512
    30d4:	00190913          	add	s2,s2,1
    30d8:	ad1fe06f          	j	1ba8 <_vfprintf_r+0x1b0>
    30dc:	00812583          	lw	a1,8(sp)
    30e0:	0a010613          	add	a2,sp,160
    30e4:	00098513          	mv	a0,s3
    30e8:	03d12023          	sw	t4,32(sp)
    30ec:	7c8010ef          	jal	48b4 <__sprint_r>
    30f0:	00050463          	beqz	a0,30f8 <_vfprintf_r+0x1700>
    30f4:	dd5fe06f          	j	1ec8 <_vfprintf_r+0x4d0>
    30f8:	0a812483          	lw	s1,168(sp)
    30fc:	02012e83          	lw	t4,32(sp)
    3100:	0ac10413          	add	s0,sp,172
    3104:	e10ff06f          	j	2714 <_vfprintf_r+0xd1c>
    3108:	00600793          	li	a5,6
    310c:	00030c93          	mv	s9,t1
    3110:	0e67e6e3          	bltu	a5,t1,39fc <_vfprintf_r+0x2004>
    3114:	01612a23          	sw	s6,20(sp)
    3118:	00012823          	sw	zero,16(sp)
    311c:	000c8d13          	mv	s10,s9
    3120:	00000613          	li	a2,0
    3124:	00000313          	li	t1,0
    3128:	02012223          	sw	zero,36(sp)
    312c:	02012023          	sw	zero,32(sp)
    3130:	00000a13          	li	s4,0
    3134:	0000cc17          	auipc	s8,0xc
    3138:	974c0c13          	add	s8,s8,-1676 # eaa8 <__fini_array_end+0x14c>
    313c:	afdfe06f          	j	1c38 <_vfprintf_r+0x240>
    3140:	00800613          	li	a2,8
    3144:	00000593          	li	a1,0
    3148:	09810513          	add	a0,sp,152
    314c:	03c12023          	sw	t3,32(sp)
    3150:	01d12823          	sw	t4,16(sp)
    3154:	951fd0ef          	jal	aa4 <memset>
    3158:	01412783          	lw	a5,20(sp)
    315c:	0ec10c13          	add	s8,sp,236
    3160:	09810693          	add	a3,sp,152
    3164:	0007a603          	lw	a2,0(a5)
    3168:	000c0593          	mv	a1,s8
    316c:	00098513          	mv	a0,s3
    3170:	2b4070ef          	jal	a424 <_wcrtomb_r>
    3174:	fff00793          	li	a5,-1
    3178:	01012e83          	lw	t4,16(sp)
    317c:	02012e03          	lw	t3,32(sp)
    3180:	00050d13          	mv	s10,a0
    3184:	00f51463          	bne	a0,a5,318c <_vfprintf_r+0x1794>
    3188:	4980106f          	j	4620 <_vfprintf_r+0x2c28>
    318c:	fff54813          	not	a6,a0
    3190:	41f85813          	sra	a6,a6,0x1f
    3194:	01057cb3          	and	s9,a0,a6
    3198:	97cff06f          	j	2314 <_vfprintf_r+0x91c>
    319c:	03412703          	lw	a4,52(sp)
    31a0:	03012783          	lw	a5,48(sp)
    31a4:	00700693          	li	a3,7
    31a8:	00e42023          	sw	a4,0(s0)
    31ac:	0a412703          	lw	a4,164(sp)
    31b0:	00f484b3          	add	s1,s1,a5
    31b4:	00f42223          	sw	a5,4(s0)
    31b8:	00170713          	add	a4,a4,1
    31bc:	0a912423          	sw	s1,168(sp)
    31c0:	0ae12223          	sw	a4,164(sp)
    31c4:	00840413          	add	s0,s0,8
    31c8:	a4e6d0e3          	bge	a3,a4,2c08 <_vfprintf_r+0x1210>
    31cc:	00812583          	lw	a1,8(sp)
    31d0:	0a010613          	add	a2,sp,160
    31d4:	00098513          	mv	a0,s3
    31d8:	02612223          	sw	t1,36(sp)
    31dc:	03d12023          	sw	t4,32(sp)
    31e0:	6d4010ef          	jal	48b4 <__sprint_r>
    31e4:	00050463          	beqz	a0,31ec <_vfprintf_r+0x17f4>
    31e8:	ce1fe06f          	j	1ec8 <_vfprintf_r+0x4d0>
    31ec:	07c12d03          	lw	s10,124(sp)
    31f0:	0a812483          	lw	s1,168(sp)
    31f4:	02412303          	lw	t1,36(sp)
    31f8:	02012e83          	lw	t4,32(sp)
    31fc:	0ac10413          	add	s0,sp,172
    3200:	a09ff06f          	j	2c08 <_vfprintf_r+0x1210>
    3204:	01412703          	lw	a4,20(sp)
    3208:	010ef793          	and	a5,t4,16
    320c:	00072d03          	lw	s10,0(a4)
    3210:	00470713          	add	a4,a4,4
    3214:	00e12a23          	sw	a4,20(sp)
    3218:	08079863          	bnez	a5,32a8 <_vfprintf_r+0x18b0>
    321c:	040ef793          	and	a5,t4,64
    3220:	08078063          	beqz	a5,32a0 <_vfprintf_r+0x18a8>
    3224:	010d1d13          	sll	s10,s10,0x10
    3228:	010d5d13          	srl	s10,s10,0x10
    322c:	00000c93          	li	s9,0
    3230:	e31ff06f          	j	3060 <_vfprintf_r+0x1668>
    3234:	00000d13          	li	s10,0
    3238:	15010c13          	add	s8,sp,336
    323c:	a2cff06f          	j	2468 <_vfprintf_r+0xa70>
    3240:	00812583          	lw	a1,8(sp)
    3244:	0a010613          	add	a2,sp,160
    3248:	00098513          	mv	a0,s3
    324c:	03d12023          	sw	t4,32(sp)
    3250:	664010ef          	jal	48b4 <__sprint_r>
    3254:	00050463          	beqz	a0,325c <_vfprintf_r+0x1864>
    3258:	c71fe06f          	j	1ec8 <_vfprintf_r+0x4d0>
    325c:	0a812483          	lw	s1,168(sp)
    3260:	0a412d03          	lw	s10,164(sp)
    3264:	02012e83          	lw	t4,32(sp)
    3268:	0ac10b13          	add	s6,sp,172
    326c:	f71fe06f          	j	21dc <_vfprintf_r+0x7e4>
    3270:	00812583          	lw	a1,8(sp)
    3274:	0a010613          	add	a2,sp,160
    3278:	00098513          	mv	a0,s3
    327c:	03d12023          	sw	t4,32(sp)
    3280:	634010ef          	jal	48b4 <__sprint_r>
    3284:	00050463          	beqz	a0,328c <_vfprintf_r+0x1894>
    3288:	c41fe06f          	j	1ec8 <_vfprintf_r+0x4d0>
    328c:	0a812483          	lw	s1,168(sp)
    3290:	0a412d03          	lw	s10,164(sp)
    3294:	02012e83          	lw	t4,32(sp)
    3298:	0ac10b13          	add	s6,sp,172
    329c:	f71fe06f          	j	220c <_vfprintf_r+0x814>
    32a0:	200ef793          	and	a5,t4,512
    32a4:	76079663          	bnez	a5,3a10 <_vfprintf_r+0x2018>
    32a8:	00000c93          	li	s9,0
    32ac:	db5ff06f          	j	3060 <_vfprintf_r+0x1668>
    32b0:	00000793          	li	a5,0
    32b4:	15010b13          	add	s6,sp,336
    32b8:	01212823          	sw	s2,16(sp)
    32bc:	00078913          	mv	s2,a5
    32c0:	00098793          	mv	a5,s3
    32c4:	04812823          	sw	s0,80(sp)
    32c8:	000b0993          	mv	s3,s6
    32cc:	03c12403          	lw	s0,60(sp)
    32d0:	40067493          	and	s1,a2,1024
    32d4:	0ff00a13          	li	s4,255
    32d8:	03c12023          	sw	t3,32(sp)
    32dc:	02c12223          	sw	a2,36(sp)
    32e0:	04612223          	sw	t1,68(sp)
    32e4:	00078b13          	mv	s6,a5
    32e8:	0280006f          	j	3310 <_vfprintf_r+0x1918>
    32ec:	00a00613          	li	a2,10
    32f0:	00000693          	li	a3,0
    32f4:	000d0513          	mv	a0,s10
    32f8:	000c8593          	mv	a1,s9
    32fc:	495070ef          	jal	af90 <__udivdi3>
    3300:	6a0c8ee3          	beqz	s9,41bc <_vfprintf_r+0x27c4>
    3304:	00050d13          	mv	s10,a0
    3308:	00058c93          	mv	s9,a1
    330c:	000c0993          	mv	s3,s8
    3310:	00a00613          	li	a2,10
    3314:	00000693          	li	a3,0
    3318:	000d0513          	mv	a0,s10
    331c:	000c8593          	mv	a1,s9
    3320:	31c080ef          	jal	b63c <__umoddi3>
    3324:	03050513          	add	a0,a0,48
    3328:	fea98fa3          	sb	a0,-1(s3)
    332c:	fff98c13          	add	s8,s3,-1
    3330:	00190913          	add	s2,s2,1
    3334:	fa048ce3          	beqz	s1,32ec <_vfprintf_r+0x18f4>
    3338:	00044783          	lbu	a5,0(s0)
    333c:	faf918e3          	bne	s2,a5,32ec <_vfprintf_r+0x18f4>
    3340:	fb4906e3          	beq	s2,s4,32ec <_vfprintf_r+0x18f4>
    3344:	560c9ae3          	bnez	s9,40b8 <_vfprintf_r+0x26c0>
    3348:	00900793          	li	a5,9
    334c:	57a7e6e3          	bltu	a5,s10,40b8 <_vfprintf_r+0x26c0>
    3350:	02412603          	lw	a2,36(sp)
    3354:	15010793          	add	a5,sp,336
    3358:	02812e23          	sw	s0,60(sp)
    335c:	01212c23          	sw	s2,24(sp)
    3360:	02012e03          	lw	t3,32(sp)
    3364:	01012903          	lw	s2,16(sp)
    3368:	04412303          	lw	t1,68(sp)
    336c:	05012403          	lw	s0,80(sp)
    3370:	000b0993          	mv	s3,s6
    3374:	41878d33          	sub	s10,a5,s8
    3378:	00060e93          	mv	t4,a2
    337c:	8ecff06f          	j	2468 <_vfprintf_r+0xa70>
    3380:	00812583          	lw	a1,8(sp)
    3384:	0a010613          	add	a2,sp,160
    3388:	00098513          	mv	a0,s3
    338c:	04612e23          	sw	t1,92(sp)
    3390:	05c12c23          	sw	t3,88(sp)
    3394:	05d12a23          	sw	t4,84(sp)
    3398:	05f12823          	sw	t6,80(sp)
    339c:	04512223          	sw	t0,68(sp)
    33a0:	514010ef          	jal	48b4 <__sprint_r>
    33a4:	00050463          	beqz	a0,33ac <_vfprintf_r+0x19b4>
    33a8:	b21fe06f          	j	1ec8 <_vfprintf_r+0x4d0>
    33ac:	07714603          	lbu	a2,119(sp)
    33b0:	0a812483          	lw	s1,168(sp)
    33b4:	05c12303          	lw	t1,92(sp)
    33b8:	05812e03          	lw	t3,88(sp)
    33bc:	05412e83          	lw	t4,84(sp)
    33c0:	05012f83          	lw	t6,80(sp)
    33c4:	04412283          	lw	t0,68(sp)
    33c8:	0ac10413          	add	s0,sp,172
    33cc:	88dfe06f          	j	1c58 <_vfprintf_r+0x260>
    33d0:	02812883          	lw	a7,40(sp)
    33d4:	02c12703          	lw	a4,44(sp)
    33d8:	02612223          	sw	t1,36(sp)
    33dc:	00088613          	mv	a2,a7
    33e0:	00088513          	mv	a0,a7
    33e4:	00070693          	mv	a3,a4
    33e8:	00070593          	mv	a1,a4
    33ec:	03c12023          	sw	t3,32(sp)
    33f0:	01d12823          	sw	t4,16(sp)
    33f4:	5410a0ef          	jal	e134 <__unorddf2>
    33f8:	01012e83          	lw	t4,16(sp)
    33fc:	02012e03          	lw	t3,32(sp)
    3400:	02412303          	lw	t1,36(sp)
    3404:	00050463          	beqz	a0,340c <_vfprintf_r+0x1a14>
    3408:	0e00106f          	j	44e8 <_vfprintf_r+0x2af0>
    340c:	06100713          	li	a4,97
    3410:	08ee0263          	beq	t3,a4,3494 <_vfprintf_r+0x1a9c>
    3414:	04100713          	li	a4,65
    3418:	05800793          	li	a5,88
    341c:	06ee0e63          	beq	t3,a4,3498 <_vfprintf_r+0x1aa0>
    3420:	fff00713          	li	a4,-1
    3424:	00e31463          	bne	t1,a4,342c <_vfprintf_r+0x1a34>
    3428:	01c0106f          	j	4444 <_vfprintf_r+0x2a4c>
    342c:	fdfe7713          	and	a4,t3,-33
    3430:	04700693          	li	a3,71
    3434:	00012823          	sw	zero,16(sp)
    3438:	00d71663          	bne	a4,a3,3444 <_vfprintf_r+0x1a4c>
    343c:	00031463          	bnez	t1,3444 <_vfprintf_r+0x1a4c>
    3440:	00100313          	li	t1,1
    3444:	100ee793          	or	a5,t4,256
    3448:	00078b13          	mv	s6,a5
    344c:	02c12783          	lw	a5,44(sp)
    3450:	04012223          	sw	zero,68(sp)
    3454:	00078493          	mv	s1,a5
    3458:	0007da63          	bgez	a5,346c <_vfprintf_r+0x1a74>
    345c:	800004b7          	lui	s1,0x80000
    3460:	00f4c4b3          	xor	s1,s1,a5
    3464:	02d00793          	li	a5,45
    3468:	04f12223          	sw	a5,68(sp)
    346c:	fbfe0713          	add	a4,t3,-65
    3470:	02500693          	li	a3,37
    3474:	3ae6e463          	bltu	a3,a4,381c <_vfprintf_r+0x1e24>
    3478:	0000c697          	auipc	a3,0xc
    347c:	a5868693          	add	a3,a3,-1448 # eed0 <_ctype_+0x270>
    3480:	00271713          	sll	a4,a4,0x2
    3484:	00d70733          	add	a4,a4,a3
    3488:	00072703          	lw	a4,0(a4)
    348c:	00d70733          	add	a4,a4,a3
    3490:	00070067          	jr	a4
    3494:	07800793          	li	a5,120
    3498:	03000713          	li	a4,48
    349c:	06e10c23          	sb	a4,120(sp)
    34a0:	06f10ca3          	sb	a5,121(sp)
    34a4:	06300713          	li	a4,99
    34a8:	00012823          	sw	zero,16(sp)
    34ac:	002eee93          	or	t4,t4,2
    34b0:	0ec10c13          	add	s8,sp,236
    34b4:	f86758e3          	bge	a4,t1,3444 <_vfprintf_r+0x1a4c>
    34b8:	00130593          	add	a1,t1,1
    34bc:	00098513          	mv	a0,s3
    34c0:	03c12023          	sw	t3,32(sp)
    34c4:	01d12c23          	sw	t4,24(sp)
    34c8:	00612823          	sw	t1,16(sp)
    34cc:	d35fd0ef          	jal	1200 <_malloc_r>
    34d0:	01012303          	lw	t1,16(sp)
    34d4:	01812e83          	lw	t4,24(sp)
    34d8:	02012e03          	lw	t3,32(sp)
    34dc:	00050c13          	mv	s8,a0
    34e0:	00051463          	bnez	a0,34e8 <_vfprintf_r+0x1af0>
    34e4:	13c0106f          	j	4620 <_vfprintf_r+0x2c28>
    34e8:	00a12823          	sw	a0,16(sp)
    34ec:	f59ff06f          	j	3444 <_vfprintf_r+0x1a4c>
    34f0:	00098513          	mv	a0,s3
    34f4:	1d0030ef          	jal	66c4 <__sinit>
    34f8:	00c12783          	lw	a5,12(sp)
    34fc:	d5cfe06f          	j	1a58 <_vfprintf_r+0x60>
    3500:	00812583          	lw	a1,8(sp)
    3504:	0a010613          	add	a2,sp,160
    3508:	00098513          	mv	a0,s3
    350c:	03d12023          	sw	t4,32(sp)
    3510:	3a4010ef          	jal	48b4 <__sprint_r>
    3514:	00050463          	beqz	a0,351c <_vfprintf_r+0x1b24>
    3518:	9b1fe06f          	j	1ec8 <_vfprintf_r+0x4d0>
    351c:	0a812483          	lw	s1,168(sp)
    3520:	02012e83          	lw	t4,32(sp)
    3524:	0ac10413          	add	s0,sp,172
    3528:	9b0ff06f          	j	26d8 <_vfprintf_r+0xce0>
    352c:	00800613          	li	a2,8
    3530:	00000593          	li	a1,0
    3534:	09810513          	add	a0,sp,152
    3538:	02612023          	sw	t1,32(sp)
    353c:	01c12a23          	sw	t3,20(sp)
    3540:	01d12823          	sw	t4,16(sp)
    3544:	09812223          	sw	s8,132(sp)
    3548:	d5cfd0ef          	jal	aa4 <memset>
    354c:	02012303          	lw	t1,32(sp)
    3550:	01012e83          	lw	t4,16(sp)
    3554:	01412e03          	lw	t3,20(sp)
    3558:	3a0340e3          	bltz	t1,40f8 <_vfprintf_r+0x2700>
    355c:	00000d13          	li	s10,0
    3560:	01212823          	sw	s2,16(sp)
    3564:	000c0c93          	mv	s9,s8
    3568:	fff00493          	li	s1,-1
    356c:	000b0c13          	mv	s8,s6
    3570:	000e8a13          	mv	s4,t4
    3574:	00040b13          	mv	s6,s0
    3578:	000d0913          	mv	s2,s10
    357c:	00030413          	mv	s0,t1
    3580:	0300006f          	j	35b0 <_vfprintf_r+0x1bb8>
    3584:	09810693          	add	a3,sp,152
    3588:	0ec10593          	add	a1,sp,236
    358c:	00098513          	mv	a0,s3
    3590:	695060ef          	jal	a424 <_wcrtomb_r>
    3594:	68950ae3          	beq	a0,s1,4428 <_vfprintf_r+0x2a30>
    3598:	00a907b3          	add	a5,s2,a0
    359c:	02f44263          	blt	s0,a5,35c0 <_vfprintf_r+0x1bc8>
    35a0:	004d0d13          	add	s10,s10,4
    35a4:	00879463          	bne	a5,s0,35ac <_vfprintf_r+0x1bb4>
    35a8:	7990006f          	j	4540 <_vfprintf_r+0x2b48>
    35ac:	00078913          	mv	s2,a5
    35b0:	08412783          	lw	a5,132(sp)
    35b4:	01a787b3          	add	a5,a5,s10
    35b8:	0007a603          	lw	a2,0(a5)
    35bc:	fc0614e3          	bnez	a2,3584 <_vfprintf_r+0x1b8c>
    35c0:	00090d13          	mv	s10,s2
    35c4:	01412e03          	lw	t3,20(sp)
    35c8:	01012903          	lw	s2,16(sp)
    35cc:	000b0413          	mv	s0,s6
    35d0:	000a0e93          	mv	t4,s4
    35d4:	000c0b13          	mv	s6,s8
    35d8:	000c8c13          	mv	s8,s9
    35dc:	340d0ce3          	beqz	s10,4134 <_vfprintf_r+0x273c>
    35e0:	06300793          	li	a5,99
    35e4:	59a7dee3          	bge	a5,s10,4380 <_vfprintf_r+0x2988>
    35e8:	001d0593          	add	a1,s10,1
    35ec:	00098513          	mv	a0,s3
    35f0:	01c12a23          	sw	t3,20(sp)
    35f4:	01d12823          	sw	t4,16(sp)
    35f8:	c09fd0ef          	jal	1200 <_malloc_r>
    35fc:	01012e83          	lw	t4,16(sp)
    3600:	01412e03          	lw	t3,20(sp)
    3604:	00050c13          	mv	s8,a0
    3608:	620500e3          	beqz	a0,4428 <_vfprintf_r+0x2a30>
    360c:	00a12823          	sw	a0,16(sp)
    3610:	00800613          	li	a2,8
    3614:	00000593          	li	a1,0
    3618:	09810513          	add	a0,sp,152
    361c:	03c12023          	sw	t3,32(sp)
    3620:	01d12a23          	sw	t4,20(sp)
    3624:	c80fd0ef          	jal	aa4 <memset>
    3628:	09810713          	add	a4,sp,152
    362c:	000d0693          	mv	a3,s10
    3630:	08410613          	add	a2,sp,132
    3634:	000c0593          	mv	a1,s8
    3638:	00098513          	mv	a0,s3
    363c:	675060ef          	jal	a4b0 <_wcsrtombs_r>
    3640:	01412e83          	lw	t4,20(sp)
    3644:	02012e03          	lw	t3,32(sp)
    3648:	00ad0463          	beq	s10,a0,3650 <_vfprintf_r+0x1c58>
    364c:	0240106f          	j	4670 <_vfprintf_r+0x2c78>
    3650:	01ac0733          	add	a4,s8,s10
    3654:	00070023          	sb	zero,0(a4)
    3658:	07714603          	lbu	a2,119(sp)
    365c:	fffd4813          	not	a6,s10
    3660:	41f85813          	sra	a6,a6,0x1f
    3664:	01612a23          	sw	s6,20(sp)
    3668:	02012223          	sw	zero,36(sp)
    366c:	02012023          	sw	zero,32(sp)
    3670:	010d7cb3          	and	s9,s10,a6
    3674:	00000313          	li	t1,0
    3678:	00000a13          	li	s4,0
    367c:	00061463          	bnez	a2,3684 <_vfprintf_r+0x1c8c>
    3680:	db8fe06f          	j	1c38 <_vfprintf_r+0x240>
    3684:	9d5fe06f          	j	2058 <_vfprintf_r+0x660>
    3688:	00048e93          	mv	t4,s1
    368c:	000a0293          	mv	t0,s4
    3690:	00070493          	mv	s1,a4
    3694:	01a484b3          	add	s1,s1,s10
    3698:	00178793          	add	a5,a5,1
    369c:	00542023          	sw	t0,0(s0)
    36a0:	e48fe06f          	j	1ce8 <_vfprintf_r+0x2f0>
    36a4:	01412783          	lw	a5,20(sp)
    36a8:	00c12703          	lw	a4,12(sp)
    36ac:	0007a783          	lw	a5,0(a5)
    36b0:	00e7a023          	sw	a4,0(a5)
    36b4:	fadfe06f          	j	2660 <_vfprintf_r+0xc68>
    36b8:	02012e83          	lw	t4,32(sp)
    36bc:	00040293          	mv	t0,s0
    36c0:	000a0413          	mv	s0,s4
    36c4:	008484b3          	add	s1,s1,s0
    36c8:	001d0d13          	add	s10,s10,1
    36cc:	005b2023          	sw	t0,0(s6)
    36d0:	b7dfe06f          	j	224c <_vfprintf_r+0x854>
    36d4:	03412703          	lw	a4,52(sp)
    36d8:	03012783          	lw	a5,48(sp)
    36dc:	00700613          	li	a2,7
    36e0:	00e42023          	sw	a4,0(s0)
    36e4:	0a412703          	lw	a4,164(sp)
    36e8:	009784b3          	add	s1,a5,s1
    36ec:	00f42223          	sw	a5,4(s0)
    36f0:	00170713          	add	a4,a4,1
    36f4:	0a912423          	sw	s1,168(sp)
    36f8:	0ae12223          	sw	a4,164(sp)
    36fc:	00840413          	add	s0,s0,8
    3700:	3ae64463          	blt	a2,a4,3aa8 <_vfprintf_r+0x20b0>
    3704:	3e06cee3          	bltz	a3,4300 <_vfprintf_r+0x2908>
    3708:	01812783          	lw	a5,24(sp)
    370c:	00170713          	add	a4,a4,1
    3710:	01842023          	sw	s8,0(s0)
    3714:	009784b3          	add	s1,a5,s1
    3718:	00f42223          	sw	a5,4(s0)
    371c:	0a912423          	sw	s1,168(sp)
    3720:	0ae12223          	sw	a4,164(sp)
    3724:	00700793          	li	a5,7
    3728:	00e7c463          	blt	a5,a4,3730 <_vfprintf_r+0x1d38>
    372c:	dd0fe06f          	j	1cfc <_vfprintf_r+0x304>
    3730:	b61fe06f          	j	2290 <_vfprintf_r+0x898>
    3734:	01000613          	li	a2,16
    3738:	0a412683          	lw	a3,164(sp)
    373c:	0000c297          	auipc	t0,0xc
    3740:	82c28293          	add	t0,t0,-2004 # ef68 <zeroes.0>
    3744:	09665463          	bge	a2,s6,37cc <_vfprintf_r+0x1dd4>
    3748:	00040793          	mv	a5,s0
    374c:	00048713          	mv	a4,s1
    3750:	00812403          	lw	s0,8(sp)
    3754:	01000893          	li	a7,16
    3758:	00700d13          	li	s10,7
    375c:	05d12223          	sw	t4,68(sp)
    3760:	00028493          	mv	s1,t0
    3764:	00c0006f          	j	3770 <_vfprintf_r+0x1d78>
    3768:	ff0b0b13          	add	s6,s6,-16
    376c:	0568d863          	bge	a7,s6,37bc <_vfprintf_r+0x1dc4>
    3770:	01070713          	add	a4,a4,16
    3774:	00168693          	add	a3,a3,1
    3778:	0097a023          	sw	s1,0(a5)
    377c:	0117a223          	sw	a7,4(a5)
    3780:	0ae12423          	sw	a4,168(sp)
    3784:	0ad12223          	sw	a3,164(sp)
    3788:	00878793          	add	a5,a5,8
    378c:	fcdd5ee3          	bge	s10,a3,3768 <_vfprintf_r+0x1d70>
    3790:	0a010613          	add	a2,sp,160
    3794:	00040593          	mv	a1,s0
    3798:	00098513          	mv	a0,s3
    379c:	118010ef          	jal	48b4 <__sprint_r>
    37a0:	00050463          	beqz	a0,37a8 <_vfprintf_r+0x1db0>
    37a4:	f24fe06f          	j	1ec8 <_vfprintf_r+0x4d0>
    37a8:	0a812703          	lw	a4,168(sp)
    37ac:	0a412683          	lw	a3,164(sp)
    37b0:	0ac10793          	add	a5,sp,172
    37b4:	01000893          	li	a7,16
    37b8:	fb1ff06f          	j	3768 <_vfprintf_r+0x1d70>
    37bc:	04412e83          	lw	t4,68(sp)
    37c0:	00048293          	mv	t0,s1
    37c4:	00078413          	mv	s0,a5
    37c8:	00070493          	mv	s1,a4
    37cc:	016484b3          	add	s1,s1,s6
    37d0:	00168693          	add	a3,a3,1
    37d4:	00542023          	sw	t0,0(s0)
    37d8:	01642223          	sw	s6,4(s0)
    37dc:	0a912423          	sw	s1,168(sp)
    37e0:	0ad12223          	sw	a3,164(sp)
    37e4:	00700713          	li	a4,7
    37e8:	00840413          	add	s0,s0,8
    37ec:	bed75c63          	bge	a4,a3,2be4 <_vfprintf_r+0x11ec>
    37f0:	00812583          	lw	a1,8(sp)
    37f4:	0a010613          	add	a2,sp,160
    37f8:	00098513          	mv	a0,s3
    37fc:	05d12223          	sw	t4,68(sp)
    3800:	0b4010ef          	jal	48b4 <__sprint_r>
    3804:	00050463          	beqz	a0,380c <_vfprintf_r+0x1e14>
    3808:	ec0fe06f          	j	1ec8 <_vfprintf_r+0x4d0>
    380c:	0a812483          	lw	s1,168(sp)
    3810:	04412e83          	lw	t4,68(sp)
    3814:	0ac10413          	add	s0,sp,172
    3818:	bccff06f          	j	2be4 <_vfprintf_r+0x11ec>
    381c:	02812703          	lw	a4,40(sp)
    3820:	09810893          	add	a7,sp,152
    3824:	08410813          	add	a6,sp,132
    3828:	00070513          	mv	a0,a4
    382c:	00050593          	mv	a1,a0
    3830:	00030713          	mv	a4,t1
    3834:	07c10793          	add	a5,sp,124
    3838:	00200693          	li	a3,2
    383c:	00048613          	mv	a2,s1
    3840:	00098513          	mv	a0,s3
    3844:	03c12223          	sw	t3,36(sp)
    3848:	03d12023          	sw	t4,32(sp)
    384c:	00612c23          	sw	t1,24(sp)
    3850:	12c040ef          	jal	797c <_dtoa_r>
    3854:	02012e83          	lw	t4,32(sp)
    3858:	01812303          	lw	t1,24(sp)
    385c:	02412e03          	lw	t3,36(sp)
    3860:	001ef713          	and	a4,t4,1
    3864:	00050c13          	mv	s8,a0
    3868:	1a0712e3          	bnez	a4,420c <_vfprintf_r+0x2814>
    386c:	09812783          	lw	a5,152(sp)
    3870:	07c12a03          	lw	s4,124(sp)
    3874:	40a787b3          	sub	a5,a5,a0
    3878:	00f12c23          	sw	a5,24(sp)
    387c:	ffd00713          	li	a4,-3
    3880:	00ea4463          	blt	s4,a4,3888 <_vfprintf_r+0x1e90>
    3884:	5b435663          	bge	t1,s4,3e30 <_vfprintf_r+0x2438>
    3888:	ffee0e13          	add	t3,t3,-2
    388c:	fffa0d13          	add	s10,s4,-1
    3890:	07a12e23          	sw	s10,124(sp)
    3894:	0ffe7693          	zext.b	a3,t3
    3898:	00000613          	li	a2,0
    389c:	08d10423          	sb	a3,136(sp)
    38a0:	02b00693          	li	a3,43
    38a4:	000d5863          	bgez	s10,38b4 <_vfprintf_r+0x1ebc>
    38a8:	00100713          	li	a4,1
    38ac:	41470d33          	sub	s10,a4,s4
    38b0:	02d00693          	li	a3,45
    38b4:	08d104a3          	sb	a3,137(sp)
    38b8:	00900693          	li	a3,9
    38bc:	33a6d8e3          	bge	a3,s10,43ec <_vfprintf_r+0x29f4>
    38c0:	000c0793          	mv	a5,s8
    38c4:	09f10493          	add	s1,sp,159
    38c8:	03212023          	sw	s2,32(sp)
    38cc:	00040c13          	mv	s8,s0
    38d0:	06300a13          	li	s4,99
    38d4:	000d0413          	mv	s0,s10
    38d8:	03d12223          	sw	t4,36(sp)
    38dc:	05c12023          	sw	t3,64(sp)
    38e0:	00048913          	mv	s2,s1
    38e4:	00098c93          	mv	s9,s3
    38e8:	00078d13          	mv	s10,a5
    38ec:	00a00593          	li	a1,10
    38f0:	00040513          	mv	a0,s0
    38f4:	7b10a0ef          	jal	e8a4 <__modsi3>
    38f8:	03050713          	add	a4,a0,48
    38fc:	00090b13          	mv	s6,s2
    3900:	00040513          	mv	a0,s0
    3904:	feeb0fa3          	sb	a4,-1(s6)
    3908:	00a00593          	li	a1,10
    390c:	00040993          	mv	s3,s0
    3910:	7110a0ef          	jal	e820 <__divsi3>
    3914:	fff90913          	add	s2,s2,-1
    3918:	00050413          	mv	s0,a0
    391c:	fd3a48e3          	blt	s4,s3,38ec <_vfprintf_r+0x1ef4>
    3920:	000c8993          	mv	s3,s9
    3924:	03050713          	add	a4,a0,48
    3928:	00090c93          	mv	s9,s2
    392c:	ffeb0693          	add	a3,s6,-2
    3930:	feec8fa3          	sb	a4,-1(s9)
    3934:	000c0413          	mv	s0,s8
    3938:	02412e83          	lw	t4,36(sp)
    393c:	04012e03          	lw	t3,64(sp)
    3940:	02012903          	lw	s2,32(sp)
    3944:	000d0c13          	mv	s8,s10
    3948:	4c96f6e3          	bgeu	a3,s1,4614 <_vfprintf_r+0x2c1c>
    394c:	08a10713          	add	a4,sp,138
    3950:	0006c783          	lbu	a5,0(a3)
    3954:	00168693          	add	a3,a3,1
    3958:	00170713          	add	a4,a4,1
    395c:	fef70fa3          	sb	a5,-1(a4)
    3960:	fe9698e3          	bne	a3,s1,3950 <_vfprintf_r+0x1f58>
    3964:	15010793          	add	a5,sp,336
    3968:	41678633          	sub	a2,a5,s6
    396c:	f5360793          	add	a5,a2,-173
    3970:	04f12023          	sw	a5,64(sp)
    3974:	01812783          	lw	a5,24(sp)
    3978:	04012683          	lw	a3,64(sp)
    397c:	00100713          	li	a4,1
    3980:	00d78d33          	add	s10,a5,a3
    3984:	28f75ce3          	bge	a4,a5,441c <_vfprintf_r+0x2a24>
    3988:	03012783          	lw	a5,48(sp)
    398c:	00fd0d33          	add	s10,s10,a5
    3990:	fffd4813          	not	a6,s10
    3994:	bffeff13          	and	t5,t4,-1025
    3998:	41f85813          	sra	a6,a6,0x1f
    399c:	100f6e93          	or	t4,t5,256
    39a0:	010d7cb3          	and	s9,s10,a6
    39a4:	02012223          	sw	zero,36(sp)
    39a8:	02012023          	sw	zero,32(sp)
    39ac:	00000a13          	li	s4,0
    39b0:	04412783          	lw	a5,68(sp)
    39b4:	46079263          	bnez	a5,3e18 <_vfprintf_r+0x2420>
    39b8:	07714603          	lbu	a2,119(sp)
    39bc:	00000313          	li	t1,0
    39c0:	00061463          	bnez	a2,39c8 <_vfprintf_r+0x1fd0>
    39c4:	a74fe06f          	j	1c38 <_vfprintf_r+0x240>
    39c8:	e90fe06f          	j	2058 <_vfprintf_r+0x660>
    39cc:	00812583          	lw	a1,8(sp)
    39d0:	0a010613          	add	a2,sp,160
    39d4:	00098513          	mv	a0,s3
    39d8:	03d12023          	sw	t4,32(sp)
    39dc:	6d9000ef          	jal	48b4 <__sprint_r>
    39e0:	00050463          	beqz	a0,39e8 <_vfprintf_r+0x1ff0>
    39e4:	ce4fe06f          	j	1ec8 <_vfprintf_r+0x4d0>
    39e8:	07c12683          	lw	a3,124(sp)
    39ec:	0a812483          	lw	s1,168(sp)
    39f0:	02012e83          	lw	t4,32(sp)
    39f4:	0ac10413          	add	s0,sp,172
    39f8:	ce0ff06f          	j	2ed8 <_vfprintf_r+0x14e0>
    39fc:	00600c93          	li	s9,6
    3a00:	f14ff06f          	j	3114 <_vfprintf_r+0x171c>
    3a04:	0ffd7d13          	zext.b	s10,s10
    3a08:	00000c93          	li	s9,0
    3a0c:	bd5fe06f          	j	25e0 <_vfprintf_r+0xbe8>
    3a10:	0ffd7d13          	zext.b	s10,s10
    3a14:	00000c93          	li	s9,0
    3a18:	e48ff06f          	j	3060 <_vfprintf_r+0x1668>
    3a1c:	018d1d13          	sll	s10,s10,0x18
    3a20:	418d5d13          	sra	s10,s10,0x18
    3a24:	41fd5c93          	sra	s9,s10,0x1f
    3a28:	000c8793          	mv	a5,s9
    3a2c:	b39fe06f          	j	2564 <_vfprintf_r+0xb6c>
    3a30:	01412783          	lw	a5,20(sp)
    3a34:	00c12703          	lw	a4,12(sp)
    3a38:	0007a783          	lw	a5,0(a5)
    3a3c:	00e79023          	sh	a4,0(a5)
    3a40:	c21fe06f          	j	2660 <_vfprintf_r+0xc68>
    3a44:	000c0513          	mv	a0,s8
    3a48:	05d12223          	sw	t4,68(sp)
    3a4c:	ad8fd0ef          	jal	d24 <strlen>
    3a50:	07714603          	lbu	a2,119(sp)
    3a54:	fff54813          	not	a6,a0
    3a58:	41f85813          	sra	a6,a6,0x1f
    3a5c:	01612a23          	sw	s6,20(sp)
    3a60:	02012223          	sw	zero,36(sp)
    3a64:	02012023          	sw	zero,32(sp)
    3a68:	00012823          	sw	zero,16(sp)
    3a6c:	04412e83          	lw	t4,68(sp)
    3a70:	00050d13          	mv	s10,a0
    3a74:	01057cb3          	and	s9,a0,a6
    3a78:	00000313          	li	t1,0
    3a7c:	07300e13          	li	t3,115
    3a80:	00061463          	bnez	a2,3a88 <_vfprintf_r+0x2090>
    3a84:	9b4fe06f          	j	1c38 <_vfprintf_r+0x240>
    3a88:	dd0fe06f          	j	2058 <_vfprintf_r+0x660>
    3a8c:	00812583          	lw	a1,8(sp)
    3a90:	0a010613          	add	a2,sp,160
    3a94:	00098513          	mv	a0,s3
    3a98:	61d000ef          	jal	48b4 <__sprint_r>
    3a9c:	00051463          	bnez	a0,3aa4 <_vfprintf_r+0x20ac>
    3aa0:	be8fe06f          	j	1e88 <_vfprintf_r+0x490>
    3aa4:	c38fe06f          	j	1edc <_vfprintf_r+0x4e4>
    3aa8:	00812583          	lw	a1,8(sp)
    3aac:	0a010613          	add	a2,sp,160
    3ab0:	00098513          	mv	a0,s3
    3ab4:	03d12023          	sw	t4,32(sp)
    3ab8:	5fd000ef          	jal	48b4 <__sprint_r>
    3abc:	00050463          	beqz	a0,3ac4 <_vfprintf_r+0x20cc>
    3ac0:	c08fe06f          	j	1ec8 <_vfprintf_r+0x4d0>
    3ac4:	07c12683          	lw	a3,124(sp)
    3ac8:	0a812483          	lw	s1,168(sp)
    3acc:	0a412703          	lw	a4,164(sp)
    3ad0:	02012e83          	lw	t4,32(sp)
    3ad4:	0ac10413          	add	s0,sp,172
    3ad8:	c2dff06f          	j	3704 <_vfprintf_r+0x1d0c>
    3adc:	05862503          	lw	a0,88(a2)
    3ae0:	00f12623          	sw	a5,12(sp)
    3ae4:	275030ef          	jal	7558 <__retarget_lock_release_recursive>
    3ae8:	00c12783          	lw	a5,12(sp)
    3aec:	ab8fe06f          	j	1da4 <_vfprintf_r+0x3ac>
    3af0:	00130a13          	add	s4,t1,1
    3af4:	00200693          	li	a3,2
    3af8:	02812703          	lw	a4,40(sp)
    3afc:	09810893          	add	a7,sp,152
    3b00:	08410813          	add	a6,sp,132
    3b04:	00070513          	mv	a0,a4
    3b08:	00050593          	mv	a1,a0
    3b0c:	000a0713          	mv	a4,s4
    3b10:	07c10793          	add	a5,sp,124
    3b14:	00048613          	mv	a2,s1
    3b18:	00098513          	mv	a0,s3
    3b1c:	02612223          	sw	t1,36(sp)
    3b20:	03c12023          	sw	t3,32(sp)
    3b24:	01d12c23          	sw	t4,24(sp)
    3b28:	655030ef          	jal	797c <_dtoa_r>
    3b2c:	02012e03          	lw	t3,32(sp)
    3b30:	04600693          	li	a3,70
    3b34:	01812e83          	lw	t4,24(sp)
    3b38:	fdfe7d13          	and	s10,t3,-33
    3b3c:	02412303          	lw	t1,36(sp)
    3b40:	00050c13          	mv	s8,a0
    3b44:	01450733          	add	a4,a0,s4
    3b48:	34dd14e3          	bne	s10,a3,4690 <_vfprintf_r+0x2c98>
    3b4c:	000c4603          	lbu	a2,0(s8)
    3b50:	03000693          	li	a3,48
    3b54:	6cd60263          	beq	a2,a3,4218 <_vfprintf_r+0x2820>
    3b58:	07c12683          	lw	a3,124(sp)
    3b5c:	00d70733          	add	a4,a4,a3
    3b60:	02812683          	lw	a3,40(sp)
    3b64:	00048593          	mv	a1,s1
    3b68:	00000613          	li	a2,0
    3b6c:	00068513          	mv	a0,a3
    3b70:	00000693          	li	a3,0
    3b74:	04e12823          	sw	a4,80(sp)
    3b78:	02612223          	sw	t1,36(sp)
    3b7c:	03c12023          	sw	t3,32(sp)
    3b80:	01d12c23          	sw	t4,24(sp)
    3b84:	284090ef          	jal	ce08 <__eqdf2>
    3b88:	01812e83          	lw	t4,24(sp)
    3b8c:	02012e03          	lw	t3,32(sp)
    3b90:	02412303          	lw	t1,36(sp)
    3b94:	05012703          	lw	a4,80(sp)
    3b98:	62050863          	beqz	a0,41c8 <_vfprintf_r+0x27d0>
    3b9c:	09812783          	lw	a5,152(sp)
    3ba0:	00e7fe63          	bgeu	a5,a4,3bbc <_vfprintf_r+0x21c4>
    3ba4:	03000613          	li	a2,48
    3ba8:	00178693          	add	a3,a5,1
    3bac:	08d12c23          	sw	a3,152(sp)
    3bb0:	00c78023          	sb	a2,0(a5)
    3bb4:	09812783          	lw	a5,152(sp)
    3bb8:	fee7e8e3          	bltu	a5,a4,3ba8 <_vfprintf_r+0x21b0>
    3bbc:	07c12a03          	lw	s4,124(sp)
    3bc0:	418787b3          	sub	a5,a5,s8
    3bc4:	04700713          	li	a4,71
    3bc8:	00f12c23          	sw	a5,24(sp)
    3bcc:	caed08e3          	beq	s10,a4,387c <_vfprintf_r+0x1e84>
    3bd0:	04600713          	li	a4,70
    3bd4:	68ed0863          	beq	s10,a4,4264 <_vfprintf_r+0x286c>
    3bd8:	fffa0d13          	add	s10,s4,-1
    3bdc:	cb5ff06f          	j	3890 <_vfprintf_r+0x1e98>
    3be0:	02812703          	lw	a4,40(sp)
    3be4:	07c10613          	add	a2,sp,124
    3be8:	00048593          	mv	a1,s1
    3bec:	00070513          	mv	a0,a4
    3bf0:	02612223          	sw	t1,36(sp)
    3bf4:	03c12023          	sw	t3,32(sp)
    3bf8:	01d12c23          	sw	t4,24(sp)
    3bfc:	26d030ef          	jal	7668 <frexp>
    3c00:	7fffd717          	auipc	a4,0x7fffd
    3c04:	aa870713          	add	a4,a4,-1368 # 800006a8 <__global_locale+0x174>
    3c08:	00072603          	lw	a2,0(a4)
    3c0c:	00472683          	lw	a3,4(a4)
    3c10:	48c090ef          	jal	d09c <__muldf3>
    3c14:	00000613          	li	a2,0
    3c18:	00000693          	li	a3,0
    3c1c:	00050a13          	mv	s4,a0
    3c20:	00058d13          	mv	s10,a1
    3c24:	1e4090ef          	jal	ce08 <__eqdf2>
    3c28:	01812e83          	lw	t4,24(sp)
    3c2c:	02012e03          	lw	t3,32(sp)
    3c30:	02412303          	lw	t1,36(sp)
    3c34:	00051663          	bnez	a0,3c40 <_vfprintf_r+0x2248>
    3c38:	00100713          	li	a4,1
    3c3c:	06e12e23          	sw	a4,124(sp)
    3c40:	0000b797          	auipc	a5,0xb
    3c44:	e5478793          	add	a5,a5,-428 # ea94 <__fini_array_end+0x138>
    3c48:	06100713          	li	a4,97
    3c4c:	02f12023          	sw	a5,32(sp)
    3c50:	00ee1863          	bne	t3,a4,3c60 <_vfprintf_r+0x2268>
    3c54:	0000b797          	auipc	a5,0xb
    3c58:	e2c78793          	add	a5,a5,-468 # ea80 <__fini_array_end+0x124>
    3c5c:	02f12023          	sw	a5,32(sp)
    3c60:	7fffd717          	auipc	a4,0x7fffd
    3c64:	a5070713          	add	a4,a4,-1456 # 800006b0 <__global_locale+0x17c>
    3c68:	00072783          	lw	a5,0(a4)
    3c6c:	00472803          	lw	a6,4(a4)
    3c70:	000c0493          	mv	s1,s8
    3c74:	00f12c23          	sw	a5,24(sp)
    3c78:	000d0793          	mv	a5,s10
    3c7c:	03212223          	sw	s2,36(sp)
    3c80:	000c0d13          	mv	s10,s8
    3c84:	02012903          	lw	s2,32(sp)
    3c88:	00098c13          	mv	s8,s3
    3c8c:	01012e23          	sw	a6,28(sp)
    3c90:	fff30b13          	add	s6,t1,-1
    3c94:	fff00c93          	li	s9,-1
    3c98:	05d12023          	sw	t4,64(sp)
    3c9c:	05c12823          	sw	t3,80(sp)
    3ca0:	04812a23          	sw	s0,84(sp)
    3ca4:	00078993          	mv	s3,a5
    3ca8:	01c0006f          	j	3cc4 <_vfprintf_r+0x22cc>
    3cac:	00000613          	li	a2,0
    3cb0:	00000693          	li	a3,0
    3cb4:	fffb0413          	add	s0,s6,-1
    3cb8:	150090ef          	jal	ce08 <__eqdf2>
    3cbc:	0a0504e3          	beqz	a0,4564 <_vfprintf_r+0x2b6c>
    3cc0:	00040b13          	mv	s6,s0
    3cc4:	01812603          	lw	a2,24(sp)
    3cc8:	01c12683          	lw	a3,28(sp)
    3ccc:	000a0513          	mv	a0,s4
    3cd0:	00098593          	mv	a1,s3
    3cd4:	3c8090ef          	jal	d09c <__muldf3>
    3cd8:	00058a13          	mv	s4,a1
    3cdc:	00050993          	mv	s3,a0
    3ce0:	4a80a0ef          	jal	e188 <__fixdfsi>
    3ce4:	00050413          	mv	s0,a0
    3ce8:	5240a0ef          	jal	e20c <__floatsidf>
    3cec:	00050613          	mv	a2,a0
    3cf0:	00058693          	mv	a3,a1
    3cf4:	00098513          	mv	a0,s3
    3cf8:	000a0593          	mv	a1,s4
    3cfc:	331090ef          	jal	d82c <__subdf3>
    3d00:	00890733          	add	a4,s2,s0
    3d04:	00074703          	lbu	a4,0(a4)
    3d08:	00048813          	mv	a6,s1
    3d0c:	00050a13          	mv	s4,a0
    3d10:	00e48023          	sb	a4,0(s1) # 80000000 <_impure_data>
    3d14:	00058993          	mv	s3,a1
    3d18:	00148493          	add	s1,s1,1
    3d1c:	f99b18e3          	bne	s6,s9,3cac <_vfprintf_r+0x22b4>
    3d20:	7fffd697          	auipc	a3,0x7fffd
    3d24:	99868693          	add	a3,a3,-1640 # 800006b8 <__global_locale+0x184>
    3d28:	0006a303          	lw	t1,0(a3)
    3d2c:	0046a383          	lw	t2,4(a3)
    3d30:	05012e03          	lw	t3,80(sp)
    3d34:	00030613          	mv	a2,t1
    3d38:	00038693          	mv	a3,t2
    3d3c:	01012c23          	sw	a6,24(sp)
    3d40:	02412903          	lw	s2,36(sp)
    3d44:	000c0993          	mv	s3,s8
    3d48:	03c12223          	sw	t3,36(sp)
    3d4c:	000d0c13          	mv	s8,s10
    3d50:	00058d13          	mv	s10,a1
    3d54:	140090ef          	jal	ce94 <__gedf2>
    3d58:	7fffd797          	auipc	a5,0x7fffd
    3d5c:	96078793          	add	a5,a5,-1696 # 800006b8 <__global_locale+0x184>
    3d60:	00040b13          	mv	s6,s0
    3d64:	0007a303          	lw	t1,0(a5)
    3d68:	05412403          	lw	s0,84(sp)
    3d6c:	0047a383          	lw	t2,4(a5)
    3d70:	01812803          	lw	a6,24(sp)
    3d74:	02412e03          	lw	t3,36(sp)
    3d78:	04012e83          	lw	t4,64(sp)
    3d7c:	0aa05ce3          	blez	a0,4634 <_vfprintf_r+0x2c3c>
    3d80:	02012783          	lw	a5,32(sp)
    3d84:	09012c23          	sw	a6,152(sp)
    3d88:	fff4c603          	lbu	a2,-1(s1)
    3d8c:	00f7c583          	lbu	a1,15(a5)
    3d90:	00048693          	mv	a3,s1
    3d94:	02b61063          	bne	a2,a1,3db4 <_vfprintf_r+0x23bc>
    3d98:	03000513          	li	a0,48
    3d9c:	fea68fa3          	sb	a0,-1(a3)
    3da0:	09812683          	lw	a3,152(sp)
    3da4:	fff68793          	add	a5,a3,-1
    3da8:	08f12c23          	sw	a5,152(sp)
    3dac:	fff6c603          	lbu	a2,-1(a3)
    3db0:	feb606e3          	beq	a2,a1,3d9c <_vfprintf_r+0x23a4>
    3db4:	00160593          	add	a1,a2,1
    3db8:	03900513          	li	a0,57
    3dbc:	0ff5f593          	zext.b	a1,a1
    3dc0:	04a60463          	beq	a2,a0,3e08 <_vfprintf_r+0x2410>
    3dc4:	feb68fa3          	sb	a1,-1(a3)
    3dc8:	00048793          	mv	a5,s1
    3dcc:	07c12a03          	lw	s4,124(sp)
    3dd0:	418787b3          	sub	a5,a5,s8
    3dd4:	06100613          	li	a2,97
    3dd8:	fffa0d13          	add	s10,s4,-1
    3ddc:	00f12c23          	sw	a5,24(sp)
    3de0:	07a12e23          	sw	s10,124(sp)
    3de4:	07000693          	li	a3,112
    3de8:	00ce0663          	beq	t3,a2,3df4 <_vfprintf_r+0x23fc>
    3dec:	05000693          	li	a3,80
    3df0:	04100e13          	li	t3,65
    3df4:	00100613          	li	a2,1
    3df8:	aa5ff06f          	j	389c <_vfprintf_r+0x1ea4>
    3dfc:	00030a13          	mv	s4,t1
    3e00:	00300693          	li	a3,3
    3e04:	cf5ff06f          	j	3af8 <_vfprintf_r+0x2100>
    3e08:	02012783          	lw	a5,32(sp)
    3e0c:	00a7c583          	lbu	a1,10(a5)
    3e10:	feb68fa3          	sb	a1,-1(a3)
    3e14:	fb5ff06f          	j	3dc8 <_vfprintf_r+0x23d0>
    3e18:	02d00713          	li	a4,45
    3e1c:	06e10ba3          	sb	a4,119(sp)
    3e20:	02d00613          	li	a2,45
    3e24:	00000313          	li	t1,0
    3e28:	001c8c93          	add	s9,s9,1
    3e2c:	e0dfd06f          	j	1c38 <_vfprintf_r+0x240>
    3e30:	01812783          	lw	a5,24(sp)
    3e34:	46fa4063          	blt	s4,a5,4294 <_vfprintf_r+0x289c>
    3e38:	001ef713          	and	a4,t4,1
    3e3c:	000a0d13          	mv	s10,s4
    3e40:	00070663          	beqz	a4,3e4c <_vfprintf_r+0x2454>
    3e44:	03012783          	lw	a5,48(sp)
    3e48:	00fa0d33          	add	s10,s4,a5
    3e4c:	400eff13          	and	t5,t4,1024
    3e50:	000f0463          	beqz	t5,3e58 <_vfprintf_r+0x2460>
    3e54:	5f404e63          	bgtz	s4,4450 <_vfprintf_r+0x2a58>
    3e58:	fffd4813          	not	a6,s10
    3e5c:	41f85813          	sra	a6,a6,0x1f
    3e60:	010d7cb3          	and	s9,s10,a6
    3e64:	06700e13          	li	t3,103
    3e68:	000b0e93          	mv	t4,s6
    3e6c:	02012223          	sw	zero,36(sp)
    3e70:	02012023          	sw	zero,32(sp)
    3e74:	b3dff06f          	j	39b0 <_vfprintf_r+0x1fb8>
    3e78:	02d00793          	li	a5,45
    3e7c:	06f10ba3          	sb	a5,119(sp)
    3e80:	02d00613          	li	a2,45
    3e84:	998fe06f          	j	201c <_vfprintf_r+0x624>
    3e88:	01812783          	lw	a5,24(sp)
    3e8c:	02012a03          	lw	s4,32(sp)
    3e90:	05212823          	sw	s2,80(sp)
    3e94:	00fc07b3          	add	a5,s8,a5
    3e98:	05712c23          	sw	s7,88(sp)
    3e9c:	05912e23          	sw	s9,92(sp)
    3ea0:	00040713          	mv	a4,s0
    3ea4:	04f12223          	sw	a5,68(sp)
    3ea8:	02412403          	lw	s0,36(sp)
    3eac:	05d12a23          	sw	t4,84(sp)
    3eb0:	03812223          	sw	s8,36(sp)
    3eb4:	03c12b83          	lw	s7,60(sp)
    3eb8:	04c12c83          	lw	s9,76(sp)
    3ebc:	00812903          	lw	s2,8(sp)
    3ec0:	00700693          	li	a3,7
    3ec4:	01000d13          	li	s10,16
    3ec8:	0000bb17          	auipc	s6,0xb
    3ecc:	0a0b0b13          	add	s6,s6,160 # ef68 <zeroes.0>
    3ed0:	00048613          	mv	a2,s1
    3ed4:	00030c13          	mv	s8,t1
    3ed8:	09405863          	blez	s4,3f68 <_vfprintf_r+0x2570>
    3edc:	16805e63          	blez	s0,4058 <_vfprintf_r+0x2660>
    3ee0:	fff40413          	add	s0,s0,-1
    3ee4:	04812783          	lw	a5,72(sp)
    3ee8:	01960633          	add	a2,a2,s9
    3eec:	01972223          	sw	s9,4(a4)
    3ef0:	00f72023          	sw	a5,0(a4)
    3ef4:	0a412783          	lw	a5,164(sp)
    3ef8:	0ac12423          	sw	a2,168(sp)
    3efc:	00870713          	add	a4,a4,8
    3f00:	00178793          	add	a5,a5,1
    3f04:	0af12223          	sw	a5,164(sp)
    3f08:	14f6ce63          	blt	a3,a5,4064 <_vfprintf_r+0x266c>
    3f0c:	04412783          	lw	a5,68(sp)
    3f10:	000bc583          	lbu	a1,0(s7)
    3f14:	418784b3          	sub	s1,a5,s8
    3f18:	0095d463          	bge	a1,s1,3f20 <_vfprintf_r+0x2528>
    3f1c:	00058493          	mv	s1,a1
    3f20:	02905663          	blez	s1,3f4c <_vfprintf_r+0x2554>
    3f24:	0a412583          	lw	a1,164(sp)
    3f28:	00960633          	add	a2,a2,s1
    3f2c:	01872023          	sw	s8,0(a4)
    3f30:	00158593          	add	a1,a1,1
    3f34:	00972223          	sw	s1,4(a4)
    3f38:	0ac12423          	sw	a2,168(sp)
    3f3c:	0ab12223          	sw	a1,164(sp)
    3f40:	14b6c663          	blt	a3,a1,408c <_vfprintf_r+0x2694>
    3f44:	000bc583          	lbu	a1,0(s7)
    3f48:	00870713          	add	a4,a4,8
    3f4c:	fff4c513          	not	a0,s1
    3f50:	41f55513          	sra	a0,a0,0x1f
    3f54:	00a4f7b3          	and	a5,s1,a0
    3f58:	40f584b3          	sub	s1,a1,a5
    3f5c:	04904663          	bgtz	s1,3fa8 <_vfprintf_r+0x25b0>
    3f60:	00bc0c33          	add	s8,s8,a1
    3f64:	f7404ce3          	bgtz	s4,3edc <_vfprintf_r+0x24e4>
    3f68:	f6804ce3          	bgtz	s0,3ee0 <_vfprintf_r+0x24e8>
    3f6c:	01812783          	lw	a5,24(sp)
    3f70:	000c0313          	mv	t1,s8
    3f74:	02412c03          	lw	s8,36(sp)
    3f78:	03712e23          	sw	s7,60(sp)
    3f7c:	00070413          	mv	s0,a4
    3f80:	00fc0733          	add	a4,s8,a5
    3f84:	05012903          	lw	s2,80(sp)
    3f88:	05412e83          	lw	t4,84(sp)
    3f8c:	05812b83          	lw	s7,88(sp)
    3f90:	05c12c83          	lw	s9,92(sp)
    3f94:	00060493          	mv	s1,a2
    3f98:	00676463          	bltu	a4,t1,3fa0 <_vfprintf_r+0x25a8>
    3f9c:	c59fe06f          	j	2bf4 <_vfprintf_r+0x11fc>
    3fa0:	00070313          	mv	t1,a4
    3fa4:	c51fe06f          	j	2bf4 <_vfprintf_r+0x11fc>
    3fa8:	0a412583          	lw	a1,164(sp)
    3fac:	0000be97          	auipc	t4,0xb
    3fb0:	fbce8e93          	add	t4,t4,-68 # ef68 <zeroes.0>
    3fb4:	069d5c63          	bge	s10,s1,402c <_vfprintf_r+0x2634>
    3fb8:	02812023          	sw	s0,32(sp)
    3fbc:	00048413          	mv	s0,s1
    3fc0:	000b0493          	mv	s1,s6
    3fc4:	00c0006f          	j	3fd0 <_vfprintf_r+0x25d8>
    3fc8:	ff040413          	add	s0,s0,-16
    3fcc:	048d5a63          	bge	s10,s0,4020 <_vfprintf_r+0x2628>
    3fd0:	01060613          	add	a2,a2,16
    3fd4:	00158593          	add	a1,a1,1
    3fd8:	01672023          	sw	s6,0(a4)
    3fdc:	01a72223          	sw	s10,4(a4)
    3fe0:	0ac12423          	sw	a2,168(sp)
    3fe4:	0ab12223          	sw	a1,164(sp)
    3fe8:	00870713          	add	a4,a4,8
    3fec:	fcb6dee3          	bge	a3,a1,3fc8 <_vfprintf_r+0x25d0>
    3ff0:	0a010613          	add	a2,sp,160
    3ff4:	00090593          	mv	a1,s2
    3ff8:	00098513          	mv	a0,s3
    3ffc:	0b9000ef          	jal	48b4 <__sprint_r>
    4000:	00050463          	beqz	a0,4008 <_vfprintf_r+0x2610>
    4004:	ec5fd06f          	j	1ec8 <_vfprintf_r+0x4d0>
    4008:	ff040413          	add	s0,s0,-16
    400c:	0a812603          	lw	a2,168(sp)
    4010:	0a412583          	lw	a1,164(sp)
    4014:	0ac10713          	add	a4,sp,172
    4018:	00700693          	li	a3,7
    401c:	fa8d4ae3          	blt	s10,s0,3fd0 <_vfprintf_r+0x25d8>
    4020:	00048e93          	mv	t4,s1
    4024:	00040493          	mv	s1,s0
    4028:	02012403          	lw	s0,32(sp)
    402c:	00960633          	add	a2,a2,s1
    4030:	00158593          	add	a1,a1,1
    4034:	01d72023          	sw	t4,0(a4)
    4038:	00972223          	sw	s1,4(a4)
    403c:	0ac12423          	sw	a2,168(sp)
    4040:	0ab12223          	sw	a1,164(sp)
    4044:	10b6ce63          	blt	a3,a1,4160 <_vfprintf_r+0x2768>
    4048:	000bc583          	lbu	a1,0(s7)
    404c:	00870713          	add	a4,a4,8
    4050:	00bc0c33          	add	s8,s8,a1
    4054:	f11ff06f          	j	3f64 <_vfprintf_r+0x256c>
    4058:	fffb8b93          	add	s7,s7,-1
    405c:	fffa0a13          	add	s4,s4,-1
    4060:	e85ff06f          	j	3ee4 <_vfprintf_r+0x24ec>
    4064:	0a010613          	add	a2,sp,160
    4068:	00090593          	mv	a1,s2
    406c:	00098513          	mv	a0,s3
    4070:	045000ef          	jal	48b4 <__sprint_r>
    4074:	00050463          	beqz	a0,407c <_vfprintf_r+0x2684>
    4078:	e51fd06f          	j	1ec8 <_vfprintf_r+0x4d0>
    407c:	0a812603          	lw	a2,168(sp)
    4080:	0ac10713          	add	a4,sp,172
    4084:	00700693          	li	a3,7
    4088:	e85ff06f          	j	3f0c <_vfprintf_r+0x2514>
    408c:	0a010613          	add	a2,sp,160
    4090:	00090593          	mv	a1,s2
    4094:	00098513          	mv	a0,s3
    4098:	01d000ef          	jal	48b4 <__sprint_r>
    409c:	00050463          	beqz	a0,40a4 <_vfprintf_r+0x26ac>
    40a0:	e29fd06f          	j	1ec8 <_vfprintf_r+0x4d0>
    40a4:	000bc583          	lbu	a1,0(s7)
    40a8:	0a812603          	lw	a2,168(sp)
    40ac:	0ac10713          	add	a4,sp,172
    40b0:	00700693          	li	a3,7
    40b4:	e99ff06f          	j	3f4c <_vfprintf_r+0x2554>
    40b8:	04c12783          	lw	a5,76(sp)
    40bc:	04812583          	lw	a1,72(sp)
    40c0:	00000913          	li	s2,0
    40c4:	40fc0c33          	sub	s8,s8,a5
    40c8:	00078613          	mv	a2,a5
    40cc:	000c0513          	mv	a0,s8
    40d0:	1dc030ef          	jal	72ac <strncpy>
    40d4:	00144783          	lbu	a5,1(s0)
    40d8:	00a00613          	li	a2,10
    40dc:	00000693          	li	a3,0
    40e0:	00f037b3          	snez	a5,a5
    40e4:	000d0513          	mv	a0,s10
    40e8:	000c8593          	mv	a1,s9
    40ec:	00f40433          	add	s0,s0,a5
    40f0:	6a1060ef          	jal	af90 <__udivdi3>
    40f4:	a10ff06f          	j	3304 <_vfprintf_r+0x190c>
    40f8:	09810713          	add	a4,sp,152
    40fc:	00000693          	li	a3,0
    4100:	08410613          	add	a2,sp,132
    4104:	00000593          	li	a1,0
    4108:	00098513          	mv	a0,s3
    410c:	01c12a23          	sw	t3,20(sp)
    4110:	01d12823          	sw	t4,16(sp)
    4114:	39c060ef          	jal	a4b0 <_wcsrtombs_r>
    4118:	fff00713          	li	a4,-1
    411c:	01012e83          	lw	t4,16(sp)
    4120:	01412e03          	lw	t3,20(sp)
    4124:	00050d13          	mv	s10,a0
    4128:	30e50063          	beq	a0,a4,4428 <_vfprintf_r+0x2a30>
    412c:	09812223          	sw	s8,132(sp)
    4130:	cacff06f          	j	35dc <_vfprintf_r+0x1be4>
    4134:	07714603          	lbu	a2,119(sp)
    4138:	01612a23          	sw	s6,20(sp)
    413c:	02012223          	sw	zero,36(sp)
    4140:	02012023          	sw	zero,32(sp)
    4144:	00012823          	sw	zero,16(sp)
    4148:	00000c93          	li	s9,0
    414c:	00000313          	li	t1,0
    4150:	00000a13          	li	s4,0
    4154:	00061463          	bnez	a2,415c <_vfprintf_r+0x2764>
    4158:	ae1fd06f          	j	1c38 <_vfprintf_r+0x240>
    415c:	efdfd06f          	j	2058 <_vfprintf_r+0x660>
    4160:	0a010613          	add	a2,sp,160
    4164:	00090593          	mv	a1,s2
    4168:	00098513          	mv	a0,s3
    416c:	748000ef          	jal	48b4 <__sprint_r>
    4170:	00050463          	beqz	a0,4178 <_vfprintf_r+0x2780>
    4174:	d55fd06f          	j	1ec8 <_vfprintf_r+0x4d0>
    4178:	000bc583          	lbu	a1,0(s7)
    417c:	0a812603          	lw	a2,168(sp)
    4180:	0ac10713          	add	a4,sp,172
    4184:	00700693          	li	a3,7
    4188:	00bc0c33          	add	s8,s8,a1
    418c:	dd9ff06f          	j	3f64 <_vfprintf_r+0x256c>
    4190:	00812583          	lw	a1,8(sp)
    4194:	0a010613          	add	a2,sp,160
    4198:	00098513          	mv	a0,s3
    419c:	05d12223          	sw	t4,68(sp)
    41a0:	714000ef          	jal	48b4 <__sprint_r>
    41a4:	00050463          	beqz	a0,41ac <_vfprintf_r+0x27b4>
    41a8:	d21fd06f          	j	1ec8 <_vfprintf_r+0x4d0>
    41ac:	0a812483          	lw	s1,168(sp)
    41b0:	04412e83          	lw	t4,68(sp)
    41b4:	0ac10413          	add	s0,sp,172
    41b8:	a19fe06f          	j	2bd0 <_vfprintf_r+0x11d8>
    41bc:	00900793          	li	a5,9
    41c0:	95a7e263          	bltu	a5,s10,3304 <_vfprintf_r+0x190c>
    41c4:	98cff06f          	j	3350 <_vfprintf_r+0x1958>
    41c8:	07c12a03          	lw	s4,124(sp)
    41cc:	00070793          	mv	a5,a4
    41d0:	9f1ff06f          	j	3bc0 <_vfprintf_r+0x21c8>
    41d4:	00812583          	lw	a1,8(sp)
    41d8:	0a010613          	add	a2,sp,160
    41dc:	00098513          	mv	a0,s3
    41e0:	03d12023          	sw	t4,32(sp)
    41e4:	6d0000ef          	jal	48b4 <__sprint_r>
    41e8:	00050463          	beqz	a0,41f0 <_vfprintf_r+0x27f8>
    41ec:	cddfd06f          	j	1ec8 <_vfprintf_r+0x4d0>
    41f0:	07c12d03          	lw	s10,124(sp)
    41f4:	01812783          	lw	a5,24(sp)
    41f8:	0a812483          	lw	s1,168(sp)
    41fc:	02012e83          	lw	t4,32(sp)
    4200:	0ac10413          	add	s0,sp,172
    4204:	41a78d33          	sub	s10,a5,s10
    4208:	a49fe06f          	j	2c50 <_vfprintf_r+0x1258>
    420c:	00650733          	add	a4,a0,t1
    4210:	04700d13          	li	s10,71
    4214:	94dff06f          	j	3b60 <_vfprintf_r+0x2168>
    4218:	02812603          	lw	a2,40(sp)
    421c:	00048593          	mv	a1,s1
    4220:	00000693          	li	a3,0
    4224:	00060513          	mv	a0,a2
    4228:	00000613          	li	a2,0
    422c:	04e12823          	sw	a4,80(sp)
    4230:	02612223          	sw	t1,36(sp)
    4234:	03c12023          	sw	t3,32(sp)
    4238:	01d12c23          	sw	t4,24(sp)
    423c:	3cd080ef          	jal	ce08 <__eqdf2>
    4240:	01812e83          	lw	t4,24(sp)
    4244:	02012e03          	lw	t3,32(sp)
    4248:	02412303          	lw	t1,36(sp)
    424c:	05012703          	lw	a4,80(sp)
    4250:	34051e63          	bnez	a0,45ac <_vfprintf_r+0x2bb4>
    4254:	07c12a03          	lw	s4,124(sp)
    4258:	01470733          	add	a4,a4,s4
    425c:	418707b3          	sub	a5,a4,s8
    4260:	00f12c23          	sw	a5,24(sp)
    4264:	001ef713          	and	a4,t4,1
    4268:	00676733          	or	a4,a4,t1
    426c:	37405a63          	blez	s4,45e0 <_vfprintf_r+0x2be8>
    4270:	26071263          	bnez	a4,44d4 <_vfprintf_r+0x2adc>
    4274:	000a0d13          	mv	s10,s4
    4278:	06600e13          	li	t3,102
    427c:	400eff13          	and	t5,t4,1024
    4280:	1c0f1a63          	bnez	t5,4454 <_vfprintf_r+0x2a5c>
    4284:	fffd4813          	not	a6,s10
    4288:	41f85813          	sra	a6,a6,0x1f
    428c:	010d7cb3          	and	s9,s10,a6
    4290:	bd9ff06f          	j	3e68 <_vfprintf_r+0x2470>
    4294:	01812783          	lw	a5,24(sp)
    4298:	03012703          	lw	a4,48(sp)
    429c:	06700e13          	li	t3,103
    42a0:	00e78d33          	add	s10,a5,a4
    42a4:	fd404ce3          	bgtz	s4,427c <_vfprintf_r+0x2884>
    42a8:	414d06b3          	sub	a3,s10,s4
    42ac:	00168d13          	add	s10,a3,1
    42b0:	fffd4813          	not	a6,s10
    42b4:	41f85813          	sra	a6,a6,0x1f
    42b8:	010d7cb3          	and	s9,s10,a6
    42bc:	badff06f          	j	3e68 <_vfprintf_r+0x2470>
    42c0:	000e8613          	mv	a2,t4
    42c4:	ad8fe06f          	j	259c <_vfprintf_r+0xba4>
    42c8:	00812783          	lw	a5,8(sp)
    42cc:	0647a783          	lw	a5,100(a5)
    42d0:	0017f793          	and	a5,a5,1
    42d4:	02079063          	bnez	a5,42f4 <_vfprintf_r+0x28fc>
    42d8:	00812783          	lw	a5,8(sp)
    42dc:	00c7d783          	lhu	a5,12(a5)
    42e0:	2007f793          	and	a5,a5,512
    42e4:	00079863          	bnez	a5,42f4 <_vfprintf_r+0x28fc>
    42e8:	00812783          	lw	a5,8(sp)
    42ec:	0587a503          	lw	a0,88(a5)
    42f0:	268030ef          	jal	7558 <__retarget_lock_release_recursive>
    42f4:	fff00793          	li	a5,-1
    42f8:	00f12623          	sw	a5,12(sp)
    42fc:	c2dfd06f          	j	1f28 <_vfprintf_r+0x530>
    4300:	ff000613          	li	a2,-16
    4304:	40d00d33          	neg	s10,a3
    4308:	0000b297          	auipc	t0,0xb
    430c:	c6028293          	add	t0,t0,-928 # ef68 <zeroes.0>
    4310:	08c6d463          	bge	a3,a2,4398 <_vfprintf_r+0x29a0>
    4314:	03212023          	sw	s2,32(sp)
    4318:	01000693          	li	a3,16
    431c:	00700b13          	li	s6,7
    4320:	000e8a13          	mv	s4,t4
    4324:	00028913          	mv	s2,t0
    4328:	00c0006f          	j	4334 <_vfprintf_r+0x293c>
    432c:	ff0d0d13          	add	s10,s10,-16
    4330:	05a6de63          	bge	a3,s10,438c <_vfprintf_r+0x2994>
    4334:	01048493          	add	s1,s1,16
    4338:	00170713          	add	a4,a4,1
    433c:	01242023          	sw	s2,0(s0)
    4340:	00d42223          	sw	a3,4(s0)
    4344:	0a912423          	sw	s1,168(sp)
    4348:	0ae12223          	sw	a4,164(sp)
    434c:	00840413          	add	s0,s0,8
    4350:	fceb5ee3          	bge	s6,a4,432c <_vfprintf_r+0x2934>
    4354:	00812583          	lw	a1,8(sp)
    4358:	0a010613          	add	a2,sp,160
    435c:	00098513          	mv	a0,s3
    4360:	554000ef          	jal	48b4 <__sprint_r>
    4364:	00050463          	beqz	a0,436c <_vfprintf_r+0x2974>
    4368:	b61fd06f          	j	1ec8 <_vfprintf_r+0x4d0>
    436c:	0a812483          	lw	s1,168(sp)
    4370:	0a412703          	lw	a4,164(sp)
    4374:	0ac10413          	add	s0,sp,172
    4378:	01000693          	li	a3,16
    437c:	fb1ff06f          	j	432c <_vfprintf_r+0x2934>
    4380:	00012823          	sw	zero,16(sp)
    4384:	0ec10c13          	add	s8,sp,236
    4388:	a88ff06f          	j	3610 <_vfprintf_r+0x1c18>
    438c:	00090293          	mv	t0,s2
    4390:	02012903          	lw	s2,32(sp)
    4394:	000a0e93          	mv	t4,s4
    4398:	01a484b3          	add	s1,s1,s10
    439c:	00170713          	add	a4,a4,1
    43a0:	00542023          	sw	t0,0(s0)
    43a4:	01a42223          	sw	s10,4(s0)
    43a8:	0a912423          	sw	s1,168(sp)
    43ac:	0ae12223          	sw	a4,164(sp)
    43b0:	00700693          	li	a3,7
    43b4:	00e6c463          	blt	a3,a4,43bc <_vfprintf_r+0x29c4>
    43b8:	b65fe06f          	j	2f1c <_vfprintf_r+0x1524>
    43bc:	00812583          	lw	a1,8(sp)
    43c0:	0a010613          	add	a2,sp,160
    43c4:	00098513          	mv	a0,s3
    43c8:	03d12023          	sw	t4,32(sp)
    43cc:	4e8000ef          	jal	48b4 <__sprint_r>
    43d0:	00050463          	beqz	a0,43d8 <_vfprintf_r+0x29e0>
    43d4:	af5fd06f          	j	1ec8 <_vfprintf_r+0x4d0>
    43d8:	0a812483          	lw	s1,168(sp)
    43dc:	0a412703          	lw	a4,164(sp)
    43e0:	02012e83          	lw	t4,32(sp)
    43e4:	0ac10413          	add	s0,sp,172
    43e8:	b20ff06f          	j	3708 <_vfprintf_r+0x1d10>
    43ec:	08a10693          	add	a3,sp,138
    43f0:	00061863          	bnez	a2,4400 <_vfprintf_r+0x2a08>
    43f4:	03000693          	li	a3,48
    43f8:	08d10523          	sb	a3,138(sp)
    43fc:	08b10693          	add	a3,sp,139
    4400:	15010793          	add	a5,sp,336
    4404:	40f68633          	sub	a2,a3,a5
    4408:	030d0713          	add	a4,s10,48
    440c:	0c960793          	add	a5,a2,201
    4410:	00e68023          	sb	a4,0(a3)
    4414:	04f12023          	sw	a5,64(sp)
    4418:	d5cff06f          	j	3974 <_vfprintf_r+0x1f7c>
    441c:	001ef713          	and	a4,t4,1
    4420:	d6070863          	beqz	a4,3990 <_vfprintf_r+0x1f98>
    4424:	d64ff06f          	j	3988 <_vfprintf_r+0x1f90>
    4428:	00812783          	lw	a5,8(sp)
    442c:	00000293          	li	t0,0
    4430:	00c79783          	lh	a5,12(a5)
    4434:	0407e793          	or	a5,a5,64
    4438:	00812703          	lw	a4,8(sp)
    443c:	00f71623          	sh	a5,12(a4)
    4440:	a8dfd06f          	j	1ecc <_vfprintf_r+0x4d4>
    4444:	00012823          	sw	zero,16(sp)
    4448:	00600313          	li	t1,6
    444c:	ff9fe06f          	j	3444 <_vfprintf_r+0x1a4c>
    4450:	06700e13          	li	t3,103
    4454:	03c12783          	lw	a5,60(sp)
    4458:	0ff00613          	li	a2,255
    445c:	0007c703          	lbu	a4,0(a5)
    4460:	22c70263          	beq	a4,a2,4684 <_vfprintf_r+0x2c8c>
    4464:	00000593          	li	a1,0
    4468:	00000693          	li	a3,0
    446c:	01475e63          	bge	a4,s4,4488 <_vfprintf_r+0x2a90>
    4470:	40ea0a33          	sub	s4,s4,a4
    4474:	0017c703          	lbu	a4,1(a5)
    4478:	04070863          	beqz	a4,44c8 <_vfprintf_r+0x2ad0>
    447c:	00168693          	add	a3,a3,1
    4480:	00178793          	add	a5,a5,1
    4484:	fec714e3          	bne	a4,a2,446c <_vfprintf_r+0x2a74>
    4488:	02f12e23          	sw	a5,60(sp)
    448c:	02d12023          	sw	a3,32(sp)
    4490:	02b12223          	sw	a1,36(sp)
    4494:	02012783          	lw	a5,32(sp)
    4498:	02412703          	lw	a4,36(sp)
    449c:	04c12583          	lw	a1,76(sp)
    44a0:	05c12823          	sw	t3,80(sp)
    44a4:	00e78533          	add	a0,a5,a4
    44a8:	2bc0a0ef          	jal	e764 <__mulsi3>
    44ac:	01a50d33          	add	s10,a0,s10
    44b0:	fffd4813          	not	a6,s10
    44b4:	41f85813          	sra	a6,a6,0x1f
    44b8:	05012e03          	lw	t3,80(sp)
    44bc:	010d7cb3          	and	s9,s10,a6
    44c0:	000b0e93          	mv	t4,s6
    44c4:	cecff06f          	j	39b0 <_vfprintf_r+0x1fb8>
    44c8:	0007c703          	lbu	a4,0(a5)
    44cc:	00158593          	add	a1,a1,1
    44d0:	fb5ff06f          	j	4484 <_vfprintf_r+0x2a8c>
    44d4:	03012783          	lw	a5,48(sp)
    44d8:	06600e13          	li	t3,102
    44dc:	00f306b3          	add	a3,t1,a5
    44e0:	01468d33          	add	s10,a3,s4
    44e4:	d99ff06f          	j	427c <_vfprintf_r+0x2884>
    44e8:	02c12783          	lw	a5,44(sp)
    44ec:	0a07c863          	bltz	a5,459c <_vfprintf_r+0x2ba4>
    44f0:	07714603          	lbu	a2,119(sp)
    44f4:	04700713          	li	a4,71
    44f8:	0000ac17          	auipc	s8,0xa
    44fc:	584c0c13          	add	s8,s8,1412 # ea7c <__fini_array_end+0x120>
    4500:	01c75463          	bge	a4,t3,4508 <_vfprintf_r+0x2b10>
    4504:	b31fd06f          	j	2034 <_vfprintf_r+0x63c>
    4508:	0000ac17          	auipc	s8,0xa
    450c:	570c0c13          	add	s8,s8,1392 # ea78 <__fini_array_end+0x11c>
    4510:	b25fd06f          	j	2034 <_vfprintf_r+0x63c>
    4514:	07714603          	lbu	a2,119(sp)
    4518:	01612a23          	sw	s6,20(sp)
    451c:	02012223          	sw	zero,36(sp)
    4520:	02012023          	sw	zero,32(sp)
    4524:	00030c93          	mv	s9,t1
    4528:	00030d13          	mv	s10,t1
    452c:	07300e13          	li	t3,115
    4530:	00000313          	li	t1,0
    4534:	00061463          	bnez	a2,453c <_vfprintf_r+0x2b44>
    4538:	f00fd06f          	j	1c38 <_vfprintf_r+0x240>
    453c:	b1dfd06f          	j	2058 <_vfprintf_r+0x660>
    4540:	00040313          	mv	t1,s0
    4544:	01012903          	lw	s2,16(sp)
    4548:	000b0413          	mv	s0,s6
    454c:	01412e03          	lw	t3,20(sp)
    4550:	000c0b13          	mv	s6,s8
    4554:	000a0e93          	mv	t4,s4
    4558:	000c8c13          	mv	s8,s9
    455c:	00030d13          	mv	s10,t1
    4560:	87cff06f          	j	35dc <_vfprintf_r+0x1be4>
    4564:	001b0793          	add	a5,s6,1
    4568:	000c0993          	mv	s3,s8
    456c:	02412903          	lw	s2,36(sp)
    4570:	04012e83          	lw	t4,64(sp)
    4574:	05012e03          	lw	t3,80(sp)
    4578:	05412403          	lw	s0,84(sp)
    457c:	000d0c13          	mv	s8,s10
    4580:	00f487b3          	add	a5,s1,a5
    4584:	03000693          	li	a3,48
    4588:	840b40e3          	bltz	s6,3dc8 <_vfprintf_r+0x23d0>
    458c:	00148493          	add	s1,s1,1
    4590:	fed48fa3          	sb	a3,-1(s1)
    4594:	fe979ce3          	bne	a5,s1,458c <_vfprintf_r+0x2b94>
    4598:	835ff06f          	j	3dcc <_vfprintf_r+0x23d4>
    459c:	02d00793          	li	a5,45
    45a0:	06f10ba3          	sb	a5,119(sp)
    45a4:	02d00613          	li	a2,45
    45a8:	f4dff06f          	j	44f4 <_vfprintf_r+0x2afc>
    45ac:	00100693          	li	a3,1
    45b0:	414686b3          	sub	a3,a3,s4
    45b4:	06d12e23          	sw	a3,124(sp)
    45b8:	da4ff06f          	j	3b5c <_vfprintf_r+0x2164>
    45bc:	01412783          	lw	a5,20(sp)
    45c0:	0007ab03          	lw	s6,0(a5)
    45c4:	00478793          	add	a5,a5,4
    45c8:	000b5463          	bgez	s6,45d0 <_vfprintf_r+0x2bd8>
    45cc:	fff00b13          	li	s6,-1
    45d0:	00194e03          	lbu	t3,1(s2)
    45d4:	00f12a23          	sw	a5,20(sp)
    45d8:	00068913          	mv	s2,a3
    45dc:	dccfd06f          	j	1ba8 <_vfprintf_r+0x1b0>
    45e0:	00071a63          	bnez	a4,45f4 <_vfprintf_r+0x2bfc>
    45e4:	00100c93          	li	s9,1
    45e8:	06600e13          	li	t3,102
    45ec:	00100d13          	li	s10,1
    45f0:	879ff06f          	j	3e68 <_vfprintf_r+0x2470>
    45f4:	03012783          	lw	a5,48(sp)
    45f8:	06600e13          	li	t3,102
    45fc:	00178693          	add	a3,a5,1
    4600:	00668d33          	add	s10,a3,t1
    4604:	fffd4813          	not	a6,s10
    4608:	41f85813          	sra	a6,a6,0x1f
    460c:	010d7cb3          	and	s9,s10,a6
    4610:	859ff06f          	j	3e68 <_vfprintf_r+0x2470>
    4614:	00200793          	li	a5,2
    4618:	04f12023          	sw	a5,64(sp)
    461c:	b58ff06f          	j	3974 <_vfprintf_r+0x1f7c>
    4620:	00812703          	lw	a4,8(sp)
    4624:	00c71783          	lh	a5,12(a4)
    4628:	0407e793          	or	a5,a5,64
    462c:	00f71623          	sh	a5,12(a4)
    4630:	8b5fd06f          	j	1ee4 <_vfprintf_r+0x4ec>
    4634:	000a0513          	mv	a0,s4
    4638:	000d0593          	mv	a1,s10
    463c:	00030613          	mv	a2,t1
    4640:	00038693          	mv	a3,t2
    4644:	05012023          	sw	a6,64(sp)
    4648:	03c12223          	sw	t3,36(sp)
    464c:	01d12c23          	sw	t4,24(sp)
    4650:	7b8080ef          	jal	ce08 <__eqdf2>
    4654:	01812e83          	lw	t4,24(sp)
    4658:	02412e03          	lw	t3,36(sp)
    465c:	04012803          	lw	a6,64(sp)
    4660:	f6051463          	bnez	a0,3dc8 <_vfprintf_r+0x23d0>
    4664:	001b7693          	and	a3,s6,1
    4668:	f6068063          	beqz	a3,3dc8 <_vfprintf_r+0x23d0>
    466c:	f14ff06f          	j	3d80 <_vfprintf_r+0x2388>
    4670:	00812783          	lw	a5,8(sp)
    4674:	01012283          	lw	t0,16(sp)
    4678:	00c79783          	lh	a5,12(a5)
    467c:	0407e793          	or	a5,a5,64
    4680:	db9ff06f          	j	4438 <_vfprintf_r+0x2a40>
    4684:	02012223          	sw	zero,36(sp)
    4688:	02012023          	sw	zero,32(sp)
    468c:	e09ff06f          	j	4494 <_vfprintf_r+0x2a9c>
    4690:	04500d13          	li	s10,69
    4694:	cccff06f          	j	3b60 <_vfprintf_r+0x2168>

00004698 <__sbprintf>:
    4698:	b7010113          	add	sp,sp,-1168
    469c:	00c59783          	lh	a5,12(a1)
    46a0:	00e5d703          	lhu	a4,14(a1)
    46a4:	48812423          	sw	s0,1160(sp)
    46a8:	00058413          	mv	s0,a1
    46ac:	000105b7          	lui	a1,0x10
    46b0:	ffd58593          	add	a1,a1,-3 # fffd <__crt0_copy_data_src_begin+0xcad>
    46b4:	06442303          	lw	t1,100(s0)
    46b8:	01c42883          	lw	a7,28(s0)
    46bc:	02442803          	lw	a6,36(s0)
    46c0:	01071713          	sll	a4,a4,0x10
    46c4:	00b7f7b3          	and	a5,a5,a1
    46c8:	00e7e7b3          	or	a5,a5,a4
    46cc:	40000593          	li	a1,1024
    46d0:	49212023          	sw	s2,1152(sp)
    46d4:	00f12a23          	sw	a5,20(sp)
    46d8:	00050913          	mv	s2,a0
    46dc:	07010793          	add	a5,sp,112
    46e0:	06010513          	add	a0,sp,96
    46e4:	48112623          	sw	ra,1164(sp)
    46e8:	48912223          	sw	s1,1156(sp)
    46ec:	47312e23          	sw	s3,1148(sp)
    46f0:	00060493          	mv	s1,a2
    46f4:	00068993          	mv	s3,a3
    46f8:	06612623          	sw	t1,108(sp)
    46fc:	03112223          	sw	a7,36(sp)
    4700:	03012623          	sw	a6,44(sp)
    4704:	00f12423          	sw	a5,8(sp)
    4708:	00f12c23          	sw	a5,24(sp)
    470c:	00b12823          	sw	a1,16(sp)
    4710:	00b12e23          	sw	a1,28(sp)
    4714:	02012023          	sw	zero,32(sp)
    4718:	635020ef          	jal	754c <__retarget_lock_init_recursive>
    471c:	00048613          	mv	a2,s1
    4720:	00098693          	mv	a3,s3
    4724:	00810593          	add	a1,sp,8
    4728:	00090513          	mv	a0,s2
    472c:	accfd0ef          	jal	19f8 <_vfprintf_r>
    4730:	00050493          	mv	s1,a0
    4734:	04055263          	bgez	a0,4778 <__sbprintf+0xe0>
    4738:	01415783          	lhu	a5,20(sp)
    473c:	0407f793          	and	a5,a5,64
    4740:	00078863          	beqz	a5,4750 <__sbprintf+0xb8>
    4744:	00c45783          	lhu	a5,12(s0)
    4748:	0407e793          	or	a5,a5,64
    474c:	00f41623          	sh	a5,12(s0)
    4750:	06012503          	lw	a0,96(sp)
    4754:	5fd020ef          	jal	7550 <__retarget_lock_close_recursive>
    4758:	48c12083          	lw	ra,1164(sp)
    475c:	48812403          	lw	s0,1160(sp)
    4760:	48012903          	lw	s2,1152(sp)
    4764:	47c12983          	lw	s3,1148(sp)
    4768:	00048513          	mv	a0,s1
    476c:	48412483          	lw	s1,1156(sp)
    4770:	49010113          	add	sp,sp,1168
    4774:	00008067          	ret
    4778:	00810593          	add	a1,sp,8
    477c:	00090513          	mv	a0,s2
    4780:	449010ef          	jal	63c8 <_fflush_r>
    4784:	fa050ae3          	beqz	a0,4738 <__sbprintf+0xa0>
    4788:	fff00493          	li	s1,-1
    478c:	fadff06f          	j	4738 <__sbprintf+0xa0>

00004790 <__sprint_r.part.0>:
    4790:	0645a783          	lw	a5,100(a1)
    4794:	fd010113          	add	sp,sp,-48
    4798:	01612823          	sw	s6,16(sp)
    479c:	02112623          	sw	ra,44(sp)
    47a0:	01279713          	sll	a4,a5,0x12
    47a4:	00060b13          	mv	s6,a2
    47a8:	0e075863          	bgez	a4,4898 <__sprint_r.part.0+0x108>
    47ac:	00862783          	lw	a5,8(a2)
    47b0:	03212023          	sw	s2,32(sp)
    47b4:	01312e23          	sw	s3,28(sp)
    47b8:	01512a23          	sw	s5,20(sp)
    47bc:	01712623          	sw	s7,12(sp)
    47c0:	00058913          	mv	s2,a1
    47c4:	00062b83          	lw	s7,0(a2)
    47c8:	00050993          	mv	s3,a0
    47cc:	fff00a93          	li	s5,-1
    47d0:	0a078863          	beqz	a5,4880 <__sprint_r.part.0+0xf0>
    47d4:	02812423          	sw	s0,40(sp)
    47d8:	02912223          	sw	s1,36(sp)
    47dc:	01412c23          	sw	s4,24(sp)
    47e0:	01812423          	sw	s8,8(sp)
    47e4:	004bac03          	lw	s8,4(s7)
    47e8:	000ba403          	lw	s0,0(s7)
    47ec:	002c5a13          	srl	s4,s8,0x2
    47f0:	060a0663          	beqz	s4,485c <__sprint_r.part.0+0xcc>
    47f4:	00000493          	li	s1,0
    47f8:	00c0006f          	j	4804 <__sprint_r.part.0+0x74>
    47fc:	00440413          	add	s0,s0,4
    4800:	049a0c63          	beq	s4,s1,4858 <__sprint_r.part.0+0xc8>
    4804:	00042583          	lw	a1,0(s0)
    4808:	00090613          	mv	a2,s2
    480c:	00098513          	mv	a0,s3
    4810:	10d020ef          	jal	711c <_fputwc_r>
    4814:	00148493          	add	s1,s1,1
    4818:	ff5512e3          	bne	a0,s5,47fc <__sprint_r.part.0+0x6c>
    481c:	02812403          	lw	s0,40(sp)
    4820:	02412483          	lw	s1,36(sp)
    4824:	02012903          	lw	s2,32(sp)
    4828:	01c12983          	lw	s3,28(sp)
    482c:	01812a03          	lw	s4,24(sp)
    4830:	01412a83          	lw	s5,20(sp)
    4834:	00c12b83          	lw	s7,12(sp)
    4838:	00812c03          	lw	s8,8(sp)
    483c:	fff00513          	li	a0,-1
    4840:	02c12083          	lw	ra,44(sp)
    4844:	000b2423          	sw	zero,8(s6)
    4848:	000b2223          	sw	zero,4(s6)
    484c:	01012b03          	lw	s6,16(sp)
    4850:	03010113          	add	sp,sp,48
    4854:	00008067          	ret
    4858:	008b2783          	lw	a5,8(s6)
    485c:	ffcc7c13          	and	s8,s8,-4
    4860:	418787b3          	sub	a5,a5,s8
    4864:	00fb2423          	sw	a5,8(s6)
    4868:	008b8b93          	add	s7,s7,8
    486c:	f6079ce3          	bnez	a5,47e4 <__sprint_r.part.0+0x54>
    4870:	02812403          	lw	s0,40(sp)
    4874:	02412483          	lw	s1,36(sp)
    4878:	01812a03          	lw	s4,24(sp)
    487c:	00812c03          	lw	s8,8(sp)
    4880:	02012903          	lw	s2,32(sp)
    4884:	01c12983          	lw	s3,28(sp)
    4888:	01412a83          	lw	s5,20(sp)
    488c:	00c12b83          	lw	s7,12(sp)
    4890:	00000513          	li	a0,0
    4894:	fadff06f          	j	4840 <__sprint_r.part.0+0xb0>
    4898:	6b5010ef          	jal	674c <__sfvwrite_r>
    489c:	02c12083          	lw	ra,44(sp)
    48a0:	000b2423          	sw	zero,8(s6)
    48a4:	000b2223          	sw	zero,4(s6)
    48a8:	01012b03          	lw	s6,16(sp)
    48ac:	03010113          	add	sp,sp,48
    48b0:	00008067          	ret

000048b4 <__sprint_r>:
    48b4:	00862703          	lw	a4,8(a2)
    48b8:	00070463          	beqz	a4,48c0 <__sprint_r+0xc>
    48bc:	ed5ff06f          	j	4790 <__sprint_r.part.0>
    48c0:	00062223          	sw	zero,4(a2)
    48c4:	00000513          	li	a0,0
    48c8:	00008067          	ret

000048cc <_vfiprintf_r>:
    48cc:	eb010113          	add	sp,sp,-336
    48d0:	14812423          	sw	s0,328(sp)
    48d4:	13312e23          	sw	s3,316(sp)
    48d8:	13812423          	sw	s8,296(sp)
    48dc:	00050413          	mv	s0,a0
    48e0:	00058993          	mv	s3,a1
    48e4:	00060c13          	mv	s8,a2
    48e8:	00000593          	li	a1,0
    48ec:	00800613          	li	a2,8
    48f0:	05010513          	add	a0,sp,80
    48f4:	13512a23          	sw	s5,308(sp)
    48f8:	14112623          	sw	ra,332(sp)
    48fc:	00068a93          	mv	s5,a3
    4900:	9a4fc0ef          	jal	aa4 <memset>
    4904:	00040863          	beqz	s0,4914 <_vfiprintf_r+0x48>
    4908:	03442783          	lw	a5,52(s0)
    490c:	00079463          	bnez	a5,4914 <_vfiprintf_r+0x48>
    4910:	49c0106f          	j	5dac <_vfiprintf_r+0x14e0>
    4914:	0649a703          	lw	a4,100(s3)
    4918:	00c99783          	lh	a5,12(s3)
    491c:	00177713          	and	a4,a4,1
    4920:	00071863          	bnez	a4,4930 <_vfiprintf_r+0x64>
    4924:	2007f713          	and	a4,a5,512
    4928:	00071463          	bnez	a4,4930 <_vfiprintf_r+0x64>
    492c:	0b80106f          	j	59e4 <_vfiprintf_r+0x1118>
    4930:	01279713          	sll	a4,a5,0x12
    4934:	02074663          	bltz	a4,4960 <_vfiprintf_r+0x94>
    4938:	0649a703          	lw	a4,100(s3)
    493c:	00002637          	lui	a2,0x2
    4940:	ffffe6b7          	lui	a3,0xffffe
    4944:	00c7e7b3          	or	a5,a5,a2
    4948:	fff68693          	add	a3,a3,-1 # ffffdfff <__crt0_ram_last+0x7ff7e000>
    494c:	01079793          	sll	a5,a5,0x10
    4950:	4107d793          	sra	a5,a5,0x10
    4954:	00d77733          	and	a4,a4,a3
    4958:	00f99623          	sh	a5,12(s3)
    495c:	06e9a223          	sw	a4,100(s3)
    4960:	0087f713          	and	a4,a5,8
    4964:	2e070463          	beqz	a4,4c4c <_vfiprintf_r+0x380>
    4968:	0109a703          	lw	a4,16(s3)
    496c:	2e070063          	beqz	a4,4c4c <_vfiprintf_r+0x380>
    4970:	01a7f713          	and	a4,a5,26
    4974:	00a00693          	li	a3,10
    4978:	2ed70c63          	beq	a4,a3,4c70 <_vfiprintf_r+0x3a4>
    497c:	13412c23          	sw	s4,312(sp)
    4980:	06c10a13          	add	s4,sp,108
    4984:	14912223          	sw	s1,324(sp)
    4988:	15212023          	sw	s2,320(sp)
    498c:	13612823          	sw	s6,304(sp)
    4990:	13712623          	sw	s7,300(sp)
    4994:	13912223          	sw	s9,292(sp)
    4998:	13a12023          	sw	s10,288(sp)
    499c:	000c0c93          	mv	s9,s8
    49a0:	11b12e23          	sw	s11,284(sp)
    49a4:	07412023          	sw	s4,96(sp)
    49a8:	06012423          	sw	zero,104(sp)
    49ac:	06012223          	sw	zero,100(sp)
    49b0:	00012a23          	sw	zero,20(sp)
    49b4:	02012623          	sw	zero,44(sp)
    49b8:	02012823          	sw	zero,48(sp)
    49bc:	02012a23          	sw	zero,52(sp)
    49c0:	00012623          	sw	zero,12(sp)
    49c4:	7fffc497          	auipc	s1,0x7fffc
    49c8:	b7048493          	add	s1,s1,-1168 # 80000534 <__global_locale>
    49cc:	02500913          	li	s2,37
    49d0:	0000ab97          	auipc	s7,0xa
    49d4:	5b8b8b93          	add	s7,s7,1464 # ef88 <blanks.1+0x10>
    49d8:	0000ab17          	auipc	s6,0xa
    49dc:	71cb0b13          	add	s6,s6,1820 # f0f4 <zeroes.0>
    49e0:	000a0c13          	mv	s8,s4
    49e4:	000c8d93          	mv	s11,s9
    49e8:	0e44ad03          	lw	s10,228(s1)
    49ec:	16d020ef          	jal	7358 <__locale_mb_cur_max>
    49f0:	00050693          	mv	a3,a0
    49f4:	05010713          	add	a4,sp,80
    49f8:	000d8613          	mv	a2,s11
    49fc:	04810593          	add	a1,sp,72
    4a00:	00040513          	mv	a0,s0
    4a04:	000d00e7          	jalr	s10
    4a08:	2e050e63          	beqz	a0,4d04 <_vfiprintf_r+0x438>
    4a0c:	2c054e63          	bltz	a0,4ce8 <_vfiprintf_r+0x41c>
    4a10:	04812783          	lw	a5,72(sp)
    4a14:	01278663          	beq	a5,s2,4a20 <_vfiprintf_r+0x154>
    4a18:	00ad8db3          	add	s11,s11,a0
    4a1c:	fcdff06f          	j	49e8 <_vfiprintf_r+0x11c>
    4a20:	00050d13          	mv	s10,a0
    4a24:	419d87b3          	sub	a5,s11,s9
    4a28:	2f9d9463          	bne	s11,s9,4d10 <_vfiprintf_r+0x444>
    4a2c:	00000e13          	li	t3,0
    4a30:	001dc683          	lbu	a3,1(s11)
    4a34:	001d8c93          	add	s9,s11,1
    4a38:	040101a3          	sb	zero,67(sp)
    4a3c:	fff00713          	li	a4,-1
    4a40:	00000893          	li	a7,0
    4a44:	05a00d13          	li	s10,90
    4a48:	000e0d93          	mv	s11,t3
    4a4c:	001c8c93          	add	s9,s9,1
    4a50:	fe068793          	add	a5,a3,-32
    4a54:	04fd6663          	bltu	s10,a5,4aa0 <_vfiprintf_r+0x1d4>
    4a58:	00279793          	sll	a5,a5,0x2
    4a5c:	017787b3          	add	a5,a5,s7
    4a60:	0007a783          	lw	a5,0(a5)
    4a64:	017787b3          	add	a5,a5,s7
    4a68:	00078067          	jr	a5
    4a6c:	00000893          	li	a7,0
    4a70:	fd068793          	add	a5,a3,-48
    4a74:	00900593          	li	a1,9
    4a78:	000cc683          	lbu	a3,0(s9)
    4a7c:	00289613          	sll	a2,a7,0x2
    4a80:	011608b3          	add	a7,a2,a7
    4a84:	00189893          	sll	a7,a7,0x1
    4a88:	011788b3          	add	a7,a5,a7
    4a8c:	fd068793          	add	a5,a3,-48
    4a90:	001c8c93          	add	s9,s9,1
    4a94:	fef5f2e3          	bgeu	a1,a5,4a78 <_vfiprintf_r+0x1ac>
    4a98:	fe068793          	add	a5,a3,-32
    4a9c:	fafd7ee3          	bgeu	s10,a5,4a58 <_vfiprintf_r+0x18c>
    4aa0:	000d8e13          	mv	t3,s11
    4aa4:	2c068663          	beqz	a3,4d70 <_vfiprintf_r+0x4a4>
    4aa8:	0ad10623          	sb	a3,172(sp)
    4aac:	040101a3          	sb	zero,67(sp)
    4ab0:	00100e93          	li	t4,1
    4ab4:	00100d13          	li	s10,1
    4ab8:	0ac10813          	add	a6,sp,172
    4abc:	00012823          	sw	zero,16(sp)
    4ac0:	00000713          	li	a4,0
    4ac4:	00000f93          	li	t6,0
    4ac8:	06412603          	lw	a2,100(sp)
    4acc:	084e7293          	and	t0,t3,132
    4ad0:	06812783          	lw	a5,104(sp)
    4ad4:	00160593          	add	a1,a2,1 # 2001 <_vfprintf_r+0x609>
    4ad8:	00058f13          	mv	t5,a1
    4adc:	00029663          	bnez	t0,4ae8 <_vfiprintf_r+0x21c>
    4ae0:	41d88db3          	sub	s11,a7,t4
    4ae4:	47b046e3          	bgtz	s11,5750 <_vfiprintf_r+0xe84>
    4ae8:	04314583          	lbu	a1,67(sp)
    4aec:	02058a63          	beqz	a1,4b20 <_vfiprintf_r+0x254>
    4af0:	04310613          	add	a2,sp,67
    4af4:	00178793          	add	a5,a5,1
    4af8:	00100693          	li	a3,1
    4afc:	00cc2023          	sw	a2,0(s8)
    4b00:	00dc2223          	sw	a3,4(s8)
    4b04:	06f12423          	sw	a5,104(sp)
    4b08:	07e12223          	sw	t5,100(sp)
    4b0c:	00700613          	li	a2,7
    4b10:	35e64ce3          	blt	a2,t5,5668 <_vfiprintf_r+0xd9c>
    4b14:	000f0613          	mv	a2,t5
    4b18:	008c0c13          	add	s8,s8,8
    4b1c:	001f0f13          	add	t5,t5,1
    4b20:	080f8063          	beqz	t6,4ba0 <_vfiprintf_r+0x2d4>
    4b24:	00200613          	li	a2,2
    4b28:	00278793          	add	a5,a5,2
    4b2c:	04410693          	add	a3,sp,68
    4b30:	00cc2223          	sw	a2,4(s8)
    4b34:	00dc2023          	sw	a3,0(s8)
    4b38:	06f12423          	sw	a5,104(sp)
    4b3c:	07e12223          	sw	t5,100(sp)
    4b40:	00700613          	li	a2,7
    4b44:	3be652e3          	bge	a2,t5,56e8 <_vfiprintf_r+0xe1c>
    4b48:	60078ae3          	beqz	a5,595c <_vfiprintf_r+0x1090>
    4b4c:	06010613          	add	a2,sp,96
    4b50:	00098593          	mv	a1,s3
    4b54:	00040513          	mv	a0,s0
    4b58:	03d12c23          	sw	t4,56(sp)
    4b5c:	02e12423          	sw	a4,40(sp)
    4b60:	03112223          	sw	a7,36(sp)
    4b64:	03012023          	sw	a6,32(sp)
    4b68:	00512e23          	sw	t0,28(sp)
    4b6c:	01c12c23          	sw	t3,24(sp)
    4b70:	c21ff0ef          	jal	4790 <__sprint_r.part.0>
    4b74:	22051463          	bnez	a0,4d9c <_vfiprintf_r+0x4d0>
    4b78:	06412603          	lw	a2,100(sp)
    4b7c:	06812783          	lw	a5,104(sp)
    4b80:	03812e83          	lw	t4,56(sp)
    4b84:	02812703          	lw	a4,40(sp)
    4b88:	02412883          	lw	a7,36(sp)
    4b8c:	02012803          	lw	a6,32(sp)
    4b90:	01c12283          	lw	t0,28(sp)
    4b94:	01812e03          	lw	t3,24(sp)
    4b98:	000a0c13          	mv	s8,s4
    4b9c:	00160f13          	add	t5,a2,1
    4ba0:	08000593          	li	a1,128
    4ba4:	06b286e3          	beq	t0,a1,5410 <_vfiprintf_r+0xb44>
    4ba8:	41a70733          	sub	a4,a4,s10
    4bac:	1ae04ae3          	bgtz	a4,5560 <_vfiprintf_r+0xc94>
    4bb0:	00fd07b3          	add	a5,s10,a5
    4bb4:	010c2023          	sw	a6,0(s8)
    4bb8:	01ac2223          	sw	s10,4(s8)
    4bbc:	06f12423          	sw	a5,104(sp)
    4bc0:	07e12223          	sw	t5,100(sp)
    4bc4:	00700713          	li	a4,7
    4bc8:	03e758e3          	bge	a4,t5,53f8 <_vfiprintf_r+0xb2c>
    4bcc:	24078063          	beqz	a5,4e0c <_vfiprintf_r+0x540>
    4bd0:	06010613          	add	a2,sp,96
    4bd4:	00098593          	mv	a1,s3
    4bd8:	00040513          	mv	a0,s0
    4bdc:	03d12023          	sw	t4,32(sp)
    4be0:	01112e23          	sw	a7,28(sp)
    4be4:	01c12c23          	sw	t3,24(sp)
    4be8:	ba9ff0ef          	jal	4790 <__sprint_r.part.0>
    4bec:	1a051863          	bnez	a0,4d9c <_vfiprintf_r+0x4d0>
    4bf0:	06812783          	lw	a5,104(sp)
    4bf4:	02012e83          	lw	t4,32(sp)
    4bf8:	01c12883          	lw	a7,28(sp)
    4bfc:	01812e03          	lw	t3,24(sp)
    4c00:	000a0c13          	mv	s8,s4
    4c04:	004e7e13          	and	t3,t3,4
    4c08:	000e0663          	beqz	t3,4c14 <_vfiprintf_r+0x348>
    4c0c:	41d88db3          	sub	s11,a7,t4
    4c10:	21b04a63          	bgtz	s11,4e24 <_vfiprintf_r+0x558>
    4c14:	01d8d463          	bge	a7,t4,4c1c <_vfiprintf_r+0x350>
    4c18:	000e8893          	mv	a7,t4
    4c1c:	00c12703          	lw	a4,12(sp)
    4c20:	01170733          	add	a4,a4,a7
    4c24:	00e12623          	sw	a4,12(sp)
    4c28:	16079063          	bnez	a5,4d88 <_vfiprintf_r+0x4bc>
    4c2c:	01012783          	lw	a5,16(sp)
    4c30:	06012223          	sw	zero,100(sp)
    4c34:	00078863          	beqz	a5,4c44 <_vfiprintf_r+0x378>
    4c38:	00078593          	mv	a1,a5
    4c3c:	00040513          	mv	a0,s0
    4c40:	ab4fc0ef          	jal	ef4 <_free_r>
    4c44:	000a0c13          	mv	s8,s4
    4c48:	d9dff06f          	j	49e4 <_vfiprintf_r+0x118>
    4c4c:	00098593          	mv	a1,s3
    4c50:	00040513          	mv	a0,s0
    4c54:	224020ef          	jal	6e78 <__swsetup_r>
    4c58:	00050463          	beqz	a0,4c60 <_vfiprintf_r+0x394>
    4c5c:	3840106f          	j	5fe0 <_vfiprintf_r+0x1714>
    4c60:	00c99783          	lh	a5,12(s3)
    4c64:	00a00693          	li	a3,10
    4c68:	01a7f713          	and	a4,a5,26
    4c6c:	d0d718e3          	bne	a4,a3,497c <_vfiprintf_r+0xb0>
    4c70:	00e99703          	lh	a4,14(s3)
    4c74:	d00744e3          	bltz	a4,497c <_vfiprintf_r+0xb0>
    4c78:	0649a703          	lw	a4,100(s3)
    4c7c:	00177713          	and	a4,a4,1
    4c80:	00071863          	bnez	a4,4c90 <_vfiprintf_r+0x3c4>
    4c84:	2007f793          	and	a5,a5,512
    4c88:	00079463          	bnez	a5,4c90 <_vfiprintf_r+0x3c4>
    4c8c:	2ac0106f          	j	5f38 <_vfiprintf_r+0x166c>
    4c90:	000a8693          	mv	a3,s5
    4c94:	000c0613          	mv	a2,s8
    4c98:	00098593          	mv	a1,s3
    4c9c:	00040513          	mv	a0,s0
    4ca0:	3e4010ef          	jal	6084 <__sbprintf>
    4ca4:	14c12083          	lw	ra,332(sp)
    4ca8:	14812403          	lw	s0,328(sp)
    4cac:	00a12623          	sw	a0,12(sp)
    4cb0:	00c12503          	lw	a0,12(sp)
    4cb4:	13c12983          	lw	s3,316(sp)
    4cb8:	13412a83          	lw	s5,308(sp)
    4cbc:	12812c03          	lw	s8,296(sp)
    4cc0:	15010113          	add	sp,sp,336
    4cc4:	00008067          	ret
    4cc8:	000aa883          	lw	a7,0(s5)
    4ccc:	004a8a93          	add	s5,s5,4
    4cd0:	3608cc63          	bltz	a7,5048 <_vfiprintf_r+0x77c>
    4cd4:	000cc683          	lbu	a3,0(s9)
    4cd8:	d75ff06f          	j	4a4c <_vfiprintf_r+0x180>
    4cdc:	000cc683          	lbu	a3,0(s9)
    4ce0:	020ded93          	or	s11,s11,32
    4ce4:	d69ff06f          	j	4a4c <_vfiprintf_r+0x180>
    4ce8:	00800613          	li	a2,8
    4cec:	00000593          	li	a1,0
    4cf0:	05010513          	add	a0,sp,80
    4cf4:	db1fb0ef          	jal	aa4 <memset>
    4cf8:	00100513          	li	a0,1
    4cfc:	00ad8db3          	add	s11,s11,a0
    4d00:	ce9ff06f          	j	49e8 <_vfiprintf_r+0x11c>
    4d04:	00050d13          	mv	s10,a0
    4d08:	419d87b3          	sub	a5,s11,s9
    4d0c:	079d8263          	beq	s11,s9,4d70 <_vfiprintf_r+0x4a4>
    4d10:	06812683          	lw	a3,104(sp)
    4d14:	06412703          	lw	a4,100(sp)
    4d18:	019c2023          	sw	s9,0(s8)
    4d1c:	00d786b3          	add	a3,a5,a3
    4d20:	00170713          	add	a4,a4,1
    4d24:	00fc2223          	sw	a5,4(s8)
    4d28:	06d12423          	sw	a3,104(sp)
    4d2c:	06e12223          	sw	a4,100(sp)
    4d30:	00700613          	li	a2,7
    4d34:	008c0c13          	add	s8,s8,8
    4d38:	02e65463          	bge	a2,a4,4d60 <_vfiprintf_r+0x494>
    4d3c:	38068ce3          	beqz	a3,58d4 <_vfiprintf_r+0x1008>
    4d40:	06010613          	add	a2,sp,96
    4d44:	00098593          	mv	a1,s3
    4d48:	00040513          	mv	a0,s0
    4d4c:	00f12823          	sw	a5,16(sp)
    4d50:	a41ff0ef          	jal	4790 <__sprint_r.part.0>
    4d54:	01012783          	lw	a5,16(sp)
    4d58:	04051c63          	bnez	a0,4db0 <_vfiprintf_r+0x4e4>
    4d5c:	000a0c13          	mv	s8,s4
    4d60:	00c12703          	lw	a4,12(sp)
    4d64:	00f707b3          	add	a5,a4,a5
    4d68:	00f12623          	sw	a5,12(sp)
    4d6c:	cc0d10e3          	bnez	s10,4a2c <_vfiprintf_r+0x160>
    4d70:	06812783          	lw	a5,104(sp)
    4d74:	00078463          	beqz	a5,4d7c <_vfiprintf_r+0x4b0>
    4d78:	22c0106f          	j	5fa4 <_vfiprintf_r+0x16d8>
    4d7c:	00c99783          	lh	a5,12(s3)
    4d80:	06012223          	sw	zero,100(sp)
    4d84:	0300006f          	j	4db4 <_vfiprintf_r+0x4e8>
    4d88:	06010613          	add	a2,sp,96
    4d8c:	00098593          	mv	a1,s3
    4d90:	00040513          	mv	a0,s0
    4d94:	9fdff0ef          	jal	4790 <__sprint_r.part.0>
    4d98:	e8050ae3          	beqz	a0,4c2c <_vfiprintf_r+0x360>
    4d9c:	01012783          	lw	a5,16(sp)
    4da0:	00078863          	beqz	a5,4db0 <_vfiprintf_r+0x4e4>
    4da4:	01012583          	lw	a1,16(sp)
    4da8:	00040513          	mv	a0,s0
    4dac:	948fc0ef          	jal	ef4 <_free_r>
    4db0:	00c99783          	lh	a5,12(s3)
    4db4:	0649a703          	lw	a4,100(s3)
    4db8:	00177713          	and	a4,a4,1
    4dbc:	16070a63          	beqz	a4,4f30 <_vfiprintf_r+0x664>
    4dc0:	0407f793          	and	a5,a5,64
    4dc4:	14412483          	lw	s1,324(sp)
    4dc8:	14012903          	lw	s2,320(sp)
    4dcc:	13812a03          	lw	s4,312(sp)
    4dd0:	13012b03          	lw	s6,304(sp)
    4dd4:	12c12b83          	lw	s7,300(sp)
    4dd8:	12412c83          	lw	s9,292(sp)
    4ddc:	12012d03          	lw	s10,288(sp)
    4de0:	11c12d83          	lw	s11,284(sp)
    4de4:	00078463          	beqz	a5,4dec <_vfiprintf_r+0x520>
    4de8:	2180106f          	j	6000 <_vfiprintf_r+0x1734>
    4dec:	14c12083          	lw	ra,332(sp)
    4df0:	14812403          	lw	s0,328(sp)
    4df4:	00c12503          	lw	a0,12(sp)
    4df8:	13c12983          	lw	s3,316(sp)
    4dfc:	13412a83          	lw	s5,308(sp)
    4e00:	12812c03          	lw	s8,296(sp)
    4e04:	15010113          	add	sp,sp,336
    4e08:	00008067          	ret
    4e0c:	06012223          	sw	zero,100(sp)
    4e10:	004e7e13          	and	t3,t3,4
    4e14:	240e0ee3          	beqz	t3,5870 <_vfiprintf_r+0xfa4>
    4e18:	41d88db3          	sub	s11,a7,t4
    4e1c:	25b05ae3          	blez	s11,5870 <_vfiprintf_r+0xfa4>
    4e20:	000a0c13          	mv	s8,s4
    4e24:	01000713          	li	a4,16
    4e28:	06412683          	lw	a3,100(sp)
    4e2c:	01b74463          	blt	a4,s11,4e34 <_vfiprintf_r+0x568>
    4e30:	1900106f          	j	5fc0 <_vfiprintf_r+0x16f4>
    4e34:	000a8713          	mv	a4,s5
    4e38:	0000a317          	auipc	t1,0xa
    4e3c:	2cc30313          	add	t1,t1,716 # f104 <blanks.1>
    4e40:	000c0593          	mv	a1,s8
    4e44:	000d8a93          	mv	s5,s11
    4e48:	01000813          	li	a6,16
    4e4c:	00700d13          	li	s10,7
    4e50:	01112c23          	sw	a7,24(sp)
    4e54:	01d12e23          	sw	t4,28(sp)
    4e58:	00030c13          	mv	s8,t1
    4e5c:	00070d93          	mv	s11,a4
    4e60:	0180006f          	j	4e78 <_vfiprintf_r+0x5ac>
    4e64:	00268613          	add	a2,a3,2
    4e68:	00858593          	add	a1,a1,8
    4e6c:	00070693          	mv	a3,a4
    4e70:	ff0a8a93          	add	s5,s5,-16
    4e74:	05585a63          	bge	a6,s5,4ec8 <_vfiprintf_r+0x5fc>
    4e78:	01078793          	add	a5,a5,16
    4e7c:	00168713          	add	a4,a3,1
    4e80:	0185a023          	sw	s8,0(a1)
    4e84:	0105a223          	sw	a6,4(a1)
    4e88:	06f12423          	sw	a5,104(sp)
    4e8c:	06e12223          	sw	a4,100(sp)
    4e90:	fced5ae3          	bge	s10,a4,4e64 <_vfiprintf_r+0x598>
    4e94:	56078663          	beqz	a5,5400 <_vfiprintf_r+0xb34>
    4e98:	06010613          	add	a2,sp,96
    4e9c:	00098593          	mv	a1,s3
    4ea0:	00040513          	mv	a0,s0
    4ea4:	8edff0ef          	jal	4790 <__sprint_r.part.0>
    4ea8:	ee051ae3          	bnez	a0,4d9c <_vfiprintf_r+0x4d0>
    4eac:	06412683          	lw	a3,100(sp)
    4eb0:	01000813          	li	a6,16
    4eb4:	ff0a8a93          	add	s5,s5,-16
    4eb8:	06812783          	lw	a5,104(sp)
    4ebc:	000a0593          	mv	a1,s4
    4ec0:	00168613          	add	a2,a3,1
    4ec4:	fb584ae3          	blt	a6,s5,4e78 <_vfiprintf_r+0x5ac>
    4ec8:	01812883          	lw	a7,24(sp)
    4ecc:	01c12e83          	lw	t4,28(sp)
    4ed0:	000d8713          	mv	a4,s11
    4ed4:	000c0313          	mv	t1,s8
    4ed8:	000a8d93          	mv	s11,s5
    4edc:	00058c13          	mv	s8,a1
    4ee0:	00070a93          	mv	s5,a4
    4ee4:	01b787b3          	add	a5,a5,s11
    4ee8:	006c2023          	sw	t1,0(s8)
    4eec:	01bc2223          	sw	s11,4(s8)
    4ef0:	06f12423          	sw	a5,104(sp)
    4ef4:	06c12223          	sw	a2,100(sp)
    4ef8:	00700713          	li	a4,7
    4efc:	d0c75ce3          	bge	a4,a2,4c14 <_vfiprintf_r+0x348>
    4f00:	160788e3          	beqz	a5,5870 <_vfiprintf_r+0xfa4>
    4f04:	06010613          	add	a2,sp,96
    4f08:	00098593          	mv	a1,s3
    4f0c:	00040513          	mv	a0,s0
    4f10:	01d12e23          	sw	t4,28(sp)
    4f14:	01112c23          	sw	a7,24(sp)
    4f18:	879ff0ef          	jal	4790 <__sprint_r.part.0>
    4f1c:	e80510e3          	bnez	a0,4d9c <_vfiprintf_r+0x4d0>
    4f20:	06812783          	lw	a5,104(sp)
    4f24:	01c12e83          	lw	t4,28(sp)
    4f28:	01812883          	lw	a7,24(sp)
    4f2c:	ce9ff06f          	j	4c14 <_vfiprintf_r+0x348>
    4f30:	2007f713          	and	a4,a5,512
    4f34:	e80716e3          	bnez	a4,4dc0 <_vfiprintf_r+0x4f4>
    4f38:	0589a503          	lw	a0,88(s3)
    4f3c:	61c020ef          	jal	7558 <__retarget_lock_release_recursive>
    4f40:	00c99783          	lh	a5,12(s3)
    4f44:	e7dff06f          	j	4dc0 <_vfiprintf_r+0x4f4>
    4f48:	000aa803          	lw	a6,0(s5)
    4f4c:	040101a3          	sb	zero,67(sp)
    4f50:	000d8e13          	mv	t3,s11
    4f54:	004a8a93          	add	s5,s5,4
    4f58:	68080ae3          	beqz	a6,5dec <_vfiprintf_r+0x1520>
    4f5c:	05300793          	li	a5,83
    4f60:	3cf68ce3          	beq	a3,a5,5b38 <_vfiprintf_r+0x126c>
    4f64:	010df793          	and	a5,s11,16
    4f68:	3c0798e3          	bnez	a5,5b38 <_vfiprintf_r+0x126c>
    4f6c:	00075463          	bgez	a4,4f74 <_vfiprintf_r+0x6a8>
    4f70:	7fd0006f          	j	5f6c <_vfiprintf_r+0x16a0>
    4f74:	00070613          	mv	a2,a4
    4f78:	00080513          	mv	a0,a6
    4f7c:	00000593          	li	a1,0
    4f80:	03112223          	sw	a7,36(sp)
    4f84:	00e12e23          	sw	a4,28(sp)
    4f88:	01012c23          	sw	a6,24(sp)
    4f8c:	03b12023          	sw	s11,32(sp)
    4f90:	258020ef          	jal	71e8 <memchr>
    4f94:	00a12823          	sw	a0,16(sp)
    4f98:	01812803          	lw	a6,24(sp)
    4f9c:	01c12703          	lw	a4,28(sp)
    4fa0:	02012e03          	lw	t3,32(sp)
    4fa4:	02412883          	lw	a7,36(sp)
    4fa8:	00051463          	bnez	a0,4fb0 <_vfiprintf_r+0x6e4>
    4fac:	7990006f          	j	5f44 <_vfiprintf_r+0x1678>
    4fb0:	41050d33          	sub	s10,a0,a6
    4fb4:	fffd4e93          	not	t4,s10
    4fb8:	41fede93          	sra	t4,t4,0x1f
    4fbc:	01dd7eb3          	and	t4,s10,t4
    4fc0:	00012823          	sw	zero,16(sp)
    4fc4:	6dd0006f          	j	5ea0 <_vfiprintf_r+0x15d4>
    4fc8:	04300793          	li	a5,67
    4fcc:	000d8e13          	mv	t3,s11
    4fd0:	004a8d93          	add	s11,s5,4
    4fd4:	00f68663          	beq	a3,a5,4fe0 <_vfiprintf_r+0x714>
    4fd8:	010e7793          	and	a5,t3,16
    4fdc:	280788e3          	beqz	a5,5a6c <_vfiprintf_r+0x11a0>
    4fe0:	00800613          	li	a2,8
    4fe4:	00000593          	li	a1,0
    4fe8:	05810513          	add	a0,sp,88
    4fec:	01112e23          	sw	a7,28(sp)
    4ff0:	01c12c23          	sw	t3,24(sp)
    4ff4:	ab1fb0ef          	jal	aa4 <memset>
    4ff8:	000aa603          	lw	a2,0(s5)
    4ffc:	0ac10593          	add	a1,sp,172
    5000:	05810693          	add	a3,sp,88
    5004:	00040513          	mv	a0,s0
    5008:	00b12823          	sw	a1,16(sp)
    500c:	418050ef          	jal	a424 <_wcrtomb_r>
    5010:	fff00793          	li	a5,-1
    5014:	01012583          	lw	a1,16(sp)
    5018:	01812e03          	lw	t3,24(sp)
    501c:	01c12883          	lw	a7,28(sp)
    5020:	00050d13          	mv	s10,a0
    5024:	00f51463          	bne	a0,a5,502c <_vfiprintf_r+0x760>
    5028:	0200106f          	j	6048 <_vfiprintf_r+0x177c>
    502c:	fff54e93          	not	t4,a0
    5030:	41fede93          	sra	t4,t4,0x1f
    5034:	01d57eb3          	and	t4,a0,t4
    5038:	040101a3          	sb	zero,67(sp)
    503c:	000d8a93          	mv	s5,s11
    5040:	00058813          	mv	a6,a1
    5044:	a79ff06f          	j	4abc <_vfiprintf_r+0x1f0>
    5048:	411008b3          	neg	a7,a7
    504c:	000cc683          	lbu	a3,0(s9)
    5050:	004ded93          	or	s11,s11,4
    5054:	9f9ff06f          	j	4a4c <_vfiprintf_r+0x180>
    5058:	010dee13          	or	t3,s11,16
    505c:	020e7793          	and	a5,t3,32
    5060:	0c0788e3          	beqz	a5,5930 <_vfiprintf_r+0x1064>
    5064:	007a8a93          	add	s5,s5,7
    5068:	ff8afa93          	and	s5,s5,-8
    506c:	004aa683          	lw	a3,4(s5)
    5070:	000aad83          	lw	s11,0(s5)
    5074:	008a8a93          	add	s5,s5,8
    5078:	00068d13          	mv	s10,a3
    507c:	3006c263          	bltz	a3,5380 <_vfiprintf_r+0xab4>
    5080:	32074063          	bltz	a4,53a0 <_vfiprintf_r+0xad4>
    5084:	01ade6b3          	or	a3,s11,s10
    5088:	f7fe7e13          	and	t3,t3,-129
    508c:	30069a63          	bnez	a3,53a0 <_vfiprintf_r+0xad4>
    5090:	68071ae3          	bnez	a4,5f24 <_vfiprintf_r+0x1658>
    5094:	04314783          	lbu	a5,67(sp)
    5098:	00012823          	sw	zero,16(sp)
    509c:	00000e93          	li	t4,0
    50a0:	00000d13          	li	s10,0
    50a4:	11010813          	add	a6,sp,272
